
Loop2_Nucleo_DLI_sim.elf:     file format elf32-littlearm

Sections:
Idx Name          Size      VMA       LMA       File off  Algn
  0 .isr_vector   000001d0  08000000  08000000  00001000  2**0
                  CONTENTS, ALLOC, LOAD, READONLY, DATA
  1 .text         000066c4  080001d0  080001d0  000011d0  2**4
                  CONTENTS, ALLOC, LOAD, READONLY, CODE
  2 .rodata       000001bc  08006894  08006894  00007894  2**2
                  CONTENTS, ALLOC, LOAD, READONLY, DATA
  3 .ARM.extab    00000000  08006a50  08006a50  00008078  2**0
                  CONTENTS, READONLY
  4 .ARM          00000008  08006a50  08006a50  00007a50  2**2
                  CONTENTS, ALLOC, LOAD, READONLY, DATA
  5 .preinit_array 00000000  08006a58  08006a58  00008078  2**0
                  CONTENTS, ALLOC, LOAD, DATA
  6 .init_array   00000004  08006a58  08006a58  00007a58  2**2
                  CONTENTS, ALLOC, LOAD, READONLY, DATA
  7 .fini_array   00000004  08006a5c  08006a5c  00007a5c  2**2
                  CONTENTS, ALLOC, LOAD, READONLY, DATA
  8 .data         00000078  20000000  08006a60  00008000  2**2
                  CONTENTS, ALLOC, LOAD, DATA
  9 .bss          000011e4  20000078  08006ad8  00008078  2**2
                  ALLOC
 10 ._user_heap_stack 00000604  2000125c  08006ad8  0000825c  2**0
                  ALLOC
 11 .ARM.attributes 00000029  00000000  00000000  00008078  2**0
                  CONTENTS, READONLY
 12 .debug_info   00010c2e  00000000  00000000  000080a1  2**0
                  CONTENTS, READONLY, DEBUGGING, OCTETS
 13 .debug_abbrev 00003062  00000000  00000000  00018ccf  2**0
                  CONTENTS, READONLY, DEBUGGING, OCTETS
 14 .debug_aranges 00000f38  00000000  00000000  0001bd38  2**3
                  CONTENTS, READONLY, DEBUGGING, OCTETS
 15 .debug_rnglists 00000b96  00000000  00000000  0001cc70  2**0
                  CONTENTS, READONLY, DEBUGGING, OCTETS
 16 .debug_macro  00013015  00000000  00000000  0001d806  2**0
                  CONTENTS, READONLY, DEBUGGING, OCTETS
 17 .debug_line   00013f76  00000000  00000000  0003081b  2**0
                  CONTENTS, READONLY, DEBUGGING, OCTETS
 18 .debug_str    0006dda5  00000000  00000000  00044791  2**0
                  CONTENTS, READONLY, DEBUGGING, OCTETS
 19 .comment      00000043  00000000  00000000  000b2536  2**0
                  CONTENTS, READONLY
 20 .debug_frame  00004148  00000000  00000000  000b257c  2**2
                  CONTENTS, READONLY, DEBUGGING, OCTETS
 21 .debug_line_str 0000004e  00000000  00000000  000b66c4  2**0
                  CONTENTS, READONLY, DEBUGGING, OCTETS

Disassembly of section .text:

080001d0 <__do_global_dtors_aux>:
 80001d0:	b510      	push	{r4, lr}
 80001d2:	4c05      	ldr	r4, [pc, #20]	@ (80001e8 <__do_global_dtors_aux+0x18>)
 80001d4:	7823      	ldrb	r3, [r4, #0]
 80001d6:	b933      	cbnz	r3, 80001e6 <__do_global_dtors_aux+0x16>
 80001d8:	4b04      	ldr	r3, [pc, #16]	@ (80001ec <__do_global_dtors_aux+0x1c>)
 80001da:	b113      	cbz	r3, 80001e2 <__do_global_dtors_aux+0x12>
 80001dc:	4804      	ldr	r0, [pc, #16]	@ (80001f0 <__do_global_dtors_aux+0x20>)
 80001de:	f3af 8000 	nop.w
 80001e2:	2301      	movs	r3, #1
 80001e4:	7023      	strb	r3, [r4, #0]
 80001e6:	bd10      	pop	{r4, pc}
 80001e8:	20000078 	.word	0x20000078
 80001ec:	00000000 	.word	0x00000000
 80001f0:	0800687c 	.word	0x0800687c

080001f4 <frame_dummy>:
 80001f4:	b508      	push	{r3, lr}
 80001f6:	4b03      	ldr	r3, [pc, #12]	@ (8000204 <frame_dummy+0x10>)
 80001f8:	b11b      	cbz	r3, 8000202 <frame_dummy+0xe>
 80001fa:	4903      	ldr	r1, [pc, #12]	@ (8000208 <frame_dummy+0x14>)
 80001fc:	4803      	ldr	r0, [pc, #12]	@ (800020c <frame_dummy+0x18>)
 80001fe:	f3af 8000 	nop.w
 8000202:	bd08      	pop	{r3, pc}
 8000204:	00000000 	.word	0x00000000
 8000208:	2000007c 	.word	0x2000007c
 800020c:	0800687c 	.word	0x0800687c

08000210 <strlen>:
 8000210:	4603      	mov	r3, r0
 8000212:	f813 2b01 	ldrb.w	r2, [r3], #1
 8000216:	2a00      	cmp	r2, #0
 8000218:	d1fb      	bne.n	8000212 <strlen+0x2>
 800021a:	1a18      	subs	r0, r3, r0
 800021c:	3801      	subs	r0, #1
 800021e:	4770      	bx	lr

08000220 <vApplicationGetIdleTaskMemory>:
/* USER CODE BEGIN GET_IDLE_TASK_MEMORY */
static StaticTask_t xIdleTaskTCBBuffer;
static StackType_t xIdleStack[configMINIMAL_STACK_SIZE];

void vApplicationGetIdleTaskMemory( StaticTask_t **ppxIdleTaskTCBBuffer, StackType_t **ppxIdleTaskStackBuffer, uint32_t *pulIdleTaskStackSize )
{
 8000220:	b480      	push	{r7}
 8000222:	b085      	sub	sp, #20
 8000224:	af00      	add	r7, sp, #0
 8000226:	60f8      	str	r0, [r7, #12]
 8000228:	60b9      	str	r1, [r7, #8]
 800022a:	607a      	str	r2, [r7, #4]
  *ppxIdleTaskTCBBuffer = &xIdleTaskTCBBuffer;
 800022c:	68fb      	ldr	r3, [r7, #12]
 800022e:	4a06      	ldr	r2, [pc, #24]	@ (8000248 <vApplicationGetIdleTaskMemory+0x28>)
 8000230:	601a      	str	r2, [r3, #0]
  *ppxIdleTaskStackBuffer = &xIdleStack[0];
 8000232:	68bb      	ldr	r3, [r7, #8]
 8000234:	4a05      	ldr	r2, [pc, #20]	@ (800024c <vApplicationGetIdleTaskMemory+0x2c>)
 8000236:	601a      	str	r2, [r3, #0]
  *pulIdleTaskStackSize = configMINIMAL_STACK_SIZE;
 8000238:	687b      	ldr	r3, [r7, #4]
 800023a:	2280      	movs	r2, #128	@ 0x80
 800023c:	601a      	str	r2, [r3, #0]
  /* place for user code */
}
 800023e:	bf00      	nop
 8000240:	3714      	adds	r7, #20
 8000242:	46bd      	mov	sp, r7
 8000244:	bc80      	pop	{r7}
 8000246:	4770      	bx	lr
 8000248:	200000a0 	.word	0x200000a0
 800024c:	200000f4 	.word	0x200000f4

08000250 <MX_FREERTOS_Init>:
/**
  * @brief  FreeRTOS initialization
  * @param  None
  * @retval None
  */
void MX_FREERTOS_Init(void) {
 8000250:	b5b0      	push	{r4, r5, r7, lr}
 8000252:	b08e      	sub	sp, #56	@ 0x38
 8000254:	af00      	add	r7, sp, #0
  /* add queues, ... */
  /* USER CODE END RTOS_QUEUES */

  /* Create the thread(s) */
  /* definition and creation of defaultTask */
  osThreadDef(defaultTask, StartDefaultTask, osPriorityNormal, 0, 128);
 8000256:	4b16      	ldr	r3, [pc, #88]	@ (80002b0 <MX_FREERTOS_Init+0x60>)
 8000258:	f107 041c 	add.w	r4, r7, #28
 800025c:	461d      	mov	r5, r3
 800025e:	cd0f      	ldmia	r5!, {r0, r1, r2, r3}
 8000260:	c40f      	stmia	r4!, {r0, r1, r2, r3}
 8000262:	e895 0007 	ldmia.w	r5, {r0, r1, r2}
 8000266:	e884 0007 	stmia.w	r4, {r0, r1, r2}
  defaultTaskHandle = osThreadCreate(osThread(defaultTask), NULL);
 800026a:	f107 031c 	add.w	r3, r7, #28
 800026e:	2100      	movs	r1, #0
 8000270:	4618      	mov	r0, r3
 8000272:	f004 fac5 	bl	8004800 <osThreadCreate>
 8000276:	4603      	mov	r3, r0
 8000278:	4a0e      	ldr	r2, [pc, #56]	@ (80002b4 <MX_FREERTOS_Init+0x64>)
 800027a:	6013      	str	r3, [r2, #0]

  /* definition and creation of I2C_Task */
  osThreadDef(I2C_Task, StartI2CTask, osPriorityIdle, 0, 128);
 800027c:	4b0e      	ldr	r3, [pc, #56]	@ (80002b8 <MX_FREERTOS_Init+0x68>)
 800027e:	463c      	mov	r4, r7
 8000280:	461d      	mov	r5, r3
 8000282:	cd0f      	ldmia	r5!, {r0, r1, r2, r3}
 8000284:	c40f      	stmia	r4!, {r0, r1, r2, r3}
 8000286:	e895 0007 	ldmia.w	r5, {r0, r1, r2}
 800028a:	e884 0007 	stmia.w	r4, {r0, r1, r2}
  I2C_TaskHandle = osThreadCreate(osThread(I2C_Task), NULL);
 800028e:	463b      	mov	r3, r7
 8000290:	2100      	movs	r1, #0
 8000292:	4618      	mov	r0, r3
 8000294:	f004 fab4 	bl	8004800 <osThreadCreate>
 8000298:	4603      	mov	r3, r0
 800029a:	4a08      	ldr	r2, [pc, #32]	@ (80002bc <MX_FREERTOS_Init+0x6c>)
 800029c:	6013      	str	r3, [r2, #0]

  /* USER CODE BEGIN RTOS_THREADS */
  /* add threads, ... */
//  xI2C_TaskHandle = (TaskHandle_t)I2C_TaskHandle;
  xI2C_TaskHandle = (TaskHandle_t)I2C_TaskHandle;
 800029e:	4b07      	ldr	r3, [pc, #28]	@ (80002bc <MX_FREERTOS_Init+0x6c>)
 80002a0:	681b      	ldr	r3, [r3, #0]
 80002a2:	4a07      	ldr	r2, [pc, #28]	@ (80002c0 <MX_FREERTOS_Init+0x70>)
 80002a4:	6013      	str	r3, [r2, #0]



  /* USER CODE END RTOS_THREADS */

}
 80002a6:	bf00      	nop
 80002a8:	3738      	adds	r7, #56	@ 0x38
 80002aa:	46bd      	mov	sp, r7
 80002ac:	bdb0      	pop	{r4, r5, r7, pc}
 80002ae:	bf00      	nop
 80002b0:	080068a0 	.word	0x080068a0
 80002b4:	20000098 	.word	0x20000098
 80002b8:	080068c8 	.word	0x080068c8
 80002bc:	2000009c 	.word	0x2000009c
 80002c0:	20000094 	.word	0x20000094

080002c4 <StartDefaultTask>:
  * @param  argument: Not used
  * @retval None
  */
/* USER CODE END Header_StartDefaultTask */
void StartDefaultTask(void const * argument)
{
 80002c4:	b580      	push	{r7, lr}
 80002c6:	b082      	sub	sp, #8
 80002c8:	af00      	add	r7, sp, #0
 80002ca:	6078      	str	r0, [r7, #4]
  /* Infinite loop */
  for(;;)
  {

	    // Process I2C error recovery only (RX/TX are handled in I2C task via notifications)
	    if (i2c_err_flag)
 80002cc:	4b0e      	ldr	r3, [pc, #56]	@ (8000308 <StartDefaultTask+0x44>)
 80002ce:	781b      	ldrb	r3, [r3, #0]
 80002d0:	b2db      	uxtb	r3, r3
 80002d2:	2b00      	cmp	r3, #0
 80002d4:	d013      	beq.n	80002fe <StartDefaultTask+0x3a>
	    {
	      i2c_err_flag = 0;
 80002d6:	4b0c      	ldr	r3, [pc, #48]	@ (8000308 <StartDefaultTask+0x44>)
 80002d8:	2200      	movs	r2, #0
 80002da:	701a      	strb	r2, [r3, #0]
	      /*uart_printf("I2C: ERROR detected, code=0x%08lX - reinitializing I2C\r\n", i2c_last_error);*/

	      // Deinit and re-init the peripheral (do heavy work in main context)
	      if (HAL_I2C_DeInit(&hi2c1) != HAL_OK)
 80002dc:	480b      	ldr	r0, [pc, #44]	@ (800030c <StartDefaultTask+0x48>)
 80002de:	f001 fe13 	bl	8001f08 <HAL_I2C_DeInit>
	      {
	        /*uart_printf("I2C: DeInit failed\r\n");*/
	      }
	      // Reconfigure/Init peripheral using the generated init routine
	      MX_I2C1_Init();
 80002e2:	f000 fccf 	bl	8000c84 <MX_I2C1_Init>

	      // Re-arm TX and RX
	      HAL_I2C_Slave_Transmit_IT(&hi2c1, (uint8_t *)buffer_tx, 3);
 80002e6:	4b0a      	ldr	r3, [pc, #40]	@ (8000310 <StartDefaultTask+0x4c>)
 80002e8:	681b      	ldr	r3, [r3, #0]
 80002ea:	2203      	movs	r2, #3
 80002ec:	4619      	mov	r1, r3
 80002ee:	4807      	ldr	r0, [pc, #28]	@ (800030c <StartDefaultTask+0x48>)
 80002f0:	f001 fe4e 	bl	8001f90 <HAL_I2C_Slave_Transmit_IT>
	      HAL_I2C_Slave_Receive_IT(&hi2c1, rxCmd, 2);
 80002f4:	2202      	movs	r2, #2
 80002f6:	4907      	ldr	r1, [pc, #28]	@ (8000314 <StartDefaultTask+0x50>)
 80002f8:	4804      	ldr	r0, [pc, #16]	@ (800030c <StartDefaultTask+0x48>)
 80002fa:	f001 feb7 	bl	800206c <HAL_I2C_Slave_Receive_IT>

	      /*uart_printf("I2C: Re-armed TX and RX after error\r\n");*/
	    }
		osDelay(10);
 80002fe:	200a      	movs	r0, #10
 8000300:	f004 faca 	bl	8004898 <osDelay>
	    if (i2c_err_flag)
 8000304:	e7e2      	b.n	80002cc <StartDefaultTask+0x8>
 8000306:	bf00      	nop
 8000308:	2000036b 	.word	0x2000036b
 800030c:	200002f8 	.word	0x200002f8
 8000310:	20000010 	.word	0x20000010
 8000314:	20000364 	.word	0x20000364

08000318 <StartI2CTask>:
* @param argument: Not used
* @retval None
*/
/* USER CODE END Header_StartI2CTask */
void StartI2CTask(void const * argument)
{
 8000318:	b580      	push	{r7, lr}
 800031a:	b088      	sub	sp, #32
 800031c:	af02      	add	r7, sp, #8
 800031e:	6078      	str	r0, [r7, #4]
  /* Infinite loop */
  for(;;)
  {


	  uint32_t ev =0; //changer de place plus tard dans le bon dossier
 8000320:	2300      	movs	r3, #0
 8000322:	60fb      	str	r3, [r7, #12]

	  	  xTaskNotifyWait(0, 0xFFFFFFFFu, &ev, portMAX_DELAY); // wait indefinitely for notification
 8000324:	f107 020c 	add.w	r2, r7, #12
 8000328:	f04f 33ff 	mov.w	r3, #4294967295
 800032c:	f04f 31ff 	mov.w	r1, #4294967295
 8000330:	2000      	movs	r0, #0
 8000332:	f005 f859 	bl	80053e8 <xTaskNotifyWait>



	  	  if((ev & I2C_EVENT_RX_COMPLETE) == I2C_EVENT_RX_COMPLETE)
 8000336:	68fb      	ldr	r3, [r7, #12]
 8000338:	f003 0301 	and.w	r3, r3, #1
 800033c:	2b00      	cmp	r3, #0
 800033e:	f000 81c8 	beq.w	80006d2 <StartI2CTask+0x3ba>
	  	  {

	  		uint8_t cmd = rxCmd[0];
 8000342:	4bec      	ldr	r3, [pc, #944]	@ (80006f4 <StartI2CTask+0x3dc>)
 8000344:	781b      	ldrb	r3, [r3, #0]
 8000346:	75bb      	strb	r3, [r7, #22]
	  		switch(cmd)
 8000348:	7dbb      	ldrb	r3, [r7, #22]
 800034a:	3b2c      	subs	r3, #44	@ 0x2c
 800034c:	2bd2      	cmp	r3, #210	@ 0xd2
 800034e:	f200 81bf 	bhi.w	80006d0 <StartI2CTask+0x3b8>
 8000352:	a201      	add	r2, pc, #4	@ (adr r2, 8000358 <StartI2CTask+0x40>)
 8000354:	f852 f023 	ldr.w	pc, [r2, r3, lsl #2]
 8000358:	080006d1 	.word	0x080006d1
 800035c:	080006d1 	.word	0x080006d1
 8000360:	080006d1 	.word	0x080006d1
 8000364:	080006d1 	.word	0x080006d1
 8000368:	080006d1 	.word	0x080006d1
 800036c:	080006d1 	.word	0x080006d1
 8000370:	080006d1 	.word	0x080006d1
 8000374:	080006d1 	.word	0x080006d1
 8000378:	080006d1 	.word	0x080006d1
 800037c:	080006d1 	.word	0x080006d1
 8000380:	080006d1 	.word	0x080006d1
 8000384:	080006d1 	.word	0x080006d1
 8000388:	080006d1 	.word	0x080006d1
 800038c:	080006d1 	.word	0x080006d1
 8000390:	080006d1 	.word	0x080006d1
 8000394:	080006d1 	.word	0x080006d1
 8000398:	080006d1 	.word	0x080006d1
 800039c:	080006d1 	.word	0x080006d1
 80003a0:	080006d1 	.word	0x080006d1
 80003a4:	080006d1 	.word	0x080006d1
 80003a8:	080006d1 	.word	0x080006d1
 80003ac:	080006d1 	.word	0x080006d1
 80003b0:	080006d1 	.word	0x080006d1
 80003b4:	080006d1 	.word	0x080006d1
 80003b8:	080006d1 	.word	0x080006d1
 80003bc:	080006d1 	.word	0x080006d1
 80003c0:	080006d1 	.word	0x080006d1
 80003c4:	080006d1 	.word	0x080006d1
 80003c8:	080006d1 	.word	0x080006d1
 80003cc:	080006d1 	.word	0x080006d1
 80003d0:	080006d1 	.word	0x080006d1
 80003d4:	080006d1 	.word	0x080006d1
 80003d8:	080006d1 	.word	0x080006d1
 80003dc:	080006d1 	.word	0x080006d1
 80003e0:	080006d1 	.word	0x080006d1
 80003e4:	080006d1 	.word	0x080006d1
 80003e8:	080006d1 	.word	0x080006d1
 80003ec:	080006d1 	.word	0x080006d1
 80003f0:	080006d1 	.word	0x080006d1
 80003f4:	080006d1 	.word	0x080006d1
 80003f8:	080006d1 	.word	0x080006d1
 80003fc:	080006d1 	.word	0x080006d1
 8000400:	080006d1 	.word	0x080006d1
 8000404:	080006d1 	.word	0x080006d1
 8000408:	080006d1 	.word	0x080006d1
 800040c:	080006d1 	.word	0x080006d1
 8000410:	080006d1 	.word	0x080006d1
 8000414:	080006d1 	.word	0x080006d1
 8000418:	080006d1 	.word	0x080006d1
 800041c:	080006d1 	.word	0x080006d1
 8000420:	080006d1 	.word	0x080006d1
 8000424:	080006d1 	.word	0x080006d1
 8000428:	080006d1 	.word	0x080006d1
 800042c:	080006d1 	.word	0x080006d1
 8000430:	080006d1 	.word	0x080006d1
 8000434:	080006d1 	.word	0x080006d1
 8000438:	080006d1 	.word	0x080006d1
 800043c:	080006d1 	.word	0x080006d1
 8000440:	080006d1 	.word	0x080006d1
 8000444:	080006d1 	.word	0x080006d1
 8000448:	080006d1 	.word	0x080006d1
 800044c:	080006d1 	.word	0x080006d1
 8000450:	080006d1 	.word	0x080006d1
 8000454:	080006d1 	.word	0x080006d1
 8000458:	080006d1 	.word	0x080006d1
 800045c:	080006d1 	.word	0x080006d1
 8000460:	080006d1 	.word	0x080006d1
 8000464:	080006d1 	.word	0x080006d1
 8000468:	080006d1 	.word	0x080006d1
 800046c:	080006d1 	.word	0x080006d1
 8000470:	080006d1 	.word	0x080006d1
 8000474:	080006d1 	.word	0x080006d1
 8000478:	080006d1 	.word	0x080006d1
 800047c:	080006d1 	.word	0x080006d1
 8000480:	080006d1 	.word	0x080006d1
 8000484:	080006d1 	.word	0x080006d1
 8000488:	080006d1 	.word	0x080006d1
 800048c:	080006d1 	.word	0x080006d1
 8000490:	080006d1 	.word	0x080006d1
 8000494:	080006d1 	.word	0x080006d1
 8000498:	080006d1 	.word	0x080006d1
 800049c:	080006d1 	.word	0x080006d1
 80004a0:	080006d1 	.word	0x080006d1
 80004a4:	080006d1 	.word	0x080006d1
 80004a8:	080006d1 	.word	0x080006d1
 80004ac:	080006d1 	.word	0x080006d1
 80004b0:	080006d1 	.word	0x080006d1
 80004b4:	080006d1 	.word	0x080006d1
 80004b8:	080006d1 	.word	0x080006d1
 80004bc:	080006d1 	.word	0x080006d1
 80004c0:	080006d1 	.word	0x080006d1
 80004c4:	080006d1 	.word	0x080006d1
 80004c8:	080006d1 	.word	0x080006d1
 80004cc:	080006d1 	.word	0x080006d1
 80004d0:	080006d1 	.word	0x080006d1
 80004d4:	080006d1 	.word	0x080006d1
 80004d8:	080006d1 	.word	0x080006d1
 80004dc:	080006d1 	.word	0x080006d1
 80004e0:	080006d1 	.word	0x080006d1
 80004e4:	080006d1 	.word	0x080006d1
 80004e8:	080006d1 	.word	0x080006d1
 80004ec:	080006d1 	.word	0x080006d1
 80004f0:	080006d1 	.word	0x080006d1
 80004f4:	080006d1 	.word	0x080006d1
 80004f8:	080006d1 	.word	0x080006d1
 80004fc:	080006d1 	.word	0x080006d1
 8000500:	080006d1 	.word	0x080006d1
 8000504:	080006d1 	.word	0x080006d1
 8000508:	080006d1 	.word	0x080006d1
 800050c:	080006d1 	.word	0x080006d1
 8000510:	080006d1 	.word	0x080006d1
 8000514:	080006d1 	.word	0x080006d1
 8000518:	080006d1 	.word	0x080006d1
 800051c:	080006d1 	.word	0x080006d1
 8000520:	080006d1 	.word	0x080006d1
 8000524:	080006d1 	.word	0x080006d1
 8000528:	080006d1 	.word	0x080006d1
 800052c:	080006d1 	.word	0x080006d1
 8000530:	080006d1 	.word	0x080006d1
 8000534:	080006d1 	.word	0x080006d1
 8000538:	080006d1 	.word	0x080006d1
 800053c:	080006d1 	.word	0x080006d1
 8000540:	080006d1 	.word	0x080006d1
 8000544:	080006d1 	.word	0x080006d1
 8000548:	080006d1 	.word	0x080006d1
 800054c:	080006d1 	.word	0x080006d1
 8000550:	080006d1 	.word	0x080006d1
 8000554:	080006d1 	.word	0x080006d1
 8000558:	080006d1 	.word	0x080006d1
 800055c:	080006d1 	.word	0x080006d1
 8000560:	080006d1 	.word	0x080006d1
 8000564:	080006d1 	.word	0x080006d1
 8000568:	080006d1 	.word	0x080006d1
 800056c:	080006d1 	.word	0x080006d1
 8000570:	080006d1 	.word	0x080006d1
 8000574:	080006d1 	.word	0x080006d1
 8000578:	080006d1 	.word	0x080006d1
 800057c:	080006d1 	.word	0x080006d1
 8000580:	080006d1 	.word	0x080006d1
 8000584:	080006d1 	.word	0x080006d1
 8000588:	080006d1 	.word	0x080006d1
 800058c:	080006d1 	.word	0x080006d1
 8000590:	080006d1 	.word	0x080006d1
 8000594:	080006d1 	.word	0x080006d1
 8000598:	080006d1 	.word	0x080006d1
 800059c:	080006d1 	.word	0x080006d1
 80005a0:	080006d1 	.word	0x080006d1
 80005a4:	080006d1 	.word	0x080006d1
 80005a8:	080006a5 	.word	0x080006a5
 80005ac:	080006d1 	.word	0x080006d1
 80005b0:	080006d1 	.word	0x080006d1
 80005b4:	080006d1 	.word	0x080006d1
 80005b8:	080006d1 	.word	0x080006d1
 80005bc:	080006d1 	.word	0x080006d1
 80005c0:	080006d1 	.word	0x080006d1
 80005c4:	080006d1 	.word	0x080006d1
 80005c8:	080006d1 	.word	0x080006d1
 80005cc:	080006d1 	.word	0x080006d1
 80005d0:	080006d1 	.word	0x080006d1
 80005d4:	080006d1 	.word	0x080006d1
 80005d8:	080006d1 	.word	0x080006d1
 80005dc:	080006d1 	.word	0x080006d1
 80005e0:	080006d1 	.word	0x080006d1
 80005e4:	080006d1 	.word	0x080006d1
 80005e8:	080006d1 	.word	0x080006d1
 80005ec:	080006d1 	.word	0x080006d1
 80005f0:	080006d1 	.word	0x080006d1
 80005f4:	080006d1 	.word	0x080006d1
 80005f8:	080006d1 	.word	0x080006d1
 80005fc:	080006d1 	.word	0x080006d1
 8000600:	080006d1 	.word	0x080006d1
 8000604:	080006d1 	.word	0x080006d1
 8000608:	080006d1 	.word	0x080006d1
 800060c:	080006d1 	.word	0x080006d1
 8000610:	080006d1 	.word	0x080006d1
 8000614:	080006d1 	.word	0x080006d1
 8000618:	080006d1 	.word	0x080006d1
 800061c:	080006d1 	.word	0x080006d1
 8000620:	080006d1 	.word	0x080006d1
 8000624:	080006d1 	.word	0x080006d1
 8000628:	080006d1 	.word	0x080006d1
 800062c:	080006d1 	.word	0x080006d1
 8000630:	080006d1 	.word	0x080006d1
 8000634:	080006d1 	.word	0x080006d1
 8000638:	080006d1 	.word	0x080006d1
 800063c:	080006d1 	.word	0x080006d1
 8000640:	080006d1 	.word	0x080006d1
 8000644:	080006d1 	.word	0x080006d1
 8000648:	080006d1 	.word	0x080006d1
 800064c:	080006d1 	.word	0x080006d1
 8000650:	080006d1 	.word	0x080006d1
 8000654:	080006d1 	.word	0x080006d1
 8000658:	080006d1 	.word	0x080006d1
 800065c:	080006d1 	.word	0x080006d1
 8000660:	080006d1 	.word	0x080006d1
 8000664:	080006d1 	.word	0x080006d1
 8000668:	080006d1 	.word	0x080006d1
 800066c:	080006d1 	.word	0x080006d1
 8000670:	080006d1 	.word	0x080006d1
 8000674:	080006d1 	.word	0x080006d1
 8000678:	080006d1 	.word	0x080006d1
 800067c:	080006d1 	.word	0x080006d1
 8000680:	080006d1 	.word	0x080006d1
 8000684:	080006d1 	.word	0x080006d1
 8000688:	080006d1 	.word	0x080006d1
 800068c:	080006d1 	.word	0x080006d1
 8000690:	080006d1 	.word	0x080006d1
 8000694:	080006d1 	.word	0x080006d1
 8000698:	080006d1 	.word	0x080006d1
 800069c:	080006d1 	.word	0x080006d1
 80006a0:	080006d1 	.word	0x080006d1

	  		    case COMMAND_MULTI_READ_END: // 0xBC
	  		        break;

	  		    case COMMAND_IMPORT_DETECTOR: // 0xC0
	  		        step = step_init;
 80006a4:	4b14      	ldr	r3, [pc, #80]	@ (80006f8 <StartI2CTask+0x3e0>)
 80006a6:	2201      	movs	r2, #1
 80006a8:	701a      	strb	r2, [r3, #0]
	  		        current_tx_index = 0;
 80006aa:	4b14      	ldr	r3, [pc, #80]	@ (80006fc <StartI2CTask+0x3e4>)
 80006ac:	2200      	movs	r2, #0
 80006ae:	701a      	strb	r2, [r3, #0]
	  		        buffer_tx = get_generated_point_to_send(current_tx_index);
 80006b0:	4b12      	ldr	r3, [pc, #72]	@ (80006fc <StartI2CTask+0x3e4>)
 80006b2:	781b      	ldrb	r3, [r3, #0]
 80006b4:	4618      	mov	r0, r3
 80006b6:	f000 f9b3 	bl	8000a20 <get_generated_point_to_send>
 80006ba:	4603      	mov	r3, r0
 80006bc:	4a10      	ldr	r2, [pc, #64]	@ (8000700 <StartI2CTask+0x3e8>)
 80006be:	6013      	str	r3, [r2, #0]
	  		        HAL_I2C_Slave_Transmit_IT(&hi2c1, (uint8_t *)buffer_tx, 3);
 80006c0:	4b0f      	ldr	r3, [pc, #60]	@ (8000700 <StartI2CTask+0x3e8>)
 80006c2:	681b      	ldr	r3, [r3, #0]
 80006c4:	2203      	movs	r2, #3
 80006c6:	4619      	mov	r1, r3
 80006c8:	480e      	ldr	r0, [pc, #56]	@ (8000704 <StartI2CTask+0x3ec>)
 80006ca:	f001 fc61 	bl	8001f90 <HAL_I2C_Slave_Transmit_IT>
//	  		        HAL_GPIO_WritePin(LED_INIT_GPIO_Port, LED_INIT_Pin, GPIO_PIN_SET); // indicate import started
	  		        break;
 80006ce:	e000      	b.n	80006d2 <StartI2CTask+0x3ba>

	  		    case COMMAND_ICHECK: // 0xFE
	  		        break;

	  		    default:
	  		        break;
 80006d0:	bf00      	nop
	  		}

	  	  }

	  	if ((ev & I2C_EVENT_TX_COMPLETE) == I2C_EVENT_TX_COMPLETE)
 80006d2:	68fb      	ldr	r3, [r7, #12]
 80006d4:	f003 0302 	and.w	r3, r3, #2
 80006d8:	2b00      	cmp	r3, #0
 80006da:	d05d      	beq.n	8000798 <StartI2CTask+0x480>
	  	{
	  	    // Check if a special message is pending
	  	    if (special_message_pending)
 80006dc:	4b0a      	ldr	r3, [pc, #40]	@ (8000708 <StartI2CTask+0x3f0>)
 80006de:	781b      	ldrb	r3, [r3, #0]
 80006e0:	b2db      	uxtb	r3, r3
 80006e2:	2b00      	cmp	r3, #0
 80006e4:	d014      	beq.n	8000710 <StartI2CTask+0x3f8>
	  	    {
	  	        // Send the special message (already copied to tx_0)
	  	        buffer_tx = &tx_0;
 80006e6:	4b06      	ldr	r3, [pc, #24]	@ (8000700 <StartI2CTask+0x3e8>)
 80006e8:	4a08      	ldr	r2, [pc, #32]	@ (800070c <StartI2CTask+0x3f4>)
 80006ea:	601a      	str	r2, [r3, #0]
	  	        special_message_pending = 0; // Clear flag after sending once
 80006ec:	4b06      	ldr	r3, [pc, #24]	@ (8000708 <StartI2CTask+0x3f0>)
 80006ee:	2200      	movs	r2, #0
 80006f0:	701a      	strb	r2, [r3, #0]
 80006f2:	e025      	b.n	8000740 <StartI2CTask+0x428>
 80006f4:	20000364 	.word	0x20000364
 80006f8:	20000014 	.word	0x20000014
 80006fc:	2000036d 	.word	0x2000036d
 8000700:	20000010 	.word	0x20000010
 8000704:	200002f8 	.word	0x200002f8
 8000708:	2000036c 	.word	0x2000036c
 800070c:	20000368 	.word	0x20000368
	  	    }
	  	    else
	  	    {
	  	        // Continue with normal generated_points cycle
	  	        current_tx_index++;
 8000710:	4b9f      	ldr	r3, [pc, #636]	@ (8000990 <StartI2CTask+0x678>)
 8000712:	781b      	ldrb	r3, [r3, #0]
 8000714:	3301      	adds	r3, #1
 8000716:	b2da      	uxtb	r2, r3
 8000718:	4b9d      	ldr	r3, [pc, #628]	@ (8000990 <StartI2CTask+0x678>)
 800071a:	701a      	strb	r2, [r3, #0]
	  	        if (current_tx_index >= generated_points_count)
 800071c:	4b9c      	ldr	r3, [pc, #624]	@ (8000990 <StartI2CTask+0x678>)
 800071e:	781b      	ldrb	r3, [r3, #0]
 8000720:	461a      	mov	r2, r3
 8000722:	4b9c      	ldr	r3, [pc, #624]	@ (8000994 <StartI2CTask+0x67c>)
 8000724:	881b      	ldrh	r3, [r3, #0]
 8000726:	429a      	cmp	r2, r3
 8000728:	d302      	bcc.n	8000730 <StartI2CTask+0x418>
	  	        {
	  	            current_tx_index = 1; // restart from first real point, not 0x00 0x00 0x00
 800072a:	4b99      	ldr	r3, [pc, #612]	@ (8000990 <StartI2CTask+0x678>)
 800072c:	2201      	movs	r2, #1
 800072e:	701a      	strb	r2, [r3, #0]
	  	        }
	  	        buffer_tx = get_generated_point_to_send(current_tx_index);
 8000730:	4b97      	ldr	r3, [pc, #604]	@ (8000990 <StartI2CTask+0x678>)
 8000732:	781b      	ldrb	r3, [r3, #0]
 8000734:	4618      	mov	r0, r3
 8000736:	f000 f973 	bl	8000a20 <get_generated_point_to_send>
 800073a:	4603      	mov	r3, r0
 800073c:	4a96      	ldr	r2, [pc, #600]	@ (8000998 <StartI2CTask+0x680>)
 800073e:	6013      	str	r3, [r2, #0]
	  	    }

	  	    if (step == step_init)
 8000740:	4b96      	ldr	r3, [pc, #600]	@ (800099c <StartI2CTask+0x684>)
 8000742:	781b      	ldrb	r3, [r3, #0]
 8000744:	2b01      	cmp	r3, #1
 8000746:	d111      	bne.n	800076c <StartI2CTask+0x454>
	  	    {
	  	    	HAL_GPIO_WritePin(LED_INIT_GPIO_Port, LED_INIT_Pin, GPIO_PIN_RESET); // indicate import completed
 8000748:	2200      	movs	r2, #0
 800074a:	2180      	movs	r1, #128	@ 0x80
 800074c:	4894      	ldr	r0, [pc, #592]	@ (80009a0 <StartI2CTask+0x688>)
 800074e:	f001 fa4d 	bl	8001bec <HAL_GPIO_WritePin>
	  	    	HAL_GPIO_WritePin(LED_LOOP_GPIO_Port, LED_LOOP_Pin, GPIO_PIN_SET); // indicate loop mode started
 8000752:	2201      	movs	r2, #1
 8000754:	f44f 7100 	mov.w	r1, #512	@ 0x200
 8000758:	4891      	ldr	r0, [pc, #580]	@ (80009a0 <StartI2CTask+0x688>)
 800075a:	f001 fa47 	bl	8001bec <HAL_GPIO_WritePin>
	  	        osDelay(1000); // brief delay for visual feedback
 800075e:	f44f 707a 	mov.w	r0, #1000	@ 0x3e8
 8000762:	f004 f899 	bl	8004898 <osDelay>
	  	        step = step_loop;
 8000766:	4b8d      	ldr	r3, [pc, #564]	@ (800099c <StartI2CTask+0x684>)
 8000768:	2202      	movs	r2, #2
 800076a:	701a      	strb	r2, [r3, #0]
	  	    }

	  	    //allumer la LED init a chaque fin de trasmission FE FE FE pour indiquer que la boucle est terminée et que le buffer_tx est de nouveau prêt à être utilisé pour un message spécial
	  	    if (buffer_tx == &buffer_tx_end)
 800076c:	4b8a      	ldr	r3, [pc, #552]	@ (8000998 <StartI2CTask+0x680>)
 800076e:	681b      	ldr	r3, [r3, #0]
 8000770:	4a8c      	ldr	r2, [pc, #560]	@ (80009a4 <StartI2CTask+0x68c>)
 8000772:	4293      	cmp	r3, r2
 8000774:	d104      	bne.n	8000780 <StartI2CTask+0x468>
	  	    {
	  	        HAL_GPIO_WritePin(LED_INIT_GPIO_Port, LED_INIT_Pin, GPIO_PIN_SET); // indicate loop completed and ready for special message
 8000776:	2201      	movs	r2, #1
 8000778:	2180      	movs	r1, #128	@ 0x80
 800077a:	4889      	ldr	r0, [pc, #548]	@ (80009a0 <StartI2CTask+0x688>)
 800077c:	f001 fa36 	bl	8001bec <HAL_GPIO_WritePin>
	  	    }
	  	    HAL_I2C_Slave_Transmit_IT(&hi2c1, (uint8_t *)buffer_tx, 3);
 8000780:	4b85      	ldr	r3, [pc, #532]	@ (8000998 <StartI2CTask+0x680>)
 8000782:	681b      	ldr	r3, [r3, #0]
 8000784:	2203      	movs	r2, #3
 8000786:	4619      	mov	r1, r3
 8000788:	4887      	ldr	r0, [pc, #540]	@ (80009a8 <StartI2CTask+0x690>)
 800078a:	f001 fc01 	bl	8001f90 <HAL_I2C_Slave_Transmit_IT>

	  	    HAL_GPIO_TogglePin(LED_TX_COMPLETE_GPIO_Port, LED_TX_COMPLETE_Pin); // Toggle an LED to indicate TX complete
 800078e:	f44f 6180 	mov.w	r1, #1024	@ 0x400
 8000792:	4886      	ldr	r0, [pc, #536]	@ (80009ac <StartI2CTask+0x694>)
 8000794:	f001 fa42 	bl	8001c1c <HAL_GPIO_TogglePin>


	  	}


	  	if ((ev & EVENT_BTN_SPECIAL_SEL) == EVENT_BTN_SPECIAL_SEL)
 8000798:	68fb      	ldr	r3, [r7, #12]
 800079a:	f403 7380 	and.w	r3, r3, #256	@ 0x100
 800079e:	2b00      	cmp	r3, #0
 80007a0:	d018      	beq.n	80007d4 <StartI2CTask+0x4bc>
	  		  	{
	  		  	    // Cycle through available points
	  		  		selected_special_message_index++;
 80007a2:	4b83      	ldr	r3, [pc, #524]	@ (80009b0 <StartI2CTask+0x698>)
 80007a4:	781b      	ldrb	r3, [r3, #0]
 80007a6:	3301      	adds	r3, #1
 80007a8:	b2da      	uxtb	r2, r3
 80007aa:	4b81      	ldr	r3, [pc, #516]	@ (80009b0 <StartI2CTask+0x698>)
 80007ac:	701a      	strb	r2, [r3, #0]
	  		  	    if (selected_special_message_index >= SPECIAL_MESSAGE_MAX)
 80007ae:	4b80      	ldr	r3, [pc, #512]	@ (80009b0 <StartI2CTask+0x698>)
 80007b0:	781b      	ldrb	r3, [r3, #0]
 80007b2:	2b27      	cmp	r3, #39	@ 0x27
 80007b4:	d902      	bls.n	80007bc <StartI2CTask+0x4a4>
	  		  	    {
	  		  	   	 selected_special_message_index = SPECIAL_MESSAGE_NONE; // wrap around to "none" state
 80007b6:	4b7e      	ldr	r3, [pc, #504]	@ (80009b0 <StartI2CTask+0x698>)
 80007b8:	2200      	movs	r2, #0
 80007ba:	701a      	strb	r2, [r3, #0]
	  		  	    }

	  		  	    // Visual feedback: LED indicates selection mode
	  		  	    HAL_GPIO_WritePin(LED_SPE_SELECT_GPIO_Port, LED_SPE_SELECT_Pin, GPIO_PIN_SET);
 80007bc:	2201      	movs	r2, #1
 80007be:	f44f 6100 	mov.w	r1, #2048	@ 0x800
 80007c2:	4877      	ldr	r0, [pc, #476]	@ (80009a0 <StartI2CTask+0x688>)
 80007c4:	f001 fa12 	bl	8001bec <HAL_GPIO_WritePin>
	  		  	    HAL_GPIO_WritePin(LED_SPE_VALIDATE_GPIO_Port, LED_SPE_VALIDATE_Pin, GPIO_PIN_RESET);
 80007c8:	2200      	movs	r2, #0
 80007ca:	f44f 5180 	mov.w	r1, #4096	@ 0x1000
 80007ce:	4874      	ldr	r0, [pc, #464]	@ (80009a0 <StartI2CTask+0x688>)
 80007d0:	f001 fa0c 	bl	8001bec <HAL_GPIO_WritePin>

	  		  	}

	  	if (ev & EVENT_BTN_SPECIAL_VAL)
 80007d4:	68fb      	ldr	r3, [r7, #12]
 80007d6:	f403 7300 	and.w	r3, r3, #512	@ 0x200
 80007da:	2b00      	cmp	r3, #0
 80007dc:	d04a      	beq.n	8000874 <StartI2CTask+0x55c>
	  	{
	  		if (selected_special_message_index > SPECIAL_MESSAGE_NONE &&
 80007de:	4b74      	ldr	r3, [pc, #464]	@ (80009b0 <StartI2CTask+0x698>)
 80007e0:	781b      	ldrb	r3, [r3, #0]
 80007e2:	2b00      	cmp	r3, #0
 80007e4:	d033      	beq.n	800084e <StartI2CTask+0x536>
	  	        selected_special_message_index < SPECIAL_MESSAGE_MAX)
 80007e6:	4b72      	ldr	r3, [pc, #456]	@ (80009b0 <StartI2CTask+0x698>)
 80007e8:	781b      	ldrb	r3, [r3, #0]
	  		if (selected_special_message_index > SPECIAL_MESSAGE_NONE &&
 80007ea:	2b27      	cmp	r3, #39	@ 0x27
 80007ec:	d82f      	bhi.n	800084e <StartI2CTask+0x536>
	  	    {
	  			int index = selected_special_message_index - 1; // adjust index to account for SPECIAL_MESSAGE_NONE at 0
 80007ee:	4b70      	ldr	r3, [pc, #448]	@ (80009b0 <StartI2CTask+0x698>)
 80007f0:	781b      	ldrb	r3, [r3, #0]
 80007f2:	3b01      	subs	r3, #1
 80007f4:	613b      	str	r3, [r7, #16]
	  			tx_0.address = special_messages[index].address;
 80007f6:	496f      	ldr	r1, [pc, #444]	@ (80009b4 <StartI2CTask+0x69c>)
 80007f8:	693a      	ldr	r2, [r7, #16]
 80007fa:	4613      	mov	r3, r2
 80007fc:	005b      	lsls	r3, r3, #1
 80007fe:	4413      	add	r3, r2
 8000800:	440b      	add	r3, r1
 8000802:	781a      	ldrb	r2, [r3, #0]
 8000804:	4b6c      	ldr	r3, [pc, #432]	@ (80009b8 <StartI2CTask+0x6a0>)
 8000806:	701a      	strb	r2, [r3, #0]
	  			tx_0.type = special_messages[index].type;
 8000808:	496a      	ldr	r1, [pc, #424]	@ (80009b4 <StartI2CTask+0x69c>)
 800080a:	693a      	ldr	r2, [r7, #16]
 800080c:	4613      	mov	r3, r2
 800080e:	005b      	lsls	r3, r3, #1
 8000810:	4413      	add	r3, r2
 8000812:	440b      	add	r3, r1
 8000814:	3301      	adds	r3, #1
 8000816:	781a      	ldrb	r2, [r3, #0]
 8000818:	4b67      	ldr	r3, [pc, #412]	@ (80009b8 <StartI2CTask+0x6a0>)
 800081a:	705a      	strb	r2, [r3, #1]
	  			tx_0.status = special_messages[index].status;
 800081c:	4965      	ldr	r1, [pc, #404]	@ (80009b4 <StartI2CTask+0x69c>)
 800081e:	693a      	ldr	r2, [r7, #16]
 8000820:	4613      	mov	r3, r2
 8000822:	005b      	lsls	r3, r3, #1
 8000824:	4413      	add	r3, r2
 8000826:	440b      	add	r3, r1
 8000828:	3302      	adds	r3, #2
 800082a:	781a      	ldrb	r2, [r3, #0]
 800082c:	4b62      	ldr	r3, [pc, #392]	@ (80009b8 <StartI2CTask+0x6a0>)
 800082e:	709a      	strb	r2, [r3, #2]

	  			// Set flag to send special message on I2C_EVENT_TX_COMPLETE
	  			special_message_pending = 1;
 8000830:	4b62      	ldr	r3, [pc, #392]	@ (80009bc <StartI2CTask+0x6a4>)
 8000832:	2201      	movs	r2, #1
 8000834:	701a      	strb	r2, [r3, #0]

	  	        HAL_GPIO_WritePin(LED_SPE_VALIDATE_GPIO_Port, LED_SPE_VALIDATE_Pin, GPIO_PIN_SET); // indicate special message selected
 8000836:	2201      	movs	r2, #1
 8000838:	f44f 5180 	mov.w	r1, #4096	@ 0x1000
 800083c:	4858      	ldr	r0, [pc, #352]	@ (80009a0 <StartI2CTask+0x688>)
 800083e:	f001 f9d5 	bl	8001bec <HAL_GPIO_WritePin>
	  	        HAL_GPIO_WritePin(LED_SPE_SELECT_GPIO_Port, LED_SPE_SELECT_Pin, GPIO_PIN_RESET); // exit selection mode
 8000842:	2200      	movs	r2, #0
 8000844:	f44f 6100 	mov.w	r1, #2048	@ 0x800
 8000848:	4855      	ldr	r0, [pc, #340]	@ (80009a0 <StartI2CTask+0x688>)
 800084a:	f001 f9cf 	bl	8001bec <HAL_GPIO_WritePin>

	  	    }

	  	    selected_special_message_index = SPECIAL_MESSAGE_NONE; // reset selection after validation
 800084e:	4b58      	ldr	r3, [pc, #352]	@ (80009b0 <StartI2CTask+0x698>)
 8000850:	2200      	movs	r2, #0
 8000852:	701a      	strb	r2, [r3, #0]

#ifdef USE_UART_PRINTF
	  	    uart_printf("Special message validated: index %d | [%02X %02X %02X]\r\n",
 8000854:	4b56      	ldr	r3, [pc, #344]	@ (80009b0 <StartI2CTask+0x698>)
 8000856:	781b      	ldrb	r3, [r3, #0]
 8000858:	4619      	mov	r1, r3
	  	        selected_special_message_index,
	  	        tx_0.address,
 800085a:	4b57      	ldr	r3, [pc, #348]	@ (80009b8 <StartI2CTask+0x6a0>)
 800085c:	781b      	ldrb	r3, [r3, #0]
	  	    uart_printf("Special message validated: index %d | [%02X %02X %02X]\r\n",
 800085e:	461a      	mov	r2, r3
	  	        tx_0.type,
 8000860:	4b55      	ldr	r3, [pc, #340]	@ (80009b8 <StartI2CTask+0x6a0>)
 8000862:	785b      	ldrb	r3, [r3, #1]
	  	    uart_printf("Special message validated: index %d | [%02X %02X %02X]\r\n",
 8000864:	4618      	mov	r0, r3
	  	        tx_0.status
 8000866:	4b54      	ldr	r3, [pc, #336]	@ (80009b8 <StartI2CTask+0x6a0>)
 8000868:	789b      	ldrb	r3, [r3, #2]
	  	    uart_printf("Special message validated: index %d | [%02X %02X %02X]\r\n",
 800086a:	9300      	str	r3, [sp, #0]
 800086c:	4603      	mov	r3, r0
 800086e:	4854      	ldr	r0, [pc, #336]	@ (80009c0 <StartI2CTask+0x6a8>)
 8000870:	f000 f934 	bl	8000adc <uart_printf>
	  	    #endif


	  	}

	  	if ((ev & EVENT_BTN_NEXT) == EVENT_BTN_NEXT)
 8000874:	68fb      	ldr	r3, [r7, #12]
 8000876:	f003 0308 	and.w	r3, r3, #8
 800087a:	2b00      	cmp	r3, #0
 800087c:	d015      	beq.n	80008aa <StartI2CTask+0x592>
	  	{
	  	    if (selected_point_index >= GENERATED_POINTS_MAX - 1)
 800087e:	4b51      	ldr	r3, [pc, #324]	@ (80009c4 <StartI2CTask+0x6ac>)
 8000880:	781b      	ldrb	r3, [r3, #0]
 8000882:	2b02      	cmp	r3, #2
 8000884:	d903      	bls.n	800088e <StartI2CTask+0x576>
	  	    {
	  	        selected_point_index = GENERATED_POINT_NONE + 1;
 8000886:	4b4f      	ldr	r3, [pc, #316]	@ (80009c4 <StartI2CTask+0x6ac>)
 8000888:	2201      	movs	r2, #1
 800088a:	701a      	strb	r2, [r3, #0]
 800088c:	e005      	b.n	800089a <StartI2CTask+0x582>
	  	    }
	  	    else
	  	    {
		  	    selected_point_index++;
 800088e:	4b4d      	ldr	r3, [pc, #308]	@ (80009c4 <StartI2CTask+0x6ac>)
 8000890:	781b      	ldrb	r3, [r3, #0]
 8000892:	3301      	adds	r3, #1
 8000894:	b2da      	uxtb	r2, r3
 8000896:	4b4b      	ldr	r3, [pc, #300]	@ (80009c4 <StartI2CTask+0x6ac>)
 8000898:	701a      	strb	r2, [r3, #0]
	  	    }
//  	        HAL_GPIO_WritePin(LED_CHANGE_POINT_STATUS_GPIO_Port, LED_CHANGE_POINT_STATUS_Pin, GPIO_PIN_SET);

	  	    update_selected_point_leds();
 800089a:	f000 f8dd 	bl	8000a58 <update_selected_point_leds>

#ifdef USE_UART_PRINTF
	  	    uart_printf("current point index: %d\r\n", selected_point_index);
 800089e:	4b49      	ldr	r3, [pc, #292]	@ (80009c4 <StartI2CTask+0x6ac>)
 80008a0:	781b      	ldrb	r3, [r3, #0]
 80008a2:	4619      	mov	r1, r3
 80008a4:	4848      	ldr	r0, [pc, #288]	@ (80009c8 <StartI2CTask+0x6b0>)
 80008a6:	f000 f919 	bl	8000adc <uart_printf>
	  	   #endif

	  	}
	  	if ((ev & EVENT_BTN_PREV) == EVENT_BTN_PREV)
 80008aa:	68fb      	ldr	r3, [r7, #12]
 80008ac:	f003 0310 	and.w	r3, r3, #16
 80008b0:	2b00      	cmp	r3, #0
 80008b2:	d01b      	beq.n	80008ec <StartI2CTask+0x5d4>
	  	{
	  	    if (selected_point_index <= GENERATED_POINT_NONE + 1)
 80008b4:	4b43      	ldr	r3, [pc, #268]	@ (80009c4 <StartI2CTask+0x6ac>)
 80008b6:	781b      	ldrb	r3, [r3, #0]
 80008b8:	2b01      	cmp	r3, #1
 80008ba:	d803      	bhi.n	80008c4 <StartI2CTask+0x5ac>
	  	    {
	  	        selected_point_index = GENERATED_POINTS_MAX - 1;
 80008bc:	4b41      	ldr	r3, [pc, #260]	@ (80009c4 <StartI2CTask+0x6ac>)
 80008be:	2203      	movs	r2, #3
 80008c0:	701a      	strb	r2, [r3, #0]
 80008c2:	e005      	b.n	80008d0 <StartI2CTask+0x5b8>
	  	    }
	  	    else
	  	    {
	  	        selected_point_index--;
 80008c4:	4b3f      	ldr	r3, [pc, #252]	@ (80009c4 <StartI2CTask+0x6ac>)
 80008c6:	781b      	ldrb	r3, [r3, #0]
 80008c8:	3b01      	subs	r3, #1
 80008ca:	b2da      	uxtb	r2, r3
 80008cc:	4b3d      	ldr	r3, [pc, #244]	@ (80009c4 <StartI2CTask+0x6ac>)
 80008ce:	701a      	strb	r2, [r3, #0]
	  	    }

	  	    HAL_GPIO_WritePin(LED_CHANGE_POINT_STATUS_GPIO_Port, LED_CHANGE_POINT_STATUS_Pin, GPIO_PIN_SET);
 80008d0:	2201      	movs	r2, #1
 80008d2:	f44f 7100 	mov.w	r1, #512	@ 0x200
 80008d6:	4835      	ldr	r0, [pc, #212]	@ (80009ac <StartI2CTask+0x694>)
 80008d8:	f001 f988 	bl	8001bec <HAL_GPIO_WritePin>
	  	    update_selected_point_leds();
 80008dc:	f000 f8bc 	bl	8000a58 <update_selected_point_leds>

#ifdef USE_UART_PRINTF
	  	    uart_printf("current point index: %d\r\n", selected_point_index);
 80008e0:	4b38      	ldr	r3, [pc, #224]	@ (80009c4 <StartI2CTask+0x6ac>)
 80008e2:	781b      	ldrb	r3, [r3, #0]
 80008e4:	4619      	mov	r1, r3
 80008e6:	4838      	ldr	r0, [pc, #224]	@ (80009c8 <StartI2CTask+0x6b0>)
 80008e8:	f000 f8f8 	bl	8000adc <uart_printf>
	  	    #endif

	  	}
	  	if ((ev & EVENT_BTN_CHANGE_STATUS) == EVENT_BTN_CHANGE_STATUS)
 80008ec:	68fb      	ldr	r3, [r7, #12]
 80008ee:	f003 0320 	and.w	r3, r3, #32
 80008f2:	2b00      	cmp	r3, #0
 80008f4:	d044      	beq.n	8000980 <StartI2CTask+0x668>
	  	{
	  	    if ((selected_point_index > GENERATED_POINT_NONE) &&
 80008f6:	4b33      	ldr	r3, [pc, #204]	@ (80009c4 <StartI2CTask+0x6ac>)
 80008f8:	781b      	ldrb	r3, [r3, #0]
 80008fa:	2b00      	cmp	r3, #0
 80008fc:	d040      	beq.n	8000980 <StartI2CTask+0x668>
	  	        (selected_point_index < GENERATED_POINTS_MAX))
 80008fe:	4b31      	ldr	r3, [pc, #196]	@ (80009c4 <StartI2CTask+0x6ac>)
 8000900:	781b      	ldrb	r3, [r3, #0]
	  	    if ((selected_point_index > GENERATED_POINT_NONE) &&
 8000902:	2b03      	cmp	r3, #3
 8000904:	d83c      	bhi.n	8000980 <StartI2CTask+0x668>
	  	    {
	  	        if (generated_points[selected_point_index].status == STATE_STANDBY)
 8000906:	4b2f      	ldr	r3, [pc, #188]	@ (80009c4 <StartI2CTask+0x6ac>)
 8000908:	781b      	ldrb	r3, [r3, #0]
 800090a:	4619      	mov	r1, r3
 800090c:	4a2f      	ldr	r2, [pc, #188]	@ (80009cc <StartI2CTask+0x6b4>)
 800090e:	460b      	mov	r3, r1
 8000910:	005b      	lsls	r3, r3, #1
 8000912:	440b      	add	r3, r1
 8000914:	4413      	add	r3, r2
 8000916:	3302      	adds	r3, #2
 8000918:	781b      	ldrb	r3, [r3, #0]
 800091a:	2b22      	cmp	r3, #34	@ 0x22
 800091c:	d10b      	bne.n	8000936 <StartI2CTask+0x61e>
	  	        {
	  	            generated_points[selected_point_index].status = STATE_FAULT;
 800091e:	4b29      	ldr	r3, [pc, #164]	@ (80009c4 <StartI2CTask+0x6ac>)
 8000920:	781b      	ldrb	r3, [r3, #0]
 8000922:	4619      	mov	r1, r3
 8000924:	4a29      	ldr	r2, [pc, #164]	@ (80009cc <StartI2CTask+0x6b4>)
 8000926:	460b      	mov	r3, r1
 8000928:	005b      	lsls	r3, r3, #1
 800092a:	440b      	add	r3, r1
 800092c:	4413      	add	r3, r2
 800092e:	3302      	adds	r3, #2
 8000930:	2205      	movs	r2, #5
 8000932:	701a      	strb	r2, [r3, #0]
 8000934:	e00a      	b.n	800094c <StartI2CTask+0x634>
	  	        }
	  	        else
	  	        {
	  	            generated_points[selected_point_index].status = STATE_STANDBY;
 8000936:	4b23      	ldr	r3, [pc, #140]	@ (80009c4 <StartI2CTask+0x6ac>)
 8000938:	781b      	ldrb	r3, [r3, #0]
 800093a:	4619      	mov	r1, r3
 800093c:	4a23      	ldr	r2, [pc, #140]	@ (80009cc <StartI2CTask+0x6b4>)
 800093e:	460b      	mov	r3, r1
 8000940:	005b      	lsls	r3, r3, #1
 8000942:	440b      	add	r3, r1
 8000944:	4413      	add	r3, r2
 8000946:	3302      	adds	r3, #2
 8000948:	2222      	movs	r2, #34	@ 0x22
 800094a:	701a      	strb	r2, [r3, #0]
	  	        }

#ifdef USE_UART_PRINTF
uart_printf("curent point index: %d, new status: 0x%02X\r\n", selected_point_index, generated_points[selected_point_index].status);
 800094c:	4b1d      	ldr	r3, [pc, #116]	@ (80009c4 <StartI2CTask+0x6ac>)
 800094e:	781b      	ldrb	r3, [r3, #0]
 8000950:	4618      	mov	r0, r3
 8000952:	4b1c      	ldr	r3, [pc, #112]	@ (80009c4 <StartI2CTask+0x6ac>)
 8000954:	781b      	ldrb	r3, [r3, #0]
 8000956:	4619      	mov	r1, r3
 8000958:	4a1c      	ldr	r2, [pc, #112]	@ (80009cc <StartI2CTask+0x6b4>)
 800095a:	460b      	mov	r3, r1
 800095c:	005b      	lsls	r3, r3, #1
 800095e:	440b      	add	r3, r1
 8000960:	4413      	add	r3, r2
 8000962:	3302      	adds	r3, #2
 8000964:	781b      	ldrb	r3, [r3, #0]
 8000966:	461a      	mov	r2, r3
 8000968:	4601      	mov	r1, r0
 800096a:	4819      	ldr	r0, [pc, #100]	@ (80009d0 <StartI2CTask+0x6b8>)
 800096c:	f000 f8b6 	bl	8000adc <uart_printf>
#endif
	  	        HAL_GPIO_WritePin(LED_CHANGE_POINT_STATUS_GPIO_Port, LED_CHANGE_POINT_STATUS_Pin, GPIO_PIN_SET);
 8000970:	2201      	movs	r2, #1
 8000972:	f44f 7100 	mov.w	r1, #512	@ 0x200
 8000976:	480d      	ldr	r0, [pc, #52]	@ (80009ac <StartI2CTask+0x694>)
 8000978:	f001 f938 	bl	8001bec <HAL_GPIO_WritePin>
	  	        update_selected_point_leds();
 800097c:	f000 f86c 	bl	8000a58 <update_selected_point_leds>
	  	    }

	  	}

	  	if ((ev & EVENT_BTN_RESET_ALL_STATUS) == EVENT_BTN_RESET_ALL_STATUS)
 8000980:	68fb      	ldr	r3, [r7, #12]
 8000982:	f003 0380 	and.w	r3, r3, #128	@ 0x80
 8000986:	2b00      	cmp	r3, #0
 8000988:	d042      	beq.n	8000a10 <StartI2CTask+0x6f8>
	  	{
	  		for (uint8_t i = 1; i < generated_points_count - 1; i++)
 800098a:	2301      	movs	r3, #1
 800098c:	75fb      	strb	r3, [r7, #23]
 800098e:	e037      	b.n	8000a00 <StartI2CTask+0x6e8>
 8000990:	2000036d 	.word	0x2000036d
 8000994:	08006972 	.word	0x08006972
 8000998:	20000010 	.word	0x20000010
 800099c:	20000014 	.word	0x20000014
 80009a0:	40011000 	.word	0x40011000
 80009a4:	2000000c 	.word	0x2000000c
 80009a8:	200002f8 	.word	0x200002f8
 80009ac:	40010800 	.word	0x40010800
 80009b0:	2000036e 	.word	0x2000036e
 80009b4:	08006974 	.word	0x08006974
 80009b8:	20000368 	.word	0x20000368
 80009bc:	2000036c 	.word	0x2000036c
 80009c0:	080068e4 	.word	0x080068e4
 80009c4:	200002f4 	.word	0x200002f4
 80009c8:	08006920 	.word	0x08006920
 80009cc:	20000000 	.word	0x20000000
 80009d0:	0800693c 	.word	0x0800693c
	  		{
	  		    if (generated_points[i].status != STATE_STANDBY)
 80009d4:	7dfa      	ldrb	r2, [r7, #23]
 80009d6:	4910      	ldr	r1, [pc, #64]	@ (8000a18 <StartI2CTask+0x700>)
 80009d8:	4613      	mov	r3, r2
 80009da:	005b      	lsls	r3, r3, #1
 80009dc:	4413      	add	r3, r2
 80009de:	440b      	add	r3, r1
 80009e0:	3302      	adds	r3, #2
 80009e2:	781b      	ldrb	r3, [r3, #0]
 80009e4:	2b22      	cmp	r3, #34	@ 0x22
 80009e6:	d008      	beq.n	80009fa <StartI2CTask+0x6e2>
	  		    {
	  		        generated_points[i].status = STATE_STANDBY;
 80009e8:	7dfa      	ldrb	r2, [r7, #23]
 80009ea:	490b      	ldr	r1, [pc, #44]	@ (8000a18 <StartI2CTask+0x700>)
 80009ec:	4613      	mov	r3, r2
 80009ee:	005b      	lsls	r3, r3, #1
 80009f0:	4413      	add	r3, r2
 80009f2:	440b      	add	r3, r1
 80009f4:	3302      	adds	r3, #2
 80009f6:	2222      	movs	r2, #34	@ 0x22
 80009f8:	701a      	strb	r2, [r3, #0]
	  		for (uint8_t i = 1; i < generated_points_count - 1; i++)
 80009fa:	7dfb      	ldrb	r3, [r7, #23]
 80009fc:	3301      	adds	r3, #1
 80009fe:	75fb      	strb	r3, [r7, #23]
 8000a00:	7dfa      	ldrb	r2, [r7, #23]
 8000a02:	4b06      	ldr	r3, [pc, #24]	@ (8000a1c <StartI2CTask+0x704>)
 8000a04:	881b      	ldrh	r3, [r3, #0]
 8000a06:	3b01      	subs	r3, #1
 8000a08:	429a      	cmp	r2, r3
 8000a0a:	dbe3      	blt.n	80009d4 <StartI2CTask+0x6bc>
	  		    }
	  		}
	  		// Mettre à jour l'affichage des LEDs pour le point sélectionné
	  		update_selected_point_leds();
 8000a0c:	f000 f824 	bl	8000a58 <update_selected_point_leds>
	  	}


    osDelay(1);
 8000a10:	2001      	movs	r0, #1
 8000a12:	f003 ff41 	bl	8004898 <osDelay>
  {
 8000a16:	e483      	b.n	8000320 <StartI2CTask+0x8>
 8000a18:	20000000 	.word	0x20000000
 8000a1c:	08006972 	.word	0x08006972

08000a20 <get_generated_point_to_send>:
#include <stdarg.h>
#include <string.h>


Message_t *get_generated_point_to_send(uint8_t index)
{
 8000a20:	b480      	push	{r7}
 8000a22:	b083      	sub	sp, #12
 8000a24:	af00      	add	r7, sp, #0
 8000a26:	4603      	mov	r3, r0
 8000a28:	71fb      	strb	r3, [r7, #7]
    if (index <= generated_points_count)
 8000a2a:	79fb      	ldrb	r3, [r7, #7]
 8000a2c:	b29a      	uxth	r2, r3
 8000a2e:	4b08      	ldr	r3, [pc, #32]	@ (8000a50 <get_generated_point_to_send+0x30>)
 8000a30:	881b      	ldrh	r3, [r3, #0]
 8000a32:	429a      	cmp	r2, r3
 8000a34:	d806      	bhi.n	8000a44 <get_generated_point_to_send+0x24>
    {
        return &generated_points[index];
 8000a36:	79fa      	ldrb	r2, [r7, #7]
 8000a38:	4613      	mov	r3, r2
 8000a3a:	005b      	lsls	r3, r3, #1
 8000a3c:	4413      	add	r3, r2
 8000a3e:	4a05      	ldr	r2, [pc, #20]	@ (8000a54 <get_generated_point_to_send+0x34>)
 8000a40:	4413      	add	r3, r2
 8000a42:	e000      	b.n	8000a46 <get_generated_point_to_send+0x26>
    }
    return &generated_points[0];
 8000a44:	4b03      	ldr	r3, [pc, #12]	@ (8000a54 <get_generated_point_to_send+0x34>)
}
 8000a46:	4618      	mov	r0, r3
 8000a48:	370c      	adds	r7, #12
 8000a4a:	46bd      	mov	sp, r7
 8000a4c:	bc80      	pop	{r7}
 8000a4e:	4770      	bx	lr
 8000a50:	08006972 	.word	0x08006972
 8000a54:	20000000 	.word	0x20000000

08000a58 <update_selected_point_leds>:

void update_selected_point_leds(void)
{
 8000a58:	b580      	push	{r7, lr}
 8000a5a:	af00      	add	r7, sp, #0
    if ((selected_point_index <= GENERATED_POINT_NONE) ||
 8000a5c:	4b1b      	ldr	r3, [pc, #108]	@ (8000acc <update_selected_point_leds+0x74>)
 8000a5e:	781b      	ldrb	r3, [r3, #0]
 8000a60:	2b00      	cmp	r3, #0
 8000a62:	d003      	beq.n	8000a6c <update_selected_point_leds+0x14>
        (selected_point_index >= GENERATED_POINTS_MAX))
 8000a64:	4b19      	ldr	r3, [pc, #100]	@ (8000acc <update_selected_point_leds+0x74>)
 8000a66:	781b      	ldrb	r3, [r3, #0]
    if ((selected_point_index <= GENERATED_POINT_NONE) ||
 8000a68:	2b03      	cmp	r3, #3
 8000a6a:	d90b      	bls.n	8000a84 <update_selected_point_leds+0x2c>
    {
        HAL_GPIO_WritePin(LED_FAULT_STATE_GPIO_Port, LED_FAULT_STATE_Pin, GPIO_PIN_RESET);
 8000a6c:	2200      	movs	r2, #0
 8000a6e:	2140      	movs	r1, #64	@ 0x40
 8000a70:	4817      	ldr	r0, [pc, #92]	@ (8000ad0 <update_selected_point_leds+0x78>)
 8000a72:	f001 f8bb 	bl	8001bec <HAL_GPIO_WritePin>
        HAL_GPIO_WritePin(LED_STANDBY_STATE_GPIO_Port, LED_STANDBY_STATE_Pin, GPIO_PIN_RESET);
 8000a76:	2200      	movs	r2, #0
 8000a78:	f44f 7180 	mov.w	r1, #256	@ 0x100
 8000a7c:	4815      	ldr	r0, [pc, #84]	@ (8000ad4 <update_selected_point_leds+0x7c>)
 8000a7e:	f001 f8b5 	bl	8001bec <HAL_GPIO_WritePin>
        return;
 8000a82:	e022      	b.n	8000aca <update_selected_point_leds+0x72>
    }

    if (generated_points[selected_point_index].status == STATE_STANDBY)
 8000a84:	4b11      	ldr	r3, [pc, #68]	@ (8000acc <update_selected_point_leds+0x74>)
 8000a86:	781b      	ldrb	r3, [r3, #0]
 8000a88:	4619      	mov	r1, r3
 8000a8a:	4a13      	ldr	r2, [pc, #76]	@ (8000ad8 <update_selected_point_leds+0x80>)
 8000a8c:	460b      	mov	r3, r1
 8000a8e:	005b      	lsls	r3, r3, #1
 8000a90:	440b      	add	r3, r1
 8000a92:	4413      	add	r3, r2
 8000a94:	3302      	adds	r3, #2
 8000a96:	781b      	ldrb	r3, [r3, #0]
 8000a98:	2b22      	cmp	r3, #34	@ 0x22
 8000a9a:	d10b      	bne.n	8000ab4 <update_selected_point_leds+0x5c>
    {
        HAL_GPIO_WritePin(LED_FAULT_STATE_GPIO_Port, LED_FAULT_STATE_Pin, GPIO_PIN_RESET);
 8000a9c:	2200      	movs	r2, #0
 8000a9e:	2140      	movs	r1, #64	@ 0x40
 8000aa0:	480b      	ldr	r0, [pc, #44]	@ (8000ad0 <update_selected_point_leds+0x78>)
 8000aa2:	f001 f8a3 	bl	8001bec <HAL_GPIO_WritePin>
        HAL_GPIO_WritePin(LED_STANDBY_STATE_GPIO_Port, LED_STANDBY_STATE_Pin, GPIO_PIN_SET);
 8000aa6:	2201      	movs	r2, #1
 8000aa8:	f44f 7180 	mov.w	r1, #256	@ 0x100
 8000aac:	4809      	ldr	r0, [pc, #36]	@ (8000ad4 <update_selected_point_leds+0x7c>)
 8000aae:	f001 f89d 	bl	8001bec <HAL_GPIO_WritePin>
 8000ab2:	e00a      	b.n	8000aca <update_selected_point_leds+0x72>
    }
    else
    {
        HAL_GPIO_WritePin(LED_FAULT_STATE_GPIO_Port, LED_FAULT_STATE_Pin, GPIO_PIN_SET);
 8000ab4:	2201      	movs	r2, #1
 8000ab6:	2140      	movs	r1, #64	@ 0x40
 8000ab8:	4805      	ldr	r0, [pc, #20]	@ (8000ad0 <update_selected_point_leds+0x78>)
 8000aba:	f001 f897 	bl	8001bec <HAL_GPIO_WritePin>
        HAL_GPIO_WritePin(LED_STANDBY_STATE_GPIO_Port, LED_STANDBY_STATE_Pin, GPIO_PIN_RESET);
 8000abe:	2200      	movs	r2, #0
 8000ac0:	f44f 7180 	mov.w	r1, #256	@ 0x100
 8000ac4:	4803      	ldr	r0, [pc, #12]	@ (8000ad4 <update_selected_point_leds+0x7c>)
 8000ac6:	f001 f891 	bl	8001bec <HAL_GPIO_WritePin>
    }
}
 8000aca:	bd80      	pop	{r7, pc}
 8000acc:	200002f4 	.word	0x200002f4
 8000ad0:	40011000 	.word	0x40011000
 8000ad4:	40010800 	.word	0x40010800
 8000ad8:	20000000 	.word	0x20000000

08000adc <uart_printf>:

/* =================== NEW DEBUG FUNCTIONS =================== */


void uart_printf(const char *fmt, ...)
{
 8000adc:	b40f      	push	{r0, r1, r2, r3}
 8000ade:	b580      	push	{r7, lr}
 8000ae0:	b0c2      	sub	sp, #264	@ 0x108
 8000ae2:	af00      	add	r7, sp, #0
  char buf[256];
  va_list ap;
  va_start(ap, fmt);
 8000ae4:	f507 728a 	add.w	r2, r7, #276	@ 0x114
 8000ae8:	f507 7384 	add.w	r3, r7, #264	@ 0x108
 8000aec:	f5a3 7384 	sub.w	r3, r3, #264	@ 0x108
 8000af0:	601a      	str	r2, [r3, #0]
  vsnprintf(buf, sizeof(buf), fmt, ap);
 8000af2:	f507 7384 	add.w	r3, r7, #264	@ 0x108
 8000af6:	f5a3 7384 	sub.w	r3, r3, #264	@ 0x108
 8000afa:	1d38      	adds	r0, r7, #4
 8000afc:	681b      	ldr	r3, [r3, #0]
 8000afe:	f8d7 2110 	ldr.w	r2, [r7, #272]	@ 0x110
 8000b02:	f44f 7180 	mov.w	r1, #256	@ 0x100
 8000b06:	f005 fa1d 	bl	8005f44 <vsniprintf>
  va_end(ap);
  size_t len = strlen(buf);
 8000b0a:	1d3b      	adds	r3, r7, #4
 8000b0c:	4618      	mov	r0, r3
 8000b0e:	f7ff fb7f 	bl	8000210 <strlen>
 8000b12:	f8c7 0104 	str.w	r0, [r7, #260]	@ 0x104
  if (len) {
 8000b16:	f8d7 3104 	ldr.w	r3, [r7, #260]	@ 0x104
 8000b1a:	2b00      	cmp	r3, #0
 8000b1c:	d008      	beq.n	8000b30 <uart_printf+0x54>
    // Transmit in blocking mode with increased timeout for FreeRTOS compatibility
    HAL_UART_Transmit(&huart2, (uint8_t*)buf, (uint16_t)len, 1000);
 8000b1e:	f8d7 3104 	ldr.w	r3, [r7, #260]	@ 0x104
 8000b22:	b29a      	uxth	r2, r3
 8000b24:	1d39      	adds	r1, r7, #4
 8000b26:	f44f 737a 	mov.w	r3, #1000	@ 0x3e8
 8000b2a:	4805      	ldr	r0, [pc, #20]	@ (8000b40 <uart_printf+0x64>)
 8000b2c:	f003 fc20 	bl	8004370 <HAL_UART_Transmit>
  }
}
 8000b30:	bf00      	nop
 8000b32:	f507 7784 	add.w	r7, r7, #264	@ 0x108
 8000b36:	46bd      	mov	sp, r7
 8000b38:	e8bd 4080 	ldmia.w	sp!, {r7, lr}
 8000b3c:	b004      	add	sp, #16
 8000b3e:	4770      	bx	lr
 8000b40:	20000374 	.word	0x20000374

08000b44 <MX_GPIO_Init>:
        * Output
        * EVENT_OUT
        * EXTI
*/
void MX_GPIO_Init(void)
{
 8000b44:	b580      	push	{r7, lr}
 8000b46:	b088      	sub	sp, #32
 8000b48:	af00      	add	r7, sp, #0

  GPIO_InitTypeDef GPIO_InitStruct = {0};
 8000b4a:	f107 0310 	add.w	r3, r7, #16
 8000b4e:	2200      	movs	r2, #0
 8000b50:	601a      	str	r2, [r3, #0]
 8000b52:	605a      	str	r2, [r3, #4]
 8000b54:	609a      	str	r2, [r3, #8]
 8000b56:	60da      	str	r2, [r3, #12]

  /* GPIO Ports Clock Enable */
  __HAL_RCC_GPIOC_CLK_ENABLE();
 8000b58:	4b46      	ldr	r3, [pc, #280]	@ (8000c74 <MX_GPIO_Init+0x130>)
 8000b5a:	699b      	ldr	r3, [r3, #24]
 8000b5c:	4a45      	ldr	r2, [pc, #276]	@ (8000c74 <MX_GPIO_Init+0x130>)
 8000b5e:	f043 0310 	orr.w	r3, r3, #16
 8000b62:	6193      	str	r3, [r2, #24]
 8000b64:	4b43      	ldr	r3, [pc, #268]	@ (8000c74 <MX_GPIO_Init+0x130>)
 8000b66:	699b      	ldr	r3, [r3, #24]
 8000b68:	f003 0310 	and.w	r3, r3, #16
 8000b6c:	60fb      	str	r3, [r7, #12]
 8000b6e:	68fb      	ldr	r3, [r7, #12]
  __HAL_RCC_GPIOA_CLK_ENABLE();
 8000b70:	4b40      	ldr	r3, [pc, #256]	@ (8000c74 <MX_GPIO_Init+0x130>)
 8000b72:	699b      	ldr	r3, [r3, #24]
 8000b74:	4a3f      	ldr	r2, [pc, #252]	@ (8000c74 <MX_GPIO_Init+0x130>)
 8000b76:	f043 0304 	orr.w	r3, r3, #4
 8000b7a:	6193      	str	r3, [r2, #24]
 8000b7c:	4b3d      	ldr	r3, [pc, #244]	@ (8000c74 <MX_GPIO_Init+0x130>)
 8000b7e:	699b      	ldr	r3, [r3, #24]
 8000b80:	f003 0304 	and.w	r3, r3, #4
 8000b84:	60bb      	str	r3, [r7, #8]
 8000b86:	68bb      	ldr	r3, [r7, #8]
  __HAL_RCC_GPIOB_CLK_ENABLE();
 8000b88:	4b3a      	ldr	r3, [pc, #232]	@ (8000c74 <MX_GPIO_Init+0x130>)
 8000b8a:	699b      	ldr	r3, [r3, #24]
 8000b8c:	4a39      	ldr	r2, [pc, #228]	@ (8000c74 <MX_GPIO_Init+0x130>)
 8000b8e:	f043 0308 	orr.w	r3, r3, #8
 8000b92:	6193      	str	r3, [r2, #24]
 8000b94:	4b37      	ldr	r3, [pc, #220]	@ (8000c74 <MX_GPIO_Init+0x130>)
 8000b96:	699b      	ldr	r3, [r3, #24]
 8000b98:	f003 0308 	and.w	r3, r3, #8
 8000b9c:	607b      	str	r3, [r7, #4]
 8000b9e:	687b      	ldr	r3, [r7, #4]

  /*Configure GPIO pin Output Level */
  HAL_GPIO_WritePin(GPIOC, LED_FAULT_STATE_Pin|LED_INIT_Pin|LED_SELECT_POINT_Pin|LED_LOOP_Pin
 8000ba0:	2200      	movs	r2, #0
 8000ba2:	f44f 51de 	mov.w	r1, #7104	@ 0x1bc0
 8000ba6:	4834      	ldr	r0, [pc, #208]	@ (8000c78 <MX_GPIO_Init+0x134>)
 8000ba8:	f001 f820 	bl	8001bec <HAL_GPIO_WritePin>
                          |LED_SPE_SELECT_Pin|LED_SPE_VALIDATE_Pin, GPIO_PIN_RESET);

  /*Configure GPIO pin Output Level */
  HAL_GPIO_WritePin(GPIOA, LED_STANDBY_STATE_Pin|LED_CHANGE_POINT_STATUS_Pin|LED_TX_COMPLETE_Pin, GPIO_PIN_RESET);
 8000bac:	2200      	movs	r2, #0
 8000bae:	f44f 61e0 	mov.w	r1, #1792	@ 0x700
 8000bb2:	4832      	ldr	r0, [pc, #200]	@ (8000c7c <MX_GPIO_Init+0x138>)
 8000bb4:	f001 f81a 	bl	8001bec <HAL_GPIO_WritePin>

  /*Configure GPIO pins : BTN_CHANGE_POINT_STATUS_Pin BTN_POINT_NEXT_Pin BTN_POINT_PREV_Pin BTN_RESET_ALL_STATUS_Pin
                           BTN_SPE_SELECT_Pin BTN_SPE_VALIDATE_Pin */
  GPIO_InitStruct.Pin = BTN_CHANGE_POINT_STATUS_Pin|BTN_POINT_NEXT_Pin|BTN_POINT_PREV_Pin|BTN_RESET_ALL_STATUS_Pin
 8000bb8:	233f      	movs	r3, #63	@ 0x3f
 8000bba:	613b      	str	r3, [r7, #16]
                          |BTN_SPE_SELECT_Pin|BTN_SPE_VALIDATE_Pin;
  GPIO_InitStruct.Mode = GPIO_MODE_IT_RISING;
 8000bbc:	4b30      	ldr	r3, [pc, #192]	@ (8000c80 <MX_GPIO_Init+0x13c>)
 8000bbe:	617b      	str	r3, [r7, #20]
  GPIO_InitStruct.Pull = GPIO_NOPULL;
 8000bc0:	2300      	movs	r3, #0
 8000bc2:	61bb      	str	r3, [r7, #24]
  HAL_GPIO_Init(GPIOC, &GPIO_InitStruct);
 8000bc4:	f107 0310 	add.w	r3, r7, #16
 8000bc8:	4619      	mov	r1, r3
 8000bca:	482b      	ldr	r0, [pc, #172]	@ (8000c78 <MX_GPIO_Init+0x134>)
 8000bcc:	f000 fdce 	bl	800176c <HAL_GPIO_Init>

  /*Configure GPIO pins : LED_FAULT_STATE_Pin LED_INIT_Pin LED_SELECT_POINT_Pin LED_LOOP_Pin
                           LED_SPE_SELECT_Pin LED_SPE_VALIDATE_Pin */
  GPIO_InitStruct.Pin = LED_FAULT_STATE_Pin|LED_INIT_Pin|LED_SELECT_POINT_Pin|LED_LOOP_Pin
 8000bd0:	f44f 53de 	mov.w	r3, #7104	@ 0x1bc0
 8000bd4:	613b      	str	r3, [r7, #16]
                          |LED_SPE_SELECT_Pin|LED_SPE_VALIDATE_Pin;
  GPIO_InitStruct.Mode = GPIO_MODE_OUTPUT_PP;
 8000bd6:	2301      	movs	r3, #1
 8000bd8:	617b      	str	r3, [r7, #20]
  GPIO_InitStruct.Pull = GPIO_NOPULL;
 8000bda:	2300      	movs	r3, #0
 8000bdc:	61bb      	str	r3, [r7, #24]
  GPIO_InitStruct.Speed = GPIO_SPEED_FREQ_LOW;
 8000bde:	2302      	movs	r3, #2
 8000be0:	61fb      	str	r3, [r7, #28]
  HAL_GPIO_Init(GPIOC, &GPIO_InitStruct);
 8000be2:	f107 0310 	add.w	r3, r7, #16
 8000be6:	4619      	mov	r1, r3
 8000be8:	4823      	ldr	r0, [pc, #140]	@ (8000c78 <MX_GPIO_Init+0x134>)
 8000bea:	f000 fdbf 	bl	800176c <HAL_GPIO_Init>

  /*Configure GPIO pins : LED_STANDBY_STATE_Pin LED_CHANGE_POINT_STATUS_Pin LED_TX_COMPLETE_Pin */
  GPIO_InitStruct.Pin = LED_STANDBY_STATE_Pin|LED_CHANGE_POINT_STATUS_Pin|LED_TX_COMPLETE_Pin;
 8000bee:	f44f 63e0 	mov.w	r3, #1792	@ 0x700
 8000bf2:	613b      	str	r3, [r7, #16]
  GPIO_InitStruct.Mode = GPIO_MODE_OUTPUT_PP;
 8000bf4:	2301      	movs	r3, #1
 8000bf6:	617b      	str	r3, [r7, #20]
  GPIO_InitStruct.Pull = GPIO_NOPULL;
 8000bf8:	2300      	movs	r3, #0
 8000bfa:	61bb      	str	r3, [r7, #24]
  GPIO_InitStruct.Speed = GPIO_SPEED_FREQ_LOW;
 8000bfc:	2302      	movs	r3, #2
 8000bfe:	61fb      	str	r3, [r7, #28]
  HAL_GPIO_Init(GPIOA, &GPIO_InitStruct);
 8000c00:	f107 0310 	add.w	r3, r7, #16
 8000c04:	4619      	mov	r1, r3
 8000c06:	481d      	ldr	r0, [pc, #116]	@ (8000c7c <MX_GPIO_Init+0x138>)
 8000c08:	f000 fdb0 	bl	800176c <HAL_GPIO_Init>

  /* EXTI interrupt init*/
  HAL_NVIC_SetPriority(EXTI0_IRQn, 5, 0);
 8000c0c:	2200      	movs	r2, #0
 8000c0e:	2105      	movs	r1, #5
 8000c10:	2006      	movs	r0, #6
 8000c12:	f000 fce0 	bl	80015d6 <HAL_NVIC_SetPriority>
  HAL_NVIC_EnableIRQ(EXTI0_IRQn);
 8000c16:	2006      	movs	r0, #6
 8000c18:	f000 fcf9 	bl	800160e <HAL_NVIC_EnableIRQ>

  HAL_NVIC_SetPriority(EXTI1_IRQn, 5, 0);
 8000c1c:	2200      	movs	r2, #0
 8000c1e:	2105      	movs	r1, #5
 8000c20:	2007      	movs	r0, #7
 8000c22:	f000 fcd8 	bl	80015d6 <HAL_NVIC_SetPriority>
  HAL_NVIC_EnableIRQ(EXTI1_IRQn);
 8000c26:	2007      	movs	r0, #7
 8000c28:	f000 fcf1 	bl	800160e <HAL_NVIC_EnableIRQ>

  HAL_NVIC_SetPriority(EXTI2_IRQn, 5, 0);
 8000c2c:	2200      	movs	r2, #0
 8000c2e:	2105      	movs	r1, #5
 8000c30:	2008      	movs	r0, #8
 8000c32:	f000 fcd0 	bl	80015d6 <HAL_NVIC_SetPriority>
  HAL_NVIC_EnableIRQ(EXTI2_IRQn);
 8000c36:	2008      	movs	r0, #8
 8000c38:	f000 fce9 	bl	800160e <HAL_NVIC_EnableIRQ>

  HAL_NVIC_SetPriority(EXTI3_IRQn, 5, 0);
 8000c3c:	2200      	movs	r2, #0
 8000c3e:	2105      	movs	r1, #5
 8000c40:	2009      	movs	r0, #9
 8000c42:	f000 fcc8 	bl	80015d6 <HAL_NVIC_SetPriority>
  HAL_NVIC_EnableIRQ(EXTI3_IRQn);
 8000c46:	2009      	movs	r0, #9
 8000c48:	f000 fce1 	bl	800160e <HAL_NVIC_EnableIRQ>

  HAL_NVIC_SetPriority(EXTI4_IRQn, 5, 0);
 8000c4c:	2200      	movs	r2, #0
 8000c4e:	2105      	movs	r1, #5
 8000c50:	200a      	movs	r0, #10
 8000c52:	f000 fcc0 	bl	80015d6 <HAL_NVIC_SetPriority>
  HAL_NVIC_EnableIRQ(EXTI4_IRQn);
 8000c56:	200a      	movs	r0, #10
 8000c58:	f000 fcd9 	bl	800160e <HAL_NVIC_EnableIRQ>

  HAL_NVIC_SetPriority(EXTI9_5_IRQn, 5, 0);
 8000c5c:	2200      	movs	r2, #0
 8000c5e:	2105      	movs	r1, #5
 8000c60:	2017      	movs	r0, #23
 8000c62:	f000 fcb8 	bl	80015d6 <HAL_NVIC_SetPriority>
  HAL_NVIC_EnableIRQ(EXTI9_5_IRQn);
 8000c66:	2017      	movs	r0, #23
 8000c68:	f000 fcd1 	bl	800160e <HAL_NVIC_EnableIRQ>

}
 8000c6c:	bf00      	nop
 8000c6e:	3720      	adds	r7, #32
 8000c70:	46bd      	mov	sp, r7
 8000c72:	bd80      	pop	{r7, pc}
 8000c74:	40021000 	.word	0x40021000
 8000c78:	40011000 	.word	0x40011000
 8000c7c:	40010800 	.word	0x40010800
 8000c80:	10110000 	.word	0x10110000

08000c84 <MX_I2C1_Init>:

I2C_HandleTypeDef hi2c1;

/* I2C1 init function */
void MX_I2C1_Init(void)
{
 8000c84:	b580      	push	{r7, lr}
 8000c86:	af00      	add	r7, sp, #0
  /* USER CODE END I2C1_Init 0 */

  /* USER CODE BEGIN I2C1_Init 1 */

  /* USER CODE END I2C1_Init 1 */
  hi2c1.Instance = I2C1;
 8000c88:	4b12      	ldr	r3, [pc, #72]	@ (8000cd4 <MX_I2C1_Init+0x50>)
 8000c8a:	4a13      	ldr	r2, [pc, #76]	@ (8000cd8 <MX_I2C1_Init+0x54>)
 8000c8c:	601a      	str	r2, [r3, #0]
  hi2c1.Init.ClockSpeed = 100000;
 8000c8e:	4b11      	ldr	r3, [pc, #68]	@ (8000cd4 <MX_I2C1_Init+0x50>)
 8000c90:	4a12      	ldr	r2, [pc, #72]	@ (8000cdc <MX_I2C1_Init+0x58>)
 8000c92:	605a      	str	r2, [r3, #4]
  hi2c1.Init.DutyCycle = I2C_DUTYCYCLE_2;
 8000c94:	4b0f      	ldr	r3, [pc, #60]	@ (8000cd4 <MX_I2C1_Init+0x50>)
 8000c96:	2200      	movs	r2, #0
 8000c98:	609a      	str	r2, [r3, #8]
  hi2c1.Init.OwnAddress1 = 16;
 8000c9a:	4b0e      	ldr	r3, [pc, #56]	@ (8000cd4 <MX_I2C1_Init+0x50>)
 8000c9c:	2210      	movs	r2, #16
 8000c9e:	60da      	str	r2, [r3, #12]
  hi2c1.Init.AddressingMode = I2C_ADDRESSINGMODE_7BIT;
 8000ca0:	4b0c      	ldr	r3, [pc, #48]	@ (8000cd4 <MX_I2C1_Init+0x50>)
 8000ca2:	f44f 4280 	mov.w	r2, #16384	@ 0x4000
 8000ca6:	611a      	str	r2, [r3, #16]
  hi2c1.Init.DualAddressMode = I2C_DUALADDRESS_DISABLE;
 8000ca8:	4b0a      	ldr	r3, [pc, #40]	@ (8000cd4 <MX_I2C1_Init+0x50>)
 8000caa:	2200      	movs	r2, #0
 8000cac:	615a      	str	r2, [r3, #20]
  hi2c1.Init.OwnAddress2 = 0;
 8000cae:	4b09      	ldr	r3, [pc, #36]	@ (8000cd4 <MX_I2C1_Init+0x50>)
 8000cb0:	2200      	movs	r2, #0
 8000cb2:	619a      	str	r2, [r3, #24]
  hi2c1.Init.GeneralCallMode = I2C_GENERALCALL_DISABLE;
 8000cb4:	4b07      	ldr	r3, [pc, #28]	@ (8000cd4 <MX_I2C1_Init+0x50>)
 8000cb6:	2200      	movs	r2, #0
 8000cb8:	61da      	str	r2, [r3, #28]
  hi2c1.Init.NoStretchMode = I2C_NOSTRETCH_DISABLE;
 8000cba:	4b06      	ldr	r3, [pc, #24]	@ (8000cd4 <MX_I2C1_Init+0x50>)
 8000cbc:	2200      	movs	r2, #0
 8000cbe:	621a      	str	r2, [r3, #32]
  if (HAL_I2C_Init(&hi2c1) != HAL_OK)
 8000cc0:	4804      	ldr	r0, [pc, #16]	@ (8000cd4 <MX_I2C1_Init+0x50>)
 8000cc2:	f000 ffdd 	bl	8001c80 <HAL_I2C_Init>
 8000cc6:	4603      	mov	r3, r0
 8000cc8:	2b00      	cmp	r3, #0
 8000cca:	d001      	beq.n	8000cd0 <MX_I2C1_Init+0x4c>
  {
    Error_Handler();
 8000ccc:	f000 f9b6 	bl	800103c <Error_Handler>
  }
  /* USER CODE BEGIN I2C1_Init 2 */

  /* USER CODE END I2C1_Init 2 */

}
 8000cd0:	bf00      	nop
 8000cd2:	bd80      	pop	{r7, pc}
 8000cd4:	200002f8 	.word	0x200002f8
 8000cd8:	40005400 	.word	0x40005400
 8000cdc:	000186a0 	.word	0x000186a0

08000ce0 <HAL_I2C_MspInit>:

void HAL_I2C_MspInit(I2C_HandleTypeDef* i2cHandle)
{
 8000ce0:	b580      	push	{r7, lr}
 8000ce2:	b088      	sub	sp, #32
 8000ce4:	af00      	add	r7, sp, #0
 8000ce6:	6078      	str	r0, [r7, #4]

  GPIO_InitTypeDef GPIO_InitStruct = {0};
 8000ce8:	f107 0310 	add.w	r3, r7, #16
 8000cec:	2200      	movs	r2, #0
 8000cee:	601a      	str	r2, [r3, #0]
 8000cf0:	605a      	str	r2, [r3, #4]
 8000cf2:	609a      	str	r2, [r3, #8]
 8000cf4:	60da      	str	r2, [r3, #12]
  if(i2cHandle->Instance==I2C1)
 8000cf6:	687b      	ldr	r3, [r7, #4]
 8000cf8:	681b      	ldr	r3, [r3, #0]
 8000cfa:	4a1d      	ldr	r2, [pc, #116]	@ (8000d70 <HAL_I2C_MspInit+0x90>)
 8000cfc:	4293      	cmp	r3, r2
 8000cfe:	d133      	bne.n	8000d68 <HAL_I2C_MspInit+0x88>
  {
  /* USER CODE BEGIN I2C1_MspInit 0 */

  /* USER CODE END I2C1_MspInit 0 */

    __HAL_RCC_GPIOB_CLK_ENABLE();
 8000d00:	4b1c      	ldr	r3, [pc, #112]	@ (8000d74 <HAL_I2C_MspInit+0x94>)
 8000d02:	699b      	ldr	r3, [r3, #24]
 8000d04:	4a1b      	ldr	r2, [pc, #108]	@ (8000d74 <HAL_I2C_MspInit+0x94>)
 8000d06:	f043 0308 	orr.w	r3, r3, #8
 8000d0a:	6193      	str	r3, [r2, #24]
 8000d0c:	4b19      	ldr	r3, [pc, #100]	@ (8000d74 <HAL_I2C_MspInit+0x94>)
 8000d0e:	699b      	ldr	r3, [r3, #24]
 8000d10:	f003 0308 	and.w	r3, r3, #8
 8000d14:	60fb      	str	r3, [r7, #12]
 8000d16:	68fb      	ldr	r3, [r7, #12]
    /**I2C1 GPIO Configuration
    PB6     ------> I2C1_SCL
    PB7     ------> I2C1_SDA
    */
    GPIO_InitStruct.Pin = GPIO_PIN_6|GPIO_PIN_7;
 8000d18:	23c0      	movs	r3, #192	@ 0xc0
 8000d1a:	613b      	str	r3, [r7, #16]
    GPIO_InitStruct.Mode = GPIO_MODE_AF_OD;
 8000d1c:	2312      	movs	r3, #18
 8000d1e:	617b      	str	r3, [r7, #20]
    GPIO_InitStruct.Speed = GPIO_SPEED_FREQ_HIGH;
 8000d20:	2303      	movs	r3, #3
 8000d22:	61fb      	str	r3, [r7, #28]
    HAL_GPIO_Init(GPIOB, &GPIO_InitStruct);
 8000d24:	f107 0310 	add.w	r3, r7, #16
 8000d28:	4619      	mov	r1, r3
 8000d2a:	4813      	ldr	r0, [pc, #76]	@ (8000d78 <HAL_I2C_MspInit+0x98>)
 8000d2c:	f000 fd1e 	bl	800176c <HAL_GPIO_Init>

    /* I2C1 clock enable */
    __HAL_RCC_I2C1_CLK_ENABLE();
 8000d30:	4b10      	ldr	r3, [pc, #64]	@ (8000d74 <HAL_I2C_MspInit+0x94>)
 8000d32:	69db      	ldr	r3, [r3, #28]
 8000d34:	4a0f      	ldr	r2, [pc, #60]	@ (8000d74 <HAL_I2C_MspInit+0x94>)
 8000d36:	f443 1300 	orr.w	r3, r3, #2097152	@ 0x200000
 8000d3a:	61d3      	str	r3, [r2, #28]
 8000d3c:	4b0d      	ldr	r3, [pc, #52]	@ (8000d74 <HAL_I2C_MspInit+0x94>)
 8000d3e:	69db      	ldr	r3, [r3, #28]
 8000d40:	f403 1300 	and.w	r3, r3, #2097152	@ 0x200000
 8000d44:	60bb      	str	r3, [r7, #8]
 8000d46:	68bb      	ldr	r3, [r7, #8]

    /* I2C1 interrupt Init */
    HAL_NVIC_SetPriority(I2C1_EV_IRQn, 5, 0);
 8000d48:	2200      	movs	r2, #0
 8000d4a:	2105      	movs	r1, #5
 8000d4c:	201f      	movs	r0, #31
 8000d4e:	f000 fc42 	bl	80015d6 <HAL_NVIC_SetPriority>
    HAL_NVIC_EnableIRQ(I2C1_EV_IRQn);
 8000d52:	201f      	movs	r0, #31
 8000d54:	f000 fc5b 	bl	800160e <HAL_NVIC_EnableIRQ>
    HAL_NVIC_SetPriority(I2C1_ER_IRQn, 5, 0);
 8000d58:	2200      	movs	r2, #0
 8000d5a:	2105      	movs	r1, #5
 8000d5c:	2020      	movs	r0, #32
 8000d5e:	f000 fc3a 	bl	80015d6 <HAL_NVIC_SetPriority>
    HAL_NVIC_EnableIRQ(I2C1_ER_IRQn);
 8000d62:	2020      	movs	r0, #32
 8000d64:	f000 fc53 	bl	800160e <HAL_NVIC_EnableIRQ>
  /* USER CODE BEGIN I2C1_MspInit 1 */

  /* USER CODE END I2C1_MspInit 1 */
  }
}
 8000d68:	bf00      	nop
 8000d6a:	3720      	adds	r7, #32
 8000d6c:	46bd      	mov	sp, r7
 8000d6e:	bd80      	pop	{r7, pc}
 8000d70:	40005400 	.word	0x40005400
 8000d74:	40021000 	.word	0x40021000
 8000d78:	40010c00 	.word	0x40010c00

08000d7c <HAL_I2C_MspDeInit>:

void HAL_I2C_MspDeInit(I2C_HandleTypeDef* i2cHandle)
{
 8000d7c:	b580      	push	{r7, lr}
 8000d7e:	b082      	sub	sp, #8
 8000d80:	af00      	add	r7, sp, #0
 8000d82:	6078      	str	r0, [r7, #4]

  if(i2cHandle->Instance==I2C1)
 8000d84:	687b      	ldr	r3, [r7, #4]
 8000d86:	681b      	ldr	r3, [r3, #0]
 8000d88:	4a0d      	ldr	r2, [pc, #52]	@ (8000dc0 <HAL_I2C_MspDeInit+0x44>)
 8000d8a:	4293      	cmp	r3, r2
 8000d8c:	d113      	bne.n	8000db6 <HAL_I2C_MspDeInit+0x3a>
  {
  /* USER CODE BEGIN I2C1_MspDeInit 0 */

  /* USER CODE END I2C1_MspDeInit 0 */
    /* Peripheral clock disable */
    __HAL_RCC_I2C1_CLK_DISABLE();
 8000d8e:	4b0d      	ldr	r3, [pc, #52]	@ (8000dc4 <HAL_I2C_MspDeInit+0x48>)
 8000d90:	69db      	ldr	r3, [r3, #28]
 8000d92:	4a0c      	ldr	r2, [pc, #48]	@ (8000dc4 <HAL_I2C_MspDeInit+0x48>)
 8000d94:	f423 1300 	bic.w	r3, r3, #2097152	@ 0x200000
 8000d98:	61d3      	str	r3, [r2, #28]

    /**I2C1 GPIO Configuration
    PB6     ------> I2C1_SCL
    PB7     ------> I2C1_SDA
    */
    HAL_GPIO_DeInit(GPIOB, GPIO_PIN_6);
 8000d9a:	2140      	movs	r1, #64	@ 0x40
 8000d9c:	480a      	ldr	r0, [pc, #40]	@ (8000dc8 <HAL_I2C_MspDeInit+0x4c>)
 8000d9e:	f000 fe69 	bl	8001a74 <HAL_GPIO_DeInit>

    HAL_GPIO_DeInit(GPIOB, GPIO_PIN_7);
 8000da2:	2180      	movs	r1, #128	@ 0x80
 8000da4:	4808      	ldr	r0, [pc, #32]	@ (8000dc8 <HAL_I2C_MspDeInit+0x4c>)
 8000da6:	f000 fe65 	bl	8001a74 <HAL_GPIO_DeInit>

    /* I2C1 interrupt Deinit */
    HAL_NVIC_DisableIRQ(I2C1_EV_IRQn);
 8000daa:	201f      	movs	r0, #31
 8000dac:	f000 fc3d 	bl	800162a <HAL_NVIC_DisableIRQ>
    HAL_NVIC_DisableIRQ(I2C1_ER_IRQn);
 8000db0:	2020      	movs	r0, #32
 8000db2:	f000 fc3a 	bl	800162a <HAL_NVIC_DisableIRQ>
  /* USER CODE BEGIN I2C1_MspDeInit 1 */

  /* USER CODE END I2C1_MspDeInit 1 */
  }
}
 8000db6:	bf00      	nop
 8000db8:	3708      	adds	r7, #8
 8000dba:	46bd      	mov	sp, r7
 8000dbc:	bd80      	pop	{r7, pc}
 8000dbe:	bf00      	nop
 8000dc0:	40005400 	.word	0x40005400
 8000dc4:	40021000 	.word	0x40021000
 8000dc8:	40010c00 	.word	0x40010c00

08000dcc <main>:
/**
  * @brief  The application entry point.
  * @retval int
  */
int main(void)
{
 8000dcc:	b580      	push	{r7, lr}
 8000dce:	af00      	add	r7, sp, #0
  /* USER CODE END 1 */

  /* MCU Configuration--------------------------------------------------------*/

  /* Reset of all peripherals, Initializes the Flash interface and the Systick. */
  HAL_Init();
 8000dd0:	f000 faad 	bl	800132e <HAL_Init>
  /* USER CODE BEGIN Init */

  /* USER CODE END Init */

  /* Configure the system clock */
  SystemClock_Config();
 8000dd4:	f000 f81e 	bl	8000e14 <SystemClock_Config>
  /* USER CODE BEGIN SysInit */

  /* USER CODE END SysInit */

  /* Initialize all configured peripherals */
  MX_GPIO_Init();
 8000dd8:	f7ff feb4 	bl	8000b44 <MX_GPIO_Init>
  MX_I2C1_Init();
 8000ddc:	f7ff ff52 	bl	8000c84 <MX_I2C1_Init>
  MX_USART2_UART_Init();
 8000de0:	f000 fa0c 	bl	80011fc <MX_USART2_UART_Init>
  /* USER CODE BEGIN 2 */

  HAL_I2C_Slave_Transmit_IT(&hi2c1, (uint8_t *)buffer_tx, 3); // buffer_tx doit être initialisé avant d'armer TX
 8000de4:	4b08      	ldr	r3, [pc, #32]	@ (8000e08 <main+0x3c>)
 8000de6:	681b      	ldr	r3, [r3, #0]
 8000de8:	2203      	movs	r2, #3
 8000dea:	4619      	mov	r1, r3
 8000dec:	4807      	ldr	r0, [pc, #28]	@ (8000e0c <main+0x40>)
 8000dee:	f001 f8cf 	bl	8001f90 <HAL_I2C_Slave_Transmit_IT>
  HAL_I2C_Slave_Receive_IT(&hi2c1, rxCmd, 2);
 8000df2:	2202      	movs	r2, #2
 8000df4:	4906      	ldr	r1, [pc, #24]	@ (8000e10 <main+0x44>)
 8000df6:	4805      	ldr	r0, [pc, #20]	@ (8000e0c <main+0x40>)
 8000df8:	f001 f938 	bl	800206c <HAL_I2C_Slave_Receive_IT>


  /* USER CODE END 2 */

  /* Call init function for freertos objects (in cmsis_os2.c) */
  MX_FREERTOS_Init();
 8000dfc:	f7ff fa28 	bl	8000250 <MX_FREERTOS_Init>

  /* Start scheduler */
  osKernelStart();
 8000e00:	f003 fcf7 	bl	80047f2 <osKernelStart>

  /* We should never get here as control is now taken by the scheduler */

  /* Infinite loop */
  /* USER CODE BEGIN WHILE */
  while (1)
 8000e04:	bf00      	nop
 8000e06:	e7fd      	b.n	8000e04 <main+0x38>
 8000e08:	20000010 	.word	0x20000010
 8000e0c:	200002f8 	.word	0x200002f8
 8000e10:	20000364 	.word	0x20000364

08000e14 <SystemClock_Config>:
/**
  * @brief System Clock Configuration
  * @retval None
  */
void SystemClock_Config(void)
{
 8000e14:	b580      	push	{r7, lr}
 8000e16:	b090      	sub	sp, #64	@ 0x40
 8000e18:	af00      	add	r7, sp, #0
  RCC_OscInitTypeDef RCC_OscInitStruct = {0};
 8000e1a:	f107 0318 	add.w	r3, r7, #24
 8000e1e:	2228      	movs	r2, #40	@ 0x28
 8000e20:	2100      	movs	r1, #0
 8000e22:	4618      	mov	r0, r3
 8000e24:	f005 f89c 	bl	8005f60 <memset>
  RCC_ClkInitTypeDef RCC_ClkInitStruct = {0};
 8000e28:	1d3b      	adds	r3, r7, #4
 8000e2a:	2200      	movs	r2, #0
 8000e2c:	601a      	str	r2, [r3, #0]
 8000e2e:	605a      	str	r2, [r3, #4]
 8000e30:	609a      	str	r2, [r3, #8]
 8000e32:	60da      	str	r2, [r3, #12]
 8000e34:	611a      	str	r2, [r3, #16]

  /** Initializes the RCC Oscillators according to the specified parameters
  * in the RCC_OscInitTypeDef structure.
  */
  RCC_OscInitStruct.OscillatorType = RCC_OSCILLATORTYPE_HSI;
 8000e36:	2302      	movs	r3, #2
 8000e38:	61bb      	str	r3, [r7, #24]
  RCC_OscInitStruct.HSIState = RCC_HSI_ON;
 8000e3a:	2301      	movs	r3, #1
 8000e3c:	62bb      	str	r3, [r7, #40]	@ 0x28
  RCC_OscInitStruct.HSICalibrationValue = RCC_HSICALIBRATION_DEFAULT;
 8000e3e:	2310      	movs	r3, #16
 8000e40:	62fb      	str	r3, [r7, #44]	@ 0x2c
  RCC_OscInitStruct.PLL.PLLState = RCC_PLL_NONE;
 8000e42:	2300      	movs	r3, #0
 8000e44:	637b      	str	r3, [r7, #52]	@ 0x34
  if (HAL_RCC_OscConfig(&RCC_OscInitStruct) != HAL_OK)
 8000e46:	f107 0318 	add.w	r3, r7, #24
 8000e4a:	4618      	mov	r0, r3
 8000e4c:	f002 fe64 	bl	8003b18 <HAL_RCC_OscConfig>
 8000e50:	4603      	mov	r3, r0
 8000e52:	2b00      	cmp	r3, #0
 8000e54:	d001      	beq.n	8000e5a <SystemClock_Config+0x46>
  {
    Error_Handler();
 8000e56:	f000 f8f1 	bl	800103c <Error_Handler>
  }

  /** Initializes the CPU, AHB and APB buses clocks
  */
  RCC_ClkInitStruct.ClockType = RCC_CLOCKTYPE_HCLK|RCC_CLOCKTYPE_SYSCLK
 8000e5a:	230f      	movs	r3, #15
 8000e5c:	607b      	str	r3, [r7, #4]
                              |RCC_CLOCKTYPE_PCLK1|RCC_CLOCKTYPE_PCLK2;
  RCC_ClkInitStruct.SYSCLKSource = RCC_SYSCLKSOURCE_HSI;
 8000e5e:	2300      	movs	r3, #0
 8000e60:	60bb      	str	r3, [r7, #8]
  RCC_ClkInitStruct.AHBCLKDivider = RCC_SYSCLK_DIV1;
 8000e62:	2300      	movs	r3, #0
 8000e64:	60fb      	str	r3, [r7, #12]
  RCC_ClkInitStruct.APB1CLKDivider = RCC_HCLK_DIV1;
 8000e66:	2300      	movs	r3, #0
 8000e68:	613b      	str	r3, [r7, #16]
  RCC_ClkInitStruct.APB2CLKDivider = RCC_HCLK_DIV1;
 8000e6a:	2300      	movs	r3, #0
 8000e6c:	617b      	str	r3, [r7, #20]

  if (HAL_RCC_ClockConfig(&RCC_ClkInitStruct, FLASH_LATENCY_0) != HAL_OK)
 8000e6e:	1d3b      	adds	r3, r7, #4
 8000e70:	2100      	movs	r1, #0
 8000e72:	4618      	mov	r0, r3
 8000e74:	f003 f8d2 	bl	800401c <HAL_RCC_ClockConfig>
 8000e78:	4603      	mov	r3, r0
 8000e7a:	2b00      	cmp	r3, #0
 8000e7c:	d001      	beq.n	8000e82 <SystemClock_Config+0x6e>
  {
    Error_Handler();
 8000e7e:	f000 f8dd 	bl	800103c <Error_Handler>
  }
}
 8000e82:	bf00      	nop
 8000e84:	3740      	adds	r7, #64	@ 0x40
 8000e86:	46bd      	mov	sp, r7
 8000e88:	bd80      	pop	{r7, pc}
	...

08000e8c <HAL_I2C_SlaveTxCpltCallback>:

/* USER CODE BEGIN 4 */
void HAL_I2C_SlaveTxCpltCallback(I2C_HandleTypeDef *hi2c)
{
 8000e8c:	b580      	push	{r7, lr}
 8000e8e:	b084      	sub	sp, #16
 8000e90:	af02      	add	r7, sp, #8
 8000e92:	6078      	str	r0, [r7, #4]
	xTaskNotifyFromISR(xI2C_TaskHandle, I2C_EVENT_TX_COMPLETE, eSetBits, NULL); // Notify the I2C task of the completed transmission
 8000e94:	4b06      	ldr	r3, [pc, #24]	@ (8000eb0 <HAL_I2C_SlaveTxCpltCallback+0x24>)
 8000e96:	6818      	ldr	r0, [r3, #0]
 8000e98:	2300      	movs	r3, #0
 8000e9a:	9300      	str	r3, [sp, #0]
 8000e9c:	2300      	movs	r3, #0
 8000e9e:	2201      	movs	r2, #1
 8000ea0:	2102      	movs	r1, #2
 8000ea2:	f004 fafb 	bl	800549c <xTaskGenericNotifyFromISR>
}
 8000ea6:	bf00      	nop
 8000ea8:	3708      	adds	r7, #8
 8000eaa:	46bd      	mov	sp, r7
 8000eac:	bd80      	pop	{r7, pc}
 8000eae:	bf00      	nop
 8000eb0:	20000094 	.word	0x20000094

08000eb4 <HAL_I2C_SlaveRxCpltCallback>:

void HAL_I2C_SlaveRxCpltCallback(I2C_HandleTypeDef *hi2c)
{
 8000eb4:	b580      	push	{r7, lr}
 8000eb6:	b084      	sub	sp, #16
 8000eb8:	af02      	add	r7, sp, #8
 8000eba:	6078      	str	r0, [r7, #4]
	//	OSSIGNALSET(I2C_TASKHANDLE, I2C_EVENT_RX_COMPLETE); // SIGNAL THE I2C TASK THAT A COMMAND HAS BEEN RECEIVED

	xTaskNotifyFromISR(xI2C_TaskHandle, I2C_EVENT_RX_COMPLETE, eSetBits, NULL); // Notify the I2C task of the received command
 8000ebc:	4b08      	ldr	r3, [pc, #32]	@ (8000ee0 <HAL_I2C_SlaveRxCpltCallback+0x2c>)
 8000ebe:	6818      	ldr	r0, [r3, #0]
 8000ec0:	2300      	movs	r3, #0
 8000ec2:	9300      	str	r3, [sp, #0]
 8000ec4:	2300      	movs	r3, #0
 8000ec6:	2201      	movs	r2, #1
 8000ec8:	2101      	movs	r1, #1
 8000eca:	f004 fae7 	bl	800549c <xTaskGenericNotifyFromISR>
	HAL_I2C_Slave_Receive_IT(hi2c, rxCmd, 2); // Re-arm RX for next command
 8000ece:	2202      	movs	r2, #2
 8000ed0:	4904      	ldr	r1, [pc, #16]	@ (8000ee4 <HAL_I2C_SlaveRxCpltCallback+0x30>)
 8000ed2:	6878      	ldr	r0, [r7, #4]
 8000ed4:	f001 f8ca 	bl	800206c <HAL_I2C_Slave_Receive_IT>

}
 8000ed8:	bf00      	nop
 8000eda:	3708      	adds	r7, #8
 8000edc:	46bd      	mov	sp, r7
 8000ede:	bd80      	pop	{r7, pc}
 8000ee0:	20000094 	.word	0x20000094
 8000ee4:	20000364 	.word	0x20000364

08000ee8 <HAL_GPIO_EXTI_Callback>:

void HAL_GPIO_EXTI_Callback(uint16_t GPIO_Pin)
{
 8000ee8:	b580      	push	{r7, lr}
 8000eea:	b086      	sub	sp, #24
 8000eec:	af02      	add	r7, sp, #8
 8000eee:	4603      	mov	r3, r0
 8000ef0:	80fb      	strh	r3, [r7, #6]
	  uint32_t current_tick = HAL_GetTick();
 8000ef2:	f000 fa6b 	bl	80013cc <HAL_GetTick>
 8000ef6:	60f8      	str	r0, [r7, #12]
  if (GPIO_Pin == BTN_CHANGE_POINT_STATUS_Pin)
 8000ef8:	88fb      	ldrh	r3, [r7, #6]
 8000efa:	2b01      	cmp	r3, #1
 8000efc:	d112      	bne.n	8000f24 <HAL_GPIO_EXTI_Callback+0x3c>
  {
	  if (current_tick - last_tick_change_status < DEBOUNCE_DELAY)
 8000efe:	4b48      	ldr	r3, [pc, #288]	@ (8001020 <HAL_GPIO_EXTI_Callback+0x138>)
 8000f00:	681b      	ldr	r3, [r3, #0]
 8000f02:	68fa      	ldr	r2, [r7, #12]
 8000f04:	1ad3      	subs	r3, r2, r3
 8000f06:	2bc7      	cmp	r3, #199	@ 0xc7
 8000f08:	d97c      	bls.n	8001004 <HAL_GPIO_EXTI_Callback+0x11c>
	  {
		  return;
	  }
	  last_tick_change_status = current_tick;
 8000f0a:	4a45      	ldr	r2, [pc, #276]	@ (8001020 <HAL_GPIO_EXTI_Callback+0x138>)
 8000f0c:	68fb      	ldr	r3, [r7, #12]
 8000f0e:	6013      	str	r3, [r2, #0]
	  xTaskNotifyFromISR(xI2C_TaskHandle, EVENT_BTN_CHANGE_STATUS, eSetBits, NULL); // Notify the I2C task of the button press event
 8000f10:	4b44      	ldr	r3, [pc, #272]	@ (8001024 <HAL_GPIO_EXTI_Callback+0x13c>)
 8000f12:	6818      	ldr	r0, [r3, #0]
 8000f14:	2300      	movs	r3, #0
 8000f16:	9300      	str	r3, [sp, #0]
 8000f18:	2300      	movs	r3, #0
 8000f1a:	2201      	movs	r2, #1
 8000f1c:	2120      	movs	r1, #32
 8000f1e:	f004 fabd 	bl	800549c <xTaskGenericNotifyFromISR>
 8000f22:	e07a      	b.n	800101a <HAL_GPIO_EXTI_Callback+0x132>
  }

  else if (GPIO_Pin == BTN_SPE_SELECT_Pin)
 8000f24:	88fb      	ldrh	r3, [r7, #6]
 8000f26:	2b10      	cmp	r3, #16
 8000f28:	d113      	bne.n	8000f52 <HAL_GPIO_EXTI_Callback+0x6a>
  {
	  if (current_tick - last_tick_spe_select < DEBOUNCE_DELAY)
 8000f2a:	4b3f      	ldr	r3, [pc, #252]	@ (8001028 <HAL_GPIO_EXTI_Callback+0x140>)
 8000f2c:	681b      	ldr	r3, [r3, #0]
 8000f2e:	68fa      	ldr	r2, [r7, #12]
 8000f30:	1ad3      	subs	r3, r2, r3
 8000f32:	2bc7      	cmp	r3, #199	@ 0xc7
 8000f34:	d968      	bls.n	8001008 <HAL_GPIO_EXTI_Callback+0x120>
	  {
		  return;
	  }
	  last_tick_spe_select = current_tick;
 8000f36:	4a3c      	ldr	r2, [pc, #240]	@ (8001028 <HAL_GPIO_EXTI_Callback+0x140>)
 8000f38:	68fb      	ldr	r3, [r7, #12]
 8000f3a:	6013      	str	r3, [r2, #0]
	  xTaskNotifyFromISR(xI2C_TaskHandle, EVENT_BTN_SPECIAL_SEL, eSetBits, NULL); // Notify the I2C task of the reset all status button press event
 8000f3c:	4b39      	ldr	r3, [pc, #228]	@ (8001024 <HAL_GPIO_EXTI_Callback+0x13c>)
 8000f3e:	6818      	ldr	r0, [r3, #0]
 8000f40:	2300      	movs	r3, #0
 8000f42:	9300      	str	r3, [sp, #0]
 8000f44:	2300      	movs	r3, #0
 8000f46:	2201      	movs	r2, #1
 8000f48:	f44f 7180 	mov.w	r1, #256	@ 0x100
 8000f4c:	f004 faa6 	bl	800549c <xTaskGenericNotifyFromISR>
 8000f50:	e063      	b.n	800101a <HAL_GPIO_EXTI_Callback+0x132>
  }

  else if (GPIO_Pin == BTN_SPE_VALIDATE_Pin)
 8000f52:	88fb      	ldrh	r3, [r7, #6]
 8000f54:	2b20      	cmp	r3, #32
 8000f56:	d113      	bne.n	8000f80 <HAL_GPIO_EXTI_Callback+0x98>
  {
	  if (current_tick - last_tick_spe_validate < DEBOUNCE_DELAY)
 8000f58:	4b34      	ldr	r3, [pc, #208]	@ (800102c <HAL_GPIO_EXTI_Callback+0x144>)
 8000f5a:	681b      	ldr	r3, [r3, #0]
 8000f5c:	68fa      	ldr	r2, [r7, #12]
 8000f5e:	1ad3      	subs	r3, r2, r3
 8000f60:	2bc7      	cmp	r3, #199	@ 0xc7
 8000f62:	d953      	bls.n	800100c <HAL_GPIO_EXTI_Callback+0x124>
	  {
		  return;
	  }
	  last_tick_spe_validate = current_tick;
 8000f64:	4a31      	ldr	r2, [pc, #196]	@ (800102c <HAL_GPIO_EXTI_Callback+0x144>)
 8000f66:	68fb      	ldr	r3, [r7, #12]
 8000f68:	6013      	str	r3, [r2, #0]
	  xTaskNotifyFromISR(xI2C_TaskHandle, EVENT_BTN_SPECIAL_VAL, eSetBits, NULL); // Notify the I2C task of the special button press event
 8000f6a:	4b2e      	ldr	r3, [pc, #184]	@ (8001024 <HAL_GPIO_EXTI_Callback+0x13c>)
 8000f6c:	6818      	ldr	r0, [r3, #0]
 8000f6e:	2300      	movs	r3, #0
 8000f70:	9300      	str	r3, [sp, #0]
 8000f72:	2300      	movs	r3, #0
 8000f74:	2201      	movs	r2, #1
 8000f76:	f44f 7100 	mov.w	r1, #512	@ 0x200
 8000f7a:	f004 fa8f 	bl	800549c <xTaskGenericNotifyFromISR>
 8000f7e:	e04c      	b.n	800101a <HAL_GPIO_EXTI_Callback+0x132>
  }

  else if (GPIO_Pin == BTN_POINT_NEXT_Pin)
 8000f80:	88fb      	ldrh	r3, [r7, #6]
 8000f82:	2b02      	cmp	r3, #2
 8000f84:	d112      	bne.n	8000fac <HAL_GPIO_EXTI_Callback+0xc4>
  {
	  if (current_tick - last_tick_next < DEBOUNCE_DELAY)
 8000f86:	4b2a      	ldr	r3, [pc, #168]	@ (8001030 <HAL_GPIO_EXTI_Callback+0x148>)
 8000f88:	681b      	ldr	r3, [r3, #0]
 8000f8a:	68fa      	ldr	r2, [r7, #12]
 8000f8c:	1ad3      	subs	r3, r2, r3
 8000f8e:	2bc7      	cmp	r3, #199	@ 0xc7
 8000f90:	d93e      	bls.n	8001010 <HAL_GPIO_EXTI_Callback+0x128>
	  {
		  return;
	  }
	  last_tick_next = current_tick;
 8000f92:	4a27      	ldr	r2, [pc, #156]	@ (8001030 <HAL_GPIO_EXTI_Callback+0x148>)
 8000f94:	68fb      	ldr	r3, [r7, #12]
 8000f96:	6013      	str	r3, [r2, #0]
	  xTaskNotifyFromISR(xI2C_TaskHandle, EVENT_BTN_NEXT, eSetBits, NULL); // Notify the I2C task of the next point button press event
 8000f98:	4b22      	ldr	r3, [pc, #136]	@ (8001024 <HAL_GPIO_EXTI_Callback+0x13c>)
 8000f9a:	6818      	ldr	r0, [r3, #0]
 8000f9c:	2300      	movs	r3, #0
 8000f9e:	9300      	str	r3, [sp, #0]
 8000fa0:	2300      	movs	r3, #0
 8000fa2:	2201      	movs	r2, #1
 8000fa4:	2108      	movs	r1, #8
 8000fa6:	f004 fa79 	bl	800549c <xTaskGenericNotifyFromISR>
 8000faa:	e036      	b.n	800101a <HAL_GPIO_EXTI_Callback+0x132>
  }

  else if (GPIO_Pin == BTN_POINT_PREV_Pin)
 8000fac:	88fb      	ldrh	r3, [r7, #6]
 8000fae:	2b04      	cmp	r3, #4
 8000fb0:	d112      	bne.n	8000fd8 <HAL_GPIO_EXTI_Callback+0xf0>
  {
	  if (current_tick - last_tick_prev < DEBOUNCE_DELAY)
 8000fb2:	4b20      	ldr	r3, [pc, #128]	@ (8001034 <HAL_GPIO_EXTI_Callback+0x14c>)
 8000fb4:	681b      	ldr	r3, [r3, #0]
 8000fb6:	68fa      	ldr	r2, [r7, #12]
 8000fb8:	1ad3      	subs	r3, r2, r3
 8000fba:	2bc7      	cmp	r3, #199	@ 0xc7
 8000fbc:	d92a      	bls.n	8001014 <HAL_GPIO_EXTI_Callback+0x12c>
	  {
		  return;
	  }
	  last_tick_prev = current_tick;
 8000fbe:	4a1d      	ldr	r2, [pc, #116]	@ (8001034 <HAL_GPIO_EXTI_Callback+0x14c>)
 8000fc0:	68fb      	ldr	r3, [r7, #12]
 8000fc2:	6013      	str	r3, [r2, #0]
	  xTaskNotifyFromISR(xI2C_TaskHandle, EVENT_BTN_PREV, eSetBits, NULL); // Notify the I2C task of the previous point button press event
 8000fc4:	4b17      	ldr	r3, [pc, #92]	@ (8001024 <HAL_GPIO_EXTI_Callback+0x13c>)
 8000fc6:	6818      	ldr	r0, [r3, #0]
 8000fc8:	2300      	movs	r3, #0
 8000fca:	9300      	str	r3, [sp, #0]
 8000fcc:	2300      	movs	r3, #0
 8000fce:	2201      	movs	r2, #1
 8000fd0:	2110      	movs	r1, #16
 8000fd2:	f004 fa63 	bl	800549c <xTaskGenericNotifyFromISR>
 8000fd6:	e020      	b.n	800101a <HAL_GPIO_EXTI_Callback+0x132>
  }

  else if (GPIO_Pin == BTN_RESET_ALL_STATUS_Pin)
 8000fd8:	88fb      	ldrh	r3, [r7, #6]
 8000fda:	2b08      	cmp	r3, #8
 8000fdc:	d11d      	bne.n	800101a <HAL_GPIO_EXTI_Callback+0x132>
  {
	  if (current_tick - last_tick_reset_all < DEBOUNCE_DELAY)
 8000fde:	4b16      	ldr	r3, [pc, #88]	@ (8001038 <HAL_GPIO_EXTI_Callback+0x150>)
 8000fe0:	681b      	ldr	r3, [r3, #0]
 8000fe2:	68fa      	ldr	r2, [r7, #12]
 8000fe4:	1ad3      	subs	r3, r2, r3
 8000fe6:	2bc7      	cmp	r3, #199	@ 0xc7
 8000fe8:	d916      	bls.n	8001018 <HAL_GPIO_EXTI_Callback+0x130>
	  {
		  return;
	  }
	  last_tick_reset_all = current_tick;
 8000fea:	4a13      	ldr	r2, [pc, #76]	@ (8001038 <HAL_GPIO_EXTI_Callback+0x150>)
 8000fec:	68fb      	ldr	r3, [r7, #12]
 8000fee:	6013      	str	r3, [r2, #0]
	  xTaskNotifyFromISR(xI2C_TaskHandle, EVENT_BTN_RESET_ALL_STATUS, eSetBits, NULL); // Notify the I2C task of the reset all status button press event
 8000ff0:	4b0c      	ldr	r3, [pc, #48]	@ (8001024 <HAL_GPIO_EXTI_Callback+0x13c>)
 8000ff2:	6818      	ldr	r0, [r3, #0]
 8000ff4:	2300      	movs	r3, #0
 8000ff6:	9300      	str	r3, [sp, #0]
 8000ff8:	2300      	movs	r3, #0
 8000ffa:	2201      	movs	r2, #1
 8000ffc:	2180      	movs	r1, #128	@ 0x80
 8000ffe:	f004 fa4d 	bl	800549c <xTaskGenericNotifyFromISR>
 8001002:	e00a      	b.n	800101a <HAL_GPIO_EXTI_Callback+0x132>
		  return;
 8001004:	bf00      	nop
 8001006:	e008      	b.n	800101a <HAL_GPIO_EXTI_Callback+0x132>
		  return;
 8001008:	bf00      	nop
 800100a:	e006      	b.n	800101a <HAL_GPIO_EXTI_Callback+0x132>
		  return;
 800100c:	bf00      	nop
 800100e:	e004      	b.n	800101a <HAL_GPIO_EXTI_Callback+0x132>
		  return;
 8001010:	bf00      	nop
 8001012:	e002      	b.n	800101a <HAL_GPIO_EXTI_Callback+0x132>
		  return;
 8001014:	bf00      	nop
 8001016:	e000      	b.n	800101a <HAL_GPIO_EXTI_Callback+0x132>
		  return;
 8001018:	bf00      	nop
  }
}
 800101a:	3710      	adds	r7, #16
 800101c:	46bd      	mov	sp, r7
 800101e:	bd80      	pop	{r7, pc}
 8001020:	2000034c 	.word	0x2000034c
 8001024:	20000094 	.word	0x20000094
 8001028:	20000350 	.word	0x20000350
 800102c:	20000354 	.word	0x20000354
 8001030:	20000358 	.word	0x20000358
 8001034:	2000035c 	.word	0x2000035c
 8001038:	20000360 	.word	0x20000360

0800103c <Error_Handler>:
/**
  * @brief  This function is executed in case of error occurrence.
  * @retval None
  */
void Error_Handler(void)
{
 800103c:	b480      	push	{r7}
 800103e:	af00      	add	r7, sp, #0
  \details Disables IRQ interrupts by setting the I-bit in the CPSR.
           Can only be executed in Privileged modes.
 */
__STATIC_FORCEINLINE void __disable_irq(void)
{
  __ASM volatile ("cpsid i" : : : "memory");
 8001040:	b672      	cpsid	i
}
 8001042:	bf00      	nop
  /* USER CODE BEGIN Error_Handler_Debug */
  /* User can add his own implementation to report the HAL error return state */
  __disable_irq();
  while (1)
 8001044:	bf00      	nop
 8001046:	e7fd      	b.n	8001044 <Error_Handler+0x8>

08001048 <HAL_MspInit>:
/* USER CODE END 0 */
/**
  * Initializes the Global MSP.
  */
void HAL_MspInit(void)
{
 8001048:	b580      	push	{r7, lr}
 800104a:	b084      	sub	sp, #16
 800104c:	af00      	add	r7, sp, #0

  /* USER CODE BEGIN MspInit 0 */

  /* USER CODE END MspInit 0 */

  __HAL_RCC_AFIO_CLK_ENABLE();
 800104e:	4b18      	ldr	r3, [pc, #96]	@ (80010b0 <HAL_MspInit+0x68>)
 8001050:	699b      	ldr	r3, [r3, #24]
 8001052:	4a17      	ldr	r2, [pc, #92]	@ (80010b0 <HAL_MspInit+0x68>)
 8001054:	f043 0301 	orr.w	r3, r3, #1
 8001058:	6193      	str	r3, [r2, #24]
 800105a:	4b15      	ldr	r3, [pc, #84]	@ (80010b0 <HAL_MspInit+0x68>)
 800105c:	699b      	ldr	r3, [r3, #24]
 800105e:	f003 0301 	and.w	r3, r3, #1
 8001062:	60bb      	str	r3, [r7, #8]
 8001064:	68bb      	ldr	r3, [r7, #8]
  __HAL_RCC_PWR_CLK_ENABLE();
 8001066:	4b12      	ldr	r3, [pc, #72]	@ (80010b0 <HAL_MspInit+0x68>)
 8001068:	69db      	ldr	r3, [r3, #28]
 800106a:	4a11      	ldr	r2, [pc, #68]	@ (80010b0 <HAL_MspInit+0x68>)
 800106c:	f043 5380 	orr.w	r3, r3, #268435456	@ 0x10000000
 8001070:	61d3      	str	r3, [r2, #28]
 8001072:	4b0f      	ldr	r3, [pc, #60]	@ (80010b0 <HAL_MspInit+0x68>)
 8001074:	69db      	ldr	r3, [r3, #28]
 8001076:	f003 5380 	and.w	r3, r3, #268435456	@ 0x10000000
 800107a:	607b      	str	r3, [r7, #4]
 800107c:	687b      	ldr	r3, [r7, #4]

  /* System interrupt init*/
  /* PendSV_IRQn interrupt configuration */
  HAL_NVIC_SetPriority(PendSV_IRQn, 15, 0);
 800107e:	2200      	movs	r2, #0
 8001080:	210f      	movs	r1, #15
 8001082:	f06f 0001 	mvn.w	r0, #1
 8001086:	f000 faa6 	bl	80015d6 <HAL_NVIC_SetPriority>

  /** NOJTAG: JTAG-DP Disabled and SW-DP Enabled
  */
  __HAL_AFIO_REMAP_SWJ_NOJTAG();
 800108a:	4b0a      	ldr	r3, [pc, #40]	@ (80010b4 <HAL_MspInit+0x6c>)
 800108c:	685b      	ldr	r3, [r3, #4]
 800108e:	60fb      	str	r3, [r7, #12]
 8001090:	68fb      	ldr	r3, [r7, #12]
 8001092:	f023 63e0 	bic.w	r3, r3, #117440512	@ 0x7000000
 8001096:	60fb      	str	r3, [r7, #12]
 8001098:	68fb      	ldr	r3, [r7, #12]
 800109a:	f043 7300 	orr.w	r3, r3, #33554432	@ 0x2000000
 800109e:	60fb      	str	r3, [r7, #12]
 80010a0:	4a04      	ldr	r2, [pc, #16]	@ (80010b4 <HAL_MspInit+0x6c>)
 80010a2:	68fb      	ldr	r3, [r7, #12]
 80010a4:	6053      	str	r3, [r2, #4]

  /* USER CODE BEGIN MspInit 1 */

  /* USER CODE END MspInit 1 */
}
 80010a6:	bf00      	nop
 80010a8:	3710      	adds	r7, #16
 80010aa:	46bd      	mov	sp, r7
 80010ac:	bd80      	pop	{r7, pc}
 80010ae:	bf00      	nop
 80010b0:	40021000 	.word	0x40021000
 80010b4:	40010000 	.word	0x40010000

080010b8 <NMI_Handler>:
/******************************************************************************/
/**
  * @brief This function handles Non maskable interrupt.
  */
void NMI_Handler(void)
{
 80010b8:	b480      	push	{r7}
 80010ba:	af00      	add	r7, sp, #0
  /* USER CODE BEGIN NonMaskableInt_IRQn 0 */

  /* USER CODE END NonMaskableInt_IRQn 0 */
  /* USER CODE BEGIN NonMaskableInt_IRQn 1 */
   while (1)
 80010bc:	bf00      	nop
 80010be:	e7fd      	b.n	80010bc <NMI_Handler+0x4>

080010c0 <HardFault_Handler>:

/**
  * @brief This function handles Hard fault interrupt.
  */
void HardFault_Handler(void)
{
 80010c0:	b480      	push	{r7}
 80010c2:	af00      	add	r7, sp, #0
  /* USER CODE BEGIN HardFault_IRQn 0 */

  /* USER CODE END HardFault_IRQn 0 */
  while (1)
 80010c4:	bf00      	nop
 80010c6:	e7fd      	b.n	80010c4 <HardFault_Handler+0x4>

080010c8 <MemManage_Handler>:

/**
  * @brief This function handles Memory management fault.
  */
void MemManage_Handler(void)
{
 80010c8:	b480      	push	{r7}
 80010ca:	af00      	add	r7, sp, #0
  /* USER CODE BEGIN MemoryManagement_IRQn 0 */

  /* USER CODE END MemoryManagement_IRQn 0 */
  while (1)
 80010cc:	bf00      	nop
 80010ce:	e7fd      	b.n	80010cc <MemManage_Handler+0x4>

080010d0 <BusFault_Handler>:

/**
  * @brief This function handles Prefetch fault, memory access fault.
  */
void BusFault_Handler(void)
{
 80010d0:	b480      	push	{r7}
 80010d2:	af00      	add	r7, sp, #0
  /* USER CODE BEGIN BusFault_IRQn 0 */

  /* USER CODE END BusFault_IRQn 0 */
  while (1)
 80010d4:	bf00      	nop
 80010d6:	e7fd      	b.n	80010d4 <BusFault_Handler+0x4>

080010d8 <UsageFault_Handler>:

/**
  * @brief This function handles Undefined instruction or illegal state.
  */
void UsageFault_Handler(void)
{
 80010d8:	b480      	push	{r7}
 80010da:	af00      	add	r7, sp, #0
  /* USER CODE BEGIN UsageFault_IRQn 0 */

  /* USER CODE END UsageFault_IRQn 0 */
  while (1)
 80010dc:	bf00      	nop
 80010de:	e7fd      	b.n	80010dc <UsageFault_Handler+0x4>

080010e0 <DebugMon_Handler>:

/**
  * @brief This function handles Debug monitor.
  */
void DebugMon_Handler(void)
{
 80010e0:	b480      	push	{r7}
 80010e2:	af00      	add	r7, sp, #0

  /* USER CODE END DebugMonitor_IRQn 0 */
  /* USER CODE BEGIN DebugMonitor_IRQn 1 */

  /* USER CODE END DebugMonitor_IRQn 1 */
}
 80010e4:	bf00      	nop
 80010e6:	46bd      	mov	sp, r7
 80010e8:	bc80      	pop	{r7}
 80010ea:	4770      	bx	lr

080010ec <SysTick_Handler>:

/**
  * @brief This function handles System tick timer.
  */
void SysTick_Handler(void)
{
 80010ec:	b580      	push	{r7, lr}
 80010ee:	af00      	add	r7, sp, #0
  /* USER CODE BEGIN SysTick_IRQn 0 */

  /* USER CODE END SysTick_IRQn 0 */
  HAL_IncTick();
 80010f0:	f000 f95a 	bl	80013a8 <HAL_IncTick>
#if (INCLUDE_xTaskGetSchedulerState == 1 )
  if (xTaskGetSchedulerState() != taskSCHEDULER_NOT_STARTED)
 80010f4:	f004 f95a 	bl	80053ac <xTaskGetSchedulerState>
 80010f8:	4603      	mov	r3, r0
 80010fa:	2b01      	cmp	r3, #1
 80010fc:	d001      	beq.n	8001102 <SysTick_Handler+0x16>
  {
#endif /* INCLUDE_xTaskGetSchedulerState */
  xPortSysTickHandler();
 80010fe:	f004 fc83 	bl	8005a08 <xPortSysTickHandler>
  }
#endif /* INCLUDE_xTaskGetSchedulerState */
  /* USER CODE BEGIN SysTick_IRQn 1 */

  /* USER CODE END SysTick_IRQn 1 */
}
 8001102:	bf00      	nop
 8001104:	bd80      	pop	{r7, pc}

08001106 <EXTI0_IRQHandler>:

/**
  * @brief This function handles EXTI line0 interrupt.
  */
void EXTI0_IRQHandler(void)
{
 8001106:	b580      	push	{r7, lr}
 8001108:	af00      	add	r7, sp, #0
  /* USER CODE BEGIN EXTI0_IRQn 0 */

  /* USER CODE END EXTI0_IRQn 0 */
  HAL_GPIO_EXTI_IRQHandler(BTN_CHANGE_POINT_STATUS_Pin);
 800110a:	2001      	movs	r0, #1
 800110c:	f000 fda0 	bl	8001c50 <HAL_GPIO_EXTI_IRQHandler>
  /* USER CODE BEGIN EXTI0_IRQn 1 */

  /* USER CODE END EXTI0_IRQn 1 */
}
 8001110:	bf00      	nop
 8001112:	bd80      	pop	{r7, pc}

08001114 <EXTI1_IRQHandler>:

/**
  * @brief This function handles EXTI line1 interrupt.
  */
void EXTI1_IRQHandler(void)
{
 8001114:	b580      	push	{r7, lr}
 8001116:	af00      	add	r7, sp, #0
  /* USER CODE BEGIN EXTI1_IRQn 0 */

  /* USER CODE END EXTI1_IRQn 0 */
  HAL_GPIO_EXTI_IRQHandler(BTN_POINT_NEXT_Pin);
 8001118:	2002      	movs	r0, #2
 800111a:	f000 fd99 	bl	8001c50 <HAL_GPIO_EXTI_IRQHandler>
  /* USER CODE BEGIN EXTI1_IRQn 1 */

  /* USER CODE END EXTI1_IRQn 1 */
}
 800111e:	bf00      	nop
 8001120:	bd80      	pop	{r7, pc}

08001122 <EXTI2_IRQHandler>:

/**
  * @brief This function handles EXTI line2 interrupt.
  */
void EXTI2_IRQHandler(void)
{
 8001122:	b580      	push	{r7, lr}
 8001124:	af00      	add	r7, sp, #0
  /* USER CODE BEGIN EXTI2_IRQn 0 */

  /* USER CODE END EXTI2_IRQn 0 */
  HAL_GPIO_EXTI_IRQHandler(BTN_POINT_PREV_Pin);
 8001126:	2004      	movs	r0, #4
 8001128:	f000 fd92 	bl	8001c50 <HAL_GPIO_EXTI_IRQHandler>
  /* USER CODE BEGIN EXTI2_IRQn 1 */

  /* USER CODE END EXTI2_IRQn 1 */
}
 800112c:	bf00      	nop
 800112e:	bd80      	pop	{r7, pc}

08001130 <EXTI3_IRQHandler>:

/**
  * @brief This function handles EXTI line3 interrupt.
  */
void EXTI3_IRQHandler(void)
{
 8001130:	b580      	push	{r7, lr}
 8001132:	af00      	add	r7, sp, #0
  /* USER CODE BEGIN EXTI3_IRQn 0 */

  /* USER CODE END EXTI3_IRQn 0 */
  HAL_GPIO_EXTI_IRQHandler(BTN_RESET_ALL_STATUS_Pin);
 8001134:	2008      	movs	r0, #8
 8001136:	f000 fd8b 	bl	8001c50 <HAL_GPIO_EXTI_IRQHandler>
  /* USER CODE BEGIN EXTI3_IRQn 1 */

  /* USER CODE END EXTI3_IRQn 1 */
}
 800113a:	bf00      	nop
 800113c:	bd80      	pop	{r7, pc}

0800113e <EXTI4_IRQHandler>:

/**
  * @brief This function handles EXTI line4 interrupt.
  */
void EXTI4_IRQHandler(void)
{
 800113e:	b580      	push	{r7, lr}
 8001140:	af00      	add	r7, sp, #0
  /* USER CODE BEGIN EXTI4_IRQn 0 */

  /* USER CODE END EXTI4_IRQn 0 */
  HAL_GPIO_EXTI_IRQHandler(BTN_SPE_SELECT_Pin);
 8001142:	2010      	movs	r0, #16
 8001144:	f000 fd84 	bl	8001c50 <HAL_GPIO_EXTI_IRQHandler>
  /* USER CODE BEGIN EXTI4_IRQn 1 */

  /* USER CODE END EXTI4_IRQn 1 */
}
 8001148:	bf00      	nop
 800114a:	bd80      	pop	{r7, pc}

0800114c <EXTI9_5_IRQHandler>:

/**
  * @brief This function handles EXTI line[9:5] interrupts.
  */
void EXTI9_5_IRQHandler(void)
{
 800114c:	b580      	push	{r7, lr}
 800114e:	af00      	add	r7, sp, #0
  /* USER CODE BEGIN EXTI9_5_IRQn 0 */

  /* USER CODE END EXTI9_5_IRQn 0 */
  HAL_GPIO_EXTI_IRQHandler(BTN_SPE_VALIDATE_Pin);
 8001150:	2020      	movs	r0, #32
 8001152:	f000 fd7d 	bl	8001c50 <HAL_GPIO_EXTI_IRQHandler>
  /* USER CODE BEGIN EXTI9_5_IRQn 1 */

  /* USER CODE END EXTI9_5_IRQn 1 */
}
 8001156:	bf00      	nop
 8001158:	bd80      	pop	{r7, pc}
	...

0800115c <I2C1_EV_IRQHandler>:

/**
  * @brief This function handles I2C1 event interrupt.
  */
void I2C1_EV_IRQHandler(void)
{
 800115c:	b580      	push	{r7, lr}
 800115e:	af00      	add	r7, sp, #0
  /* USER CODE BEGIN I2C1_EV_IRQn 0 */

  /* USER CODE END I2C1_EV_IRQn 0 */
  HAL_I2C_EV_IRQHandler(&hi2c1);
 8001160:	4802      	ldr	r0, [pc, #8]	@ (800116c <I2C1_EV_IRQHandler+0x10>)
 8001162:	f000 fff1 	bl	8002148 <HAL_I2C_EV_IRQHandler>
  /* USER CODE BEGIN I2C1_EV_IRQn 1 */

  /* USER CODE END I2C1_EV_IRQn 1 */
}
 8001166:	bf00      	nop
 8001168:	bd80      	pop	{r7, pc}
 800116a:	bf00      	nop
 800116c:	200002f8 	.word	0x200002f8

08001170 <I2C1_ER_IRQHandler>:

/**
  * @brief This function handles I2C1 error interrupt.
  */
void I2C1_ER_IRQHandler(void)
{
 8001170:	b580      	push	{r7, lr}
 8001172:	af00      	add	r7, sp, #0
  /* USER CODE BEGIN I2C1_ER_IRQn 0 */

  /* USER CODE END I2C1_ER_IRQn 0 */
  HAL_I2C_ER_IRQHandler(&hi2c1);
 8001174:	4802      	ldr	r0, [pc, #8]	@ (8001180 <I2C1_ER_IRQHandler+0x10>)
 8001176:	f001 f958 	bl	800242a <HAL_I2C_ER_IRQHandler>
  /* USER CODE BEGIN I2C1_ER_IRQn 1 */

  /* USER CODE END I2C1_ER_IRQn 1 */
}
 800117a:	bf00      	nop
 800117c:	bd80      	pop	{r7, pc}
 800117e:	bf00      	nop
 8001180:	200002f8 	.word	0x200002f8

08001184 <_sbrk>:
 *
 * @param incr Memory size
 * @return Pointer to allocated memory
 */
void *_sbrk(ptrdiff_t incr)
{
 8001184:	b580      	push	{r7, lr}
 8001186:	b086      	sub	sp, #24
 8001188:	af00      	add	r7, sp, #0
 800118a:	6078      	str	r0, [r7, #4]
  extern uint8_t _end; /* Symbol defined in the linker script */
  extern uint8_t _estack; /* Symbol defined in the linker script */
  extern uint32_t _Min_Stack_Size; /* Symbol defined in the linker script */
  const uint32_t stack_limit = (uint32_t)&_estack - (uint32_t)&_Min_Stack_Size;
 800118c:	4a14      	ldr	r2, [pc, #80]	@ (80011e0 <_sbrk+0x5c>)
 800118e:	4b15      	ldr	r3, [pc, #84]	@ (80011e4 <_sbrk+0x60>)
 8001190:	1ad3      	subs	r3, r2, r3
 8001192:	617b      	str	r3, [r7, #20]
  const uint8_t *max_heap = (uint8_t *)stack_limit;
 8001194:	697b      	ldr	r3, [r7, #20]
 8001196:	613b      	str	r3, [r7, #16]
  uint8_t *prev_heap_end;

  /* Initialize heap end at first call */
  if (NULL == __sbrk_heap_end)
 8001198:	4b13      	ldr	r3, [pc, #76]	@ (80011e8 <_sbrk+0x64>)
 800119a:	681b      	ldr	r3, [r3, #0]
 800119c:	2b00      	cmp	r3, #0
 800119e:	d102      	bne.n	80011a6 <_sbrk+0x22>
  {
    __sbrk_heap_end = &_end;
 80011a0:	4b11      	ldr	r3, [pc, #68]	@ (80011e8 <_sbrk+0x64>)
 80011a2:	4a12      	ldr	r2, [pc, #72]	@ (80011ec <_sbrk+0x68>)
 80011a4:	601a      	str	r2, [r3, #0]
  }

  /* Protect heap from growing into the reserved MSP stack */
  if (__sbrk_heap_end + incr > max_heap)
 80011a6:	4b10      	ldr	r3, [pc, #64]	@ (80011e8 <_sbrk+0x64>)
 80011a8:	681a      	ldr	r2, [r3, #0]
 80011aa:	687b      	ldr	r3, [r7, #4]
 80011ac:	4413      	add	r3, r2
 80011ae:	693a      	ldr	r2, [r7, #16]
 80011b0:	429a      	cmp	r2, r3
 80011b2:	d207      	bcs.n	80011c4 <_sbrk+0x40>
  {
    errno = ENOMEM;
 80011b4:	f004 fedc 	bl	8005f70 <__errno>
 80011b8:	4603      	mov	r3, r0
 80011ba:	220c      	movs	r2, #12
 80011bc:	601a      	str	r2, [r3, #0]
    return (void *)-1;
 80011be:	f04f 33ff 	mov.w	r3, #4294967295
 80011c2:	e009      	b.n	80011d8 <_sbrk+0x54>
  }

  prev_heap_end = __sbrk_heap_end;
 80011c4:	4b08      	ldr	r3, [pc, #32]	@ (80011e8 <_sbrk+0x64>)
 80011c6:	681b      	ldr	r3, [r3, #0]
 80011c8:	60fb      	str	r3, [r7, #12]
  __sbrk_heap_end += incr;
 80011ca:	4b07      	ldr	r3, [pc, #28]	@ (80011e8 <_sbrk+0x64>)
 80011cc:	681a      	ldr	r2, [r3, #0]
 80011ce:	687b      	ldr	r3, [r7, #4]
 80011d0:	4413      	add	r3, r2
 80011d2:	4a05      	ldr	r2, [pc, #20]	@ (80011e8 <_sbrk+0x64>)
 80011d4:	6013      	str	r3, [r2, #0]

  return (void *)prev_heap_end;
 80011d6:	68fb      	ldr	r3, [r7, #12]
}
 80011d8:	4618      	mov	r0, r3
 80011da:	3718      	adds	r7, #24
 80011dc:	46bd      	mov	sp, r7
 80011de:	bd80      	pop	{r7, pc}
 80011e0:	20002000 	.word	0x20002000
 80011e4:	00000400 	.word	0x00000400
 80011e8:	20000370 	.word	0x20000370
 80011ec:	20001260 	.word	0x20001260

080011f0 <SystemInit>:
  * @note   This function should be used only after reset.
  * @param  None
  * @retval None
  */
void SystemInit (void)
{
 80011f0:	b480      	push	{r7}
 80011f2:	af00      	add	r7, sp, #0

  /* Configure the Vector Table location -------------------------------------*/
#if defined(USER_VECT_TAB_ADDRESS)
  SCB->VTOR = VECT_TAB_BASE_ADDRESS | VECT_TAB_OFFSET; /* Vector Table Relocation in Internal SRAM. */
#endif /* USER_VECT_TAB_ADDRESS */
}
 80011f4:	bf00      	nop
 80011f6:	46bd      	mov	sp, r7
 80011f8:	bc80      	pop	{r7}
 80011fa:	4770      	bx	lr

080011fc <MX_USART2_UART_Init>:
UART_HandleTypeDef huart2;

/* USART2 init function */

void MX_USART2_UART_Init(void)
{
 80011fc:	b580      	push	{r7, lr}
 80011fe:	af00      	add	r7, sp, #0
  /* USER CODE END USART2_Init 0 */

  /* USER CODE BEGIN USART2_Init 1 */

  /* USER CODE END USART2_Init 1 */
  huart2.Instance = USART2;
 8001200:	4b11      	ldr	r3, [pc, #68]	@ (8001248 <MX_USART2_UART_Init+0x4c>)
 8001202:	4a12      	ldr	r2, [pc, #72]	@ (800124c <MX_USART2_UART_Init+0x50>)
 8001204:	601a      	str	r2, [r3, #0]
  huart2.Init.BaudRate = 115200;
 8001206:	4b10      	ldr	r3, [pc, #64]	@ (8001248 <MX_USART2_UART_Init+0x4c>)
 8001208:	f44f 32e1 	mov.w	r2, #115200	@ 0x1c200
 800120c:	605a      	str	r2, [r3, #4]
  huart2.Init.WordLength = UART_WORDLENGTH_8B;
 800120e:	4b0e      	ldr	r3, [pc, #56]	@ (8001248 <MX_USART2_UART_Init+0x4c>)
 8001210:	2200      	movs	r2, #0
 8001212:	609a      	str	r2, [r3, #8]
  huart2.Init.StopBits = UART_STOPBITS_1;
 8001214:	4b0c      	ldr	r3, [pc, #48]	@ (8001248 <MX_USART2_UART_Init+0x4c>)
 8001216:	2200      	movs	r2, #0
 8001218:	60da      	str	r2, [r3, #12]
  huart2.Init.Parity = UART_PARITY_NONE;
 800121a:	4b0b      	ldr	r3, [pc, #44]	@ (8001248 <MX_USART2_UART_Init+0x4c>)
 800121c:	2200      	movs	r2, #0
 800121e:	611a      	str	r2, [r3, #16]
  huart2.Init.Mode = UART_MODE_TX_RX;
 8001220:	4b09      	ldr	r3, [pc, #36]	@ (8001248 <MX_USART2_UART_Init+0x4c>)
 8001222:	220c      	movs	r2, #12
 8001224:	615a      	str	r2, [r3, #20]
  huart2.Init.HwFlowCtl = UART_HWCONTROL_NONE;
 8001226:	4b08      	ldr	r3, [pc, #32]	@ (8001248 <MX_USART2_UART_Init+0x4c>)
 8001228:	2200      	movs	r2, #0
 800122a:	619a      	str	r2, [r3, #24]
  huart2.Init.OverSampling = UART_OVERSAMPLING_16;
 800122c:	4b06      	ldr	r3, [pc, #24]	@ (8001248 <MX_USART2_UART_Init+0x4c>)
 800122e:	2200      	movs	r2, #0
 8001230:	61da      	str	r2, [r3, #28]
  if (HAL_UART_Init(&huart2) != HAL_OK)
 8001232:	4805      	ldr	r0, [pc, #20]	@ (8001248 <MX_USART2_UART_Init+0x4c>)
 8001234:	f003 f84c 	bl	80042d0 <HAL_UART_Init>
 8001238:	4603      	mov	r3, r0
 800123a:	2b00      	cmp	r3, #0
 800123c:	d001      	beq.n	8001242 <MX_USART2_UART_Init+0x46>
  {
    Error_Handler();
 800123e:	f7ff fefd 	bl	800103c <Error_Handler>
  }
  /* USER CODE BEGIN USART2_Init 2 */

  /* USER CODE END USART2_Init 2 */

}
 8001242:	bf00      	nop
 8001244:	bd80      	pop	{r7, pc}
 8001246:	bf00      	nop
 8001248:	20000374 	.word	0x20000374
 800124c:	40004400 	.word	0x40004400

08001250 <HAL_UART_MspInit>:

void HAL_UART_MspInit(UART_HandleTypeDef* uartHandle)
{
 8001250:	b580      	push	{r7, lr}
 8001252:	b088      	sub	sp, #32
 8001254:	af00      	add	r7, sp, #0
 8001256:	6078      	str	r0, [r7, #4]

  GPIO_InitTypeDef GPIO_InitStruct = {0};
 8001258:	f107 0310 	add.w	r3, r7, #16
 800125c:	2200      	movs	r2, #0
 800125e:	601a      	str	r2, [r3, #0]
 8001260:	605a      	str	r2, [r3, #4]
 8001262:	609a      	str	r2, [r3, #8]
 8001264:	60da      	str	r2, [r3, #12]
  if(uartHandle->Instance==USART2)
 8001266:	687b      	ldr	r3, [r7, #4]
 8001268:	681b      	ldr	r3, [r3, #0]
 800126a:	4a1b      	ldr	r2, [pc, #108]	@ (80012d8 <HAL_UART_MspInit+0x88>)
 800126c:	4293      	cmp	r3, r2
 800126e:	d12f      	bne.n	80012d0 <HAL_UART_MspInit+0x80>
  {
  /* USER CODE BEGIN USART2_MspInit 0 */

  /* USER CODE END USART2_MspInit 0 */
    /* USART2 clock enable */
    __HAL_RCC_USART2_CLK_ENABLE();
 8001270:	4b1a      	ldr	r3, [pc, #104]	@ (80012dc <HAL_UART_MspInit+0x8c>)
 8001272:	69db      	ldr	r3, [r3, #28]
 8001274:	4a19      	ldr	r2, [pc, #100]	@ (80012dc <HAL_UART_MspInit+0x8c>)
 8001276:	f443 3300 	orr.w	r3, r3, #131072	@ 0x20000
 800127a:	61d3      	str	r3, [r2, #28]
 800127c:	4b17      	ldr	r3, [pc, #92]	@ (80012dc <HAL_UART_MspInit+0x8c>)
 800127e:	69db      	ldr	r3, [r3, #28]
 8001280:	f403 3300 	and.w	r3, r3, #131072	@ 0x20000
 8001284:	60fb      	str	r3, [r7, #12]
 8001286:	68fb      	ldr	r3, [r7, #12]

    __HAL_RCC_GPIOA_CLK_ENABLE();
 8001288:	4b14      	ldr	r3, [pc, #80]	@ (80012dc <HAL_UART_MspInit+0x8c>)
 800128a:	699b      	ldr	r3, [r3, #24]
 800128c:	4a13      	ldr	r2, [pc, #76]	@ (80012dc <HAL_UART_MspInit+0x8c>)
 800128e:	f043 0304 	orr.w	r3, r3, #4
 8001292:	6193      	str	r3, [r2, #24]
 8001294:	4b11      	ldr	r3, [pc, #68]	@ (80012dc <HAL_UART_MspInit+0x8c>)
 8001296:	699b      	ldr	r3, [r3, #24]
 8001298:	f003 0304 	and.w	r3, r3, #4
 800129c:	60bb      	str	r3, [r7, #8]
 800129e:	68bb      	ldr	r3, [r7, #8]
    /**USART2 GPIO Configuration
    PA2     ------> USART2_TX
    PA3     ------> USART2_RX
    */
    GPIO_InitStruct.Pin = GPIO_PIN_2;
 80012a0:	2304      	movs	r3, #4
 80012a2:	613b      	str	r3, [r7, #16]
    GPIO_InitStruct.Mode = GPIO_MODE_AF_PP;
 80012a4:	2302      	movs	r3, #2
 80012a6:	617b      	str	r3, [r7, #20]
    GPIO_InitStruct.Speed = GPIO_SPEED_FREQ_HIGH;
 80012a8:	2303      	movs	r3, #3
 80012aa:	61fb      	str	r3, [r7, #28]
    HAL_GPIO_Init(GPIOA, &GPIO_InitStruct);
 80012ac:	f107 0310 	add.w	r3, r7, #16
 80012b0:	4619      	mov	r1, r3
 80012b2:	480b      	ldr	r0, [pc, #44]	@ (80012e0 <HAL_UART_MspInit+0x90>)
 80012b4:	f000 fa5a 	bl	800176c <HAL_GPIO_Init>

    GPIO_InitStruct.Pin = GPIO_PIN_3;
 80012b8:	2308      	movs	r3, #8
 80012ba:	613b      	str	r3, [r7, #16]
    GPIO_InitStruct.Mode = GPIO_MODE_INPUT;
 80012bc:	2300      	movs	r3, #0
 80012be:	617b      	str	r3, [r7, #20]
    GPIO_InitStruct.Pull = GPIO_NOPULL;
 80012c0:	2300      	movs	r3, #0
 80012c2:	61bb      	str	r3, [r7, #24]
    HAL_GPIO_Init(GPIOA, &GPIO_InitStruct);
 80012c4:	f107 0310 	add.w	r3, r7, #16
 80012c8:	4619      	mov	r1, r3
 80012ca:	4805      	ldr	r0, [pc, #20]	@ (80012e0 <HAL_UART_MspInit+0x90>)
 80012cc:	f000 fa4e 	bl	800176c <HAL_GPIO_Init>

  /* USER CODE BEGIN USART2_MspInit 1 */

  /* USER CODE END USART2_MspInit 1 */
  }
}
 80012d0:	bf00      	nop
 80012d2:	3720      	adds	r7, #32
 80012d4:	46bd      	mov	sp, r7
 80012d6:	bd80      	pop	{r7, pc}
 80012d8:	40004400 	.word	0x40004400
 80012dc:	40021000 	.word	0x40021000
 80012e0:	40010800 	.word	0x40010800

080012e4 <Reset_Handler>:
  .weak Reset_Handler
  .type Reset_Handler, %function
Reset_Handler:

/* Call the clock system initialization function.*/
    bl  SystemInit
 80012e4:	f7ff ff84 	bl	80011f0 <SystemInit>

/* Copy the data segment initializers from flash to SRAM */
  ldr r0, =_sdata
 80012e8:	480b      	ldr	r0, [pc, #44]	@ (8001318 <LoopFillZerobss+0xe>)
  ldr r1, =_edata
 80012ea:	490c      	ldr	r1, [pc, #48]	@ (800131c <LoopFillZerobss+0x12>)
  ldr r2, =_sidata
 80012ec:	4a0c      	ldr	r2, [pc, #48]	@ (8001320 <LoopFillZerobss+0x16>)
  movs r3, #0
 80012ee:	2300      	movs	r3, #0
  b LoopCopyDataInit
 80012f0:	e002      	b.n	80012f8 <LoopCopyDataInit>

080012f2 <CopyDataInit>:

CopyDataInit:
  ldr r4, [r2, r3]
 80012f2:	58d4      	ldr	r4, [r2, r3]
  str r4, [r0, r3]
 80012f4:	50c4      	str	r4, [r0, r3]
  adds r3, r3, #4
 80012f6:	3304      	adds	r3, #4

080012f8 <LoopCopyDataInit>:

LoopCopyDataInit:
  adds r4, r0, r3
 80012f8:	18c4      	adds	r4, r0, r3
  cmp r4, r1
 80012fa:	428c      	cmp	r4, r1
  bcc CopyDataInit
 80012fc:	d3f9      	bcc.n	80012f2 <CopyDataInit>
  
/* Zero fill the bss segment. */
  ldr r2, =_sbss
 80012fe:	4a09      	ldr	r2, [pc, #36]	@ (8001324 <LoopFillZerobss+0x1a>)
  ldr r4, =_ebss
 8001300:	4c09      	ldr	r4, [pc, #36]	@ (8001328 <LoopFillZerobss+0x1e>)
  movs r3, #0
 8001302:	2300      	movs	r3, #0
  b LoopFillZerobss
 8001304:	e001      	b.n	800130a <LoopFillZerobss>

08001306 <FillZerobss>:

FillZerobss:
  str  r3, [r2]
 8001306:	6013      	str	r3, [r2, #0]
  adds r2, r2, #4
 8001308:	3204      	adds	r2, #4

0800130a <LoopFillZerobss>:

LoopFillZerobss:
  cmp r2, r4
 800130a:	42a2      	cmp	r2, r4
  bcc FillZerobss
 800130c:	d3fb      	bcc.n	8001306 <FillZerobss>

/* Call static constructors */
    bl __libc_init_array
 800130e:	f004 fe35 	bl	8005f7c <__libc_init_array>
/* Call the application's entry point.*/
  bl main
 8001312:	f7ff fd5b 	bl	8000dcc <main>
  bx lr
 8001316:	4770      	bx	lr
  ldr r0, =_sdata
 8001318:	20000000 	.word	0x20000000
  ldr r1, =_edata
 800131c:	20000078 	.word	0x20000078
  ldr r2, =_sidata
 8001320:	08006a60 	.word	0x08006a60
  ldr r2, =_sbss
 8001324:	20000078 	.word	0x20000078
  ldr r4, =_ebss
 8001328:	2000125c 	.word	0x2000125c

0800132c <ADC1_IRQHandler>:
 * @retval : None
*/
    .section .text.Default_Handler,"ax",%progbits
Default_Handler:
Infinite_Loop:
  b Infinite_Loop
 800132c:	e7fe      	b.n	800132c <ADC1_IRQHandler>

0800132e <HAL_Init>:
  *         need to ensure that the SysTick time base is always set to 1 millisecond
  *         to have correct HAL operation.
  * @retval HAL status
  */
HAL_StatusTypeDef HAL_Init(void)
{
 800132e:	b580      	push	{r7, lr}
 8001330:	af00      	add	r7, sp, #0
  __HAL_FLASH_PREFETCH_BUFFER_ENABLE();
#endif
#endif /* PREFETCH_ENABLE */

  /* Set Interrupt Group Priority */
  HAL_NVIC_SetPriorityGrouping(NVIC_PRIORITYGROUP_4);
 8001332:	2003      	movs	r0, #3
 8001334:	f000 f944 	bl	80015c0 <HAL_NVIC_SetPriorityGrouping>

  /* Use systick as time base source and configure 1ms tick (default clock after Reset is HSI) */
  HAL_InitTick(TICK_INT_PRIORITY);
 8001338:	200f      	movs	r0, #15
 800133a:	f000 f805 	bl	8001348 <HAL_InitTick>

  /* Init the low level hardware */
  HAL_MspInit();
 800133e:	f7ff fe83 	bl	8001048 <HAL_MspInit>

  /* Return function status */
  return HAL_OK;
 8001342:	2300      	movs	r3, #0
}
 8001344:	4618      	mov	r0, r3
 8001346:	bd80      	pop	{r7, pc}

08001348 <HAL_InitTick>:
  *       implementation  in user file.
  * @param TickPriority Tick interrupt priority.
  * @retval HAL status
  */
__weak HAL_StatusTypeDef HAL_InitTick(uint32_t TickPriority)
{
 8001348:	b580      	push	{r7, lr}
 800134a:	b082      	sub	sp, #8
 800134c:	af00      	add	r7, sp, #0
 800134e:	6078      	str	r0, [r7, #4]
  /* Configure the SysTick to have interrupt in 1ms time basis*/
  if (HAL_SYSTICK_Config(SystemCoreClock / (1000U / uwTickFreq)) > 0U)
 8001350:	4b12      	ldr	r3, [pc, #72]	@ (800139c <HAL_InitTick+0x54>)
 8001352:	681a      	ldr	r2, [r3, #0]
 8001354:	4b12      	ldr	r3, [pc, #72]	@ (80013a0 <HAL_InitTick+0x58>)
 8001356:	781b      	ldrb	r3, [r3, #0]
 8001358:	4619      	mov	r1, r3
 800135a:	f44f 737a 	mov.w	r3, #1000	@ 0x3e8
 800135e:	fbb3 f3f1 	udiv	r3, r3, r1
 8001362:	fbb2 f3f3 	udiv	r3, r2, r3
 8001366:	4618      	mov	r0, r3
 8001368:	f000 f96d 	bl	8001646 <HAL_SYSTICK_Config>
 800136c:	4603      	mov	r3, r0
 800136e:	2b00      	cmp	r3, #0
 8001370:	d001      	beq.n	8001376 <HAL_InitTick+0x2e>
  {
    return HAL_ERROR;
 8001372:	2301      	movs	r3, #1
 8001374:	e00e      	b.n	8001394 <HAL_InitTick+0x4c>
  }

  /* Configure the SysTick IRQ priority */
  if (TickPriority < (1UL << __NVIC_PRIO_BITS))
 8001376:	687b      	ldr	r3, [r7, #4]
 8001378:	2b0f      	cmp	r3, #15
 800137a:	d80a      	bhi.n	8001392 <HAL_InitTick+0x4a>
  {
    HAL_NVIC_SetPriority(SysTick_IRQn, TickPriority, 0U);
 800137c:	2200      	movs	r2, #0
 800137e:	6879      	ldr	r1, [r7, #4]
 8001380:	f04f 30ff 	mov.w	r0, #4294967295
 8001384:	f000 f927 	bl	80015d6 <HAL_NVIC_SetPriority>
    uwTickPrio = TickPriority;
 8001388:	4a06      	ldr	r2, [pc, #24]	@ (80013a4 <HAL_InitTick+0x5c>)
 800138a:	687b      	ldr	r3, [r7, #4]
 800138c:	6013      	str	r3, [r2, #0]
  {
    return HAL_ERROR;
  }

  /* Return function status */
  return HAL_OK;
 800138e:	2300      	movs	r3, #0
 8001390:	e000      	b.n	8001394 <HAL_InitTick+0x4c>
    return HAL_ERROR;
 8001392:	2301      	movs	r3, #1
}
 8001394:	4618      	mov	r0, r3
 8001396:	3708      	adds	r7, #8
 8001398:	46bd      	mov	sp, r7
 800139a:	bd80      	pop	{r7, pc}
 800139c:	20000018 	.word	0x20000018
 80013a0:	20000020 	.word	0x20000020
 80013a4:	2000001c 	.word	0x2000001c

080013a8 <HAL_IncTick>:
  * @note This function is declared as __weak to be overwritten in case of other
  *      implementations in user file.
  * @retval None
  */
__weak void HAL_IncTick(void)
{
 80013a8:	b480      	push	{r7}
 80013aa:	af00      	add	r7, sp, #0
  uwTick += uwTickFreq;
 80013ac:	4b05      	ldr	r3, [pc, #20]	@ (80013c4 <HAL_IncTick+0x1c>)
 80013ae:	781b      	ldrb	r3, [r3, #0]
 80013b0:	461a      	mov	r2, r3
 80013b2:	4b05      	ldr	r3, [pc, #20]	@ (80013c8 <HAL_IncTick+0x20>)
 80013b4:	681b      	ldr	r3, [r3, #0]
 80013b6:	4413      	add	r3, r2
 80013b8:	4a03      	ldr	r2, [pc, #12]	@ (80013c8 <HAL_IncTick+0x20>)
 80013ba:	6013      	str	r3, [r2, #0]
}
 80013bc:	bf00      	nop
 80013be:	46bd      	mov	sp, r7
 80013c0:	bc80      	pop	{r7}
 80013c2:	4770      	bx	lr
 80013c4:	20000020 	.word	0x20000020
 80013c8:	200003bc 	.word	0x200003bc

080013cc <HAL_GetTick>:
  * @note  This function is declared as __weak to be overwritten in case of other
  *       implementations in user file.
  * @retval tick value
  */
__weak uint32_t HAL_GetTick(void)
{
 80013cc:	b480      	push	{r7}
 80013ce:	af00      	add	r7, sp, #0
  return uwTick;
 80013d0:	4b02      	ldr	r3, [pc, #8]	@ (80013dc <HAL_GetTick+0x10>)
 80013d2:	681b      	ldr	r3, [r3, #0]
}
 80013d4:	4618      	mov	r0, r3
 80013d6:	46bd      	mov	sp, r7
 80013d8:	bc80      	pop	{r7}
 80013da:	4770      	bx	lr
 80013dc:	200003bc 	.word	0x200003bc

080013e0 <__NVIC_SetPriorityGrouping>:
           In case of a conflict between priority grouping and available
           priority bits (__NVIC_PRIO_BITS), the smallest possible priority group is set.
  \param [in]      PriorityGroup  Priority grouping field.
 */
__STATIC_INLINE void __NVIC_SetPriorityGrouping(uint32_t PriorityGroup)
{
 80013e0:	b480      	push	{r7}
 80013e2:	b085      	sub	sp, #20
 80013e4:	af00      	add	r7, sp, #0
 80013e6:	6078      	str	r0, [r7, #4]
  uint32_t reg_value;
  uint32_t PriorityGroupTmp = (PriorityGroup & (uint32_t)0x07UL);             /* only values 0..7 are used          */
 80013e8:	687b      	ldr	r3, [r7, #4]
 80013ea:	f003 0307 	and.w	r3, r3, #7
 80013ee:	60fb      	str	r3, [r7, #12]

  reg_value  =  SCB->AIRCR;                                                   /* read old register configuration    */
 80013f0:	4b0c      	ldr	r3, [pc, #48]	@ (8001424 <__NVIC_SetPriorityGrouping+0x44>)
 80013f2:	68db      	ldr	r3, [r3, #12]
 80013f4:	60bb      	str	r3, [r7, #8]
  reg_value &= ~((uint32_t)(SCB_AIRCR_VECTKEY_Msk | SCB_AIRCR_PRIGROUP_Msk)); /* clear bits to change               */
 80013f6:	68ba      	ldr	r2, [r7, #8]
 80013f8:	f64f 03ff 	movw	r3, #63743	@ 0xf8ff
 80013fc:	4013      	ands	r3, r2
 80013fe:	60bb      	str	r3, [r7, #8]
  reg_value  =  (reg_value                                   |
                ((uint32_t)0x5FAUL << SCB_AIRCR_VECTKEY_Pos) |
                (PriorityGroupTmp << SCB_AIRCR_PRIGROUP_Pos) );               /* Insert write key and priority group */
 8001400:	68fb      	ldr	r3, [r7, #12]
 8001402:	021a      	lsls	r2, r3, #8
                ((uint32_t)0x5FAUL << SCB_AIRCR_VECTKEY_Pos) |
 8001404:	68bb      	ldr	r3, [r7, #8]
 8001406:	4313      	orrs	r3, r2
  reg_value  =  (reg_value                                   |
 8001408:	f043 63bf 	orr.w	r3, r3, #100139008	@ 0x5f80000
 800140c:	f443 3300 	orr.w	r3, r3, #131072	@ 0x20000
 8001410:	60bb      	str	r3, [r7, #8]
  SCB->AIRCR =  reg_value;
 8001412:	4a04      	ldr	r2, [pc, #16]	@ (8001424 <__NVIC_SetPriorityGrouping+0x44>)
 8001414:	68bb      	ldr	r3, [r7, #8]
 8001416:	60d3      	str	r3, [r2, #12]
}
 8001418:	bf00      	nop
 800141a:	3714      	adds	r7, #20
 800141c:	46bd      	mov	sp, r7
 800141e:	bc80      	pop	{r7}
 8001420:	4770      	bx	lr
 8001422:	bf00      	nop
 8001424:	e000ed00 	.word	0xe000ed00

08001428 <__NVIC_GetPriorityGrouping>:
  \brief   Get Priority Grouping
  \details Reads the priority grouping field from the NVIC Interrupt Controller.
  \return                Priority grouping field (SCB->AIRCR [10:8] PRIGROUP field).
 */
__STATIC_INLINE uint32_t __NVIC_GetPriorityGrouping(void)
{
 8001428:	b480      	push	{r7}
 800142a:	af00      	add	r7, sp, #0
  return ((uint32_t)((SCB->AIRCR & SCB_AIRCR_PRIGROUP_Msk) >> SCB_AIRCR_PRIGROUP_Pos));
 800142c:	4b04      	ldr	r3, [pc, #16]	@ (8001440 <__NVIC_GetPriorityGrouping+0x18>)
 800142e:	68db      	ldr	r3, [r3, #12]
 8001430:	0a1b      	lsrs	r3, r3, #8
 8001432:	f003 0307 	and.w	r3, r3, #7
}
 8001436:	4618      	mov	r0, r3
 8001438:	46bd      	mov	sp, r7
 800143a:	bc80      	pop	{r7}
 800143c:	4770      	bx	lr
 800143e:	bf00      	nop
 8001440:	e000ed00 	.word	0xe000ed00

08001444 <__NVIC_EnableIRQ>:
  \details Enables a device specific interrupt in the NVIC interrupt controller.
  \param [in]      IRQn  Device specific interrupt number.
  \note    IRQn must not be negative.
 */
__STATIC_INLINE void __NVIC_EnableIRQ(IRQn_Type IRQn)
{
 8001444:	b480      	push	{r7}
 8001446:	b083      	sub	sp, #12
 8001448:	af00      	add	r7, sp, #0
 800144a:	4603      	mov	r3, r0
 800144c:	71fb      	strb	r3, [r7, #7]
  if ((int32_t)(IRQn) >= 0)
 800144e:	f997 3007 	ldrsb.w	r3, [r7, #7]
 8001452:	2b00      	cmp	r3, #0
 8001454:	db0b      	blt.n	800146e <__NVIC_EnableIRQ+0x2a>
  {
    NVIC->ISER[(((uint32_t)IRQn) >> 5UL)] = (uint32_t)(1UL << (((uint32_t)IRQn) & 0x1FUL));
 8001456:	79fb      	ldrb	r3, [r7, #7]
 8001458:	f003 021f 	and.w	r2, r3, #31
 800145c:	4906      	ldr	r1, [pc, #24]	@ (8001478 <__NVIC_EnableIRQ+0x34>)
 800145e:	f997 3007 	ldrsb.w	r3, [r7, #7]
 8001462:	095b      	lsrs	r3, r3, #5
 8001464:	2001      	movs	r0, #1
 8001466:	fa00 f202 	lsl.w	r2, r0, r2
 800146a:	f841 2023 	str.w	r2, [r1, r3, lsl #2]
  }
}
 800146e:	bf00      	nop
 8001470:	370c      	adds	r7, #12
 8001472:	46bd      	mov	sp, r7
 8001474:	bc80      	pop	{r7}
 8001476:	4770      	bx	lr
 8001478:	e000e100 	.word	0xe000e100

0800147c <__NVIC_DisableIRQ>:
  \details Disables a device specific interrupt in the NVIC interrupt controller.
  \param [in]      IRQn  Device specific interrupt number.
  \note    IRQn must not be negative.
 */
__STATIC_INLINE void __NVIC_DisableIRQ(IRQn_Type IRQn)
{
 800147c:	b480      	push	{r7}
 800147e:	b083      	sub	sp, #12
 8001480:	af00      	add	r7, sp, #0
 8001482:	4603      	mov	r3, r0
 8001484:	71fb      	strb	r3, [r7, #7]
  if ((int32_t)(IRQn) >= 0)
 8001486:	f997 3007 	ldrsb.w	r3, [r7, #7]
 800148a:	2b00      	cmp	r3, #0
 800148c:	db12      	blt.n	80014b4 <__NVIC_DisableIRQ+0x38>
  {
    NVIC->ICER[(((uint32_t)IRQn) >> 5UL)] = (uint32_t)(1UL << (((uint32_t)IRQn) & 0x1FUL));
 800148e:	79fb      	ldrb	r3, [r7, #7]
 8001490:	f003 021f 	and.w	r2, r3, #31
 8001494:	490a      	ldr	r1, [pc, #40]	@ (80014c0 <__NVIC_DisableIRQ+0x44>)
 8001496:	f997 3007 	ldrsb.w	r3, [r7, #7]
 800149a:	095b      	lsrs	r3, r3, #5
 800149c:	2001      	movs	r0, #1
 800149e:	fa00 f202 	lsl.w	r2, r0, r2
 80014a2:	3320      	adds	r3, #32
 80014a4:	f841 2023 	str.w	r2, [r1, r3, lsl #2]
  \details Acts as a special kind of Data Memory Barrier.
           It completes when all explicit memory accesses before this instruction complete.
 */
__STATIC_FORCEINLINE void __DSB(void)
{
  __ASM volatile ("dsb 0xF":::"memory");
 80014a8:	f3bf 8f4f 	dsb	sy
}
 80014ac:	bf00      	nop
  __ASM volatile ("isb 0xF":::"memory");
 80014ae:	f3bf 8f6f 	isb	sy
}
 80014b2:	bf00      	nop
    __DSB();
    __ISB();
  }
}
 80014b4:	bf00      	nop
 80014b6:	370c      	adds	r7, #12
 80014b8:	46bd      	mov	sp, r7
 80014ba:	bc80      	pop	{r7}
 80014bc:	4770      	bx	lr
 80014be:	bf00      	nop
 80014c0:	e000e100 	.word	0xe000e100

080014c4 <__NVIC_SetPriority>:
  \param [in]      IRQn  Interrupt number.
  \param [in]  priority  Priority to set.
  \note    The priority cannot be set for every processor exception.
 */
__STATIC_INLINE void __NVIC_SetPriority(IRQn_Type IRQn, uint32_t priority)
{
 80014c4:	b480      	push	{r7}
 80014c6:	b083      	sub	sp, #12
 80014c8:	af00      	add	r7, sp, #0
 80014ca:	4603      	mov	r3, r0
 80014cc:	6039      	str	r1, [r7, #0]
 80014ce:	71fb      	strb	r3, [r7, #7]
  if ((int32_t)(IRQn) >= 0)
 80014d0:	f997 3007 	ldrsb.w	r3, [r7, #7]
 80014d4:	2b00      	cmp	r3, #0
 80014d6:	db0a      	blt.n	80014ee <__NVIC_SetPriority+0x2a>
  {
    NVIC->IP[((uint32_t)IRQn)]               = (uint8_t)((priority << (8U - __NVIC_PRIO_BITS)) & (uint32_t)0xFFUL);
 80014d8:	683b      	ldr	r3, [r7, #0]
 80014da:	b2da      	uxtb	r2, r3
 80014dc:	490c      	ldr	r1, [pc, #48]	@ (8001510 <__NVIC_SetPriority+0x4c>)
 80014de:	f997 3007 	ldrsb.w	r3, [r7, #7]
 80014e2:	0112      	lsls	r2, r2, #4
 80014e4:	b2d2      	uxtb	r2, r2
 80014e6:	440b      	add	r3, r1
 80014e8:	f883 2300 	strb.w	r2, [r3, #768]	@ 0x300
  }
  else
  {
    SCB->SHP[(((uint32_t)IRQn) & 0xFUL)-4UL] = (uint8_t)((priority << (8U - __NVIC_PRIO_BITS)) & (uint32_t)0xFFUL);
  }
}
 80014ec:	e00a      	b.n	8001504 <__NVIC_SetPriority+0x40>
    SCB->SHP[(((uint32_t)IRQn) & 0xFUL)-4UL] = (uint8_t)((priority << (8U - __NVIC_PRIO_BITS)) & (uint32_t)0xFFUL);
 80014ee:	683b      	ldr	r3, [r7, #0]
 80014f0:	b2da      	uxtb	r2, r3
 80014f2:	4908      	ldr	r1, [pc, #32]	@ (8001514 <__NVIC_SetPriority+0x50>)
 80014f4:	79fb      	ldrb	r3, [r7, #7]
 80014f6:	f003 030f 	and.w	r3, r3, #15
 80014fa:	3b04      	subs	r3, #4
 80014fc:	0112      	lsls	r2, r2, #4
 80014fe:	b2d2      	uxtb	r2, r2
 8001500:	440b      	add	r3, r1
 8001502:	761a      	strb	r2, [r3, #24]
}
 8001504:	bf00      	nop
 8001506:	370c      	adds	r7, #12
 8001508:	46bd      	mov	sp, r7
 800150a:	bc80      	pop	{r7}
 800150c:	4770      	bx	lr
 800150e:	bf00      	nop
 8001510:	e000e100 	.word	0xe000e100
 8001514:	e000ed00 	.word	0xe000ed00

08001518 <NVIC_EncodePriority>:
  \param [in]   PreemptPriority  Preemptive priority value (starting from 0).
  \param [in]       SubPriority  Subpriority value (starting from 0).
  \return                        Encoded priority. Value can be used in the function \ref NVIC_SetPriority().
 */
__STATIC_INLINE uint32_t NVIC_EncodePriority (uint32_t PriorityGroup, uint32_t PreemptPriority, uint32_t SubPriority)
{
 8001518:	b480      	push	{r7}
 800151a:	b089      	sub	sp, #36	@ 0x24
 800151c:	af00      	add	r7, sp, #0
 800151e:	60f8      	str	r0, [r7, #12]
 8001520:	60b9      	str	r1, [r7, #8]
 8001522:	607a      	str	r2, [r7, #4]
  uint32_t PriorityGroupTmp = (PriorityGroup & (uint32_t)0x07UL);   /* only values 0..7 are used          */
 8001524:	68fb      	ldr	r3, [r7, #12]
 8001526:	f003 0307 	and.w	r3, r3, #7
 800152a:	61fb      	str	r3, [r7, #28]
  uint32_t PreemptPriorityBits;
  uint32_t SubPriorityBits;

  PreemptPriorityBits = ((7UL - PriorityGroupTmp) > (uint32_t)(__NVIC_PRIO_BITS)) ? (uint32_t)(__NVIC_PRIO_BITS) : (uint32_t)(7UL - PriorityGroupTmp);
 800152c:	69fb      	ldr	r3, [r7, #28]
 800152e:	f1c3 0307 	rsb	r3, r3, #7
 8001532:	2b04      	cmp	r3, #4
 8001534:	bf28      	it	cs
 8001536:	2304      	movcs	r3, #4
 8001538:	61bb      	str	r3, [r7, #24]
  SubPriorityBits     = ((PriorityGroupTmp + (uint32_t)(__NVIC_PRIO_BITS)) < (uint32_t)7UL) ? (uint32_t)0UL : (uint32_t)((PriorityGroupTmp - 7UL) + (uint32_t)(__NVIC_PRIO_BITS));
 800153a:	69fb      	ldr	r3, [r7, #28]
 800153c:	3304      	adds	r3, #4
 800153e:	2b06      	cmp	r3, #6
 8001540:	d902      	bls.n	8001548 <NVIC_EncodePriority+0x30>
 8001542:	69fb      	ldr	r3, [r7, #28]
 8001544:	3b03      	subs	r3, #3
 8001546:	e000      	b.n	800154a <NVIC_EncodePriority+0x32>
 8001548:	2300      	movs	r3, #0
 800154a:	617b      	str	r3, [r7, #20]

  return (
           ((PreemptPriority & (uint32_t)((1UL << (PreemptPriorityBits)) - 1UL)) << SubPriorityBits) |
 800154c:	f04f 32ff 	mov.w	r2, #4294967295
 8001550:	69bb      	ldr	r3, [r7, #24]
 8001552:	fa02 f303 	lsl.w	r3, r2, r3
 8001556:	43da      	mvns	r2, r3
 8001558:	68bb      	ldr	r3, [r7, #8]
 800155a:	401a      	ands	r2, r3
 800155c:	697b      	ldr	r3, [r7, #20]
 800155e:	409a      	lsls	r2, r3
           ((SubPriority     & (uint32_t)((1UL << (SubPriorityBits    )) - 1UL)))
 8001560:	f04f 31ff 	mov.w	r1, #4294967295
 8001564:	697b      	ldr	r3, [r7, #20]
 8001566:	fa01 f303 	lsl.w	r3, r1, r3
 800156a:	43d9      	mvns	r1, r3
 800156c:	687b      	ldr	r3, [r7, #4]
 800156e:	400b      	ands	r3, r1
           ((PreemptPriority & (uint32_t)((1UL << (PreemptPriorityBits)) - 1UL)) << SubPriorityBits) |
 8001570:	4313      	orrs	r3, r2
         );
}
 8001572:	4618      	mov	r0, r3
 8001574:	3724      	adds	r7, #36	@ 0x24
 8001576:	46bd      	mov	sp, r7
 8001578:	bc80      	pop	{r7}
 800157a:	4770      	bx	lr

0800157c <SysTick_Config>:
  \note    When the variable <b>__Vendor_SysTickConfig</b> is set to 1, then the
           function <b>SysTick_Config</b> is not included. In this case, the file <b><i>device</i>.h</b>
           must contain a vendor-specific implementation of this function.
 */
__STATIC_INLINE uint32_t SysTick_Config(uint32_t ticks)
{
 800157c:	b580      	push	{r7, lr}
 800157e:	b082      	sub	sp, #8
 8001580:	af00      	add	r7, sp, #0
 8001582:	6078      	str	r0, [r7, #4]
  if ((ticks - 1UL) > SysTick_LOAD_RELOAD_Msk)
 8001584:	687b      	ldr	r3, [r7, #4]
 8001586:	3b01      	subs	r3, #1
 8001588:	f1b3 7f80 	cmp.w	r3, #16777216	@ 0x1000000
 800158c:	d301      	bcc.n	8001592 <SysTick_Config+0x16>
  {
    return (1UL);                                                   /* Reload value impossible */
 800158e:	2301      	movs	r3, #1
 8001590:	e00f      	b.n	80015b2 <SysTick_Config+0x36>
  }

  SysTick->LOAD  = (uint32_t)(ticks - 1UL);                         /* set reload register */
 8001592:	4a0a      	ldr	r2, [pc, #40]	@ (80015bc <SysTick_Config+0x40>)
 8001594:	687b      	ldr	r3, [r7, #4]
 8001596:	3b01      	subs	r3, #1
 8001598:	6053      	str	r3, [r2, #4]
  NVIC_SetPriority (SysTick_IRQn, (1UL << __NVIC_PRIO_BITS) - 1UL); /* set Priority for Systick Interrupt */
 800159a:	210f      	movs	r1, #15
 800159c:	f04f 30ff 	mov.w	r0, #4294967295
 80015a0:	f7ff ff90 	bl	80014c4 <__NVIC_SetPriority>
  SysTick->VAL   = 0UL;                                             /* Load the SysTick Counter Value */
 80015a4:	4b05      	ldr	r3, [pc, #20]	@ (80015bc <SysTick_Config+0x40>)
 80015a6:	2200      	movs	r2, #0
 80015a8:	609a      	str	r2, [r3, #8]
  SysTick->CTRL  = SysTick_CTRL_CLKSOURCE_Msk |
 80015aa:	4b04      	ldr	r3, [pc, #16]	@ (80015bc <SysTick_Config+0x40>)
 80015ac:	2207      	movs	r2, #7
 80015ae:	601a      	str	r2, [r3, #0]
                   SysTick_CTRL_TICKINT_Msk   |
                   SysTick_CTRL_ENABLE_Msk;                         /* Enable SysTick IRQ and SysTick Timer */
  return (0UL);                                                     /* Function successful */
 80015b0:	2300      	movs	r3, #0
}
 80015b2:	4618      	mov	r0, r3
 80015b4:	3708      	adds	r7, #8
 80015b6:	46bd      	mov	sp, r7
 80015b8:	bd80      	pop	{r7, pc}
 80015ba:	bf00      	nop
 80015bc:	e000e010 	.word	0xe000e010

080015c0 <HAL_NVIC_SetPriorityGrouping>:
  * @note   When the NVIC_PriorityGroup_0 is selected, IRQ preemption is no more possible. 
  *         The pending IRQ priority will be managed only by the subpriority. 
  * @retval None
  */
void HAL_NVIC_SetPriorityGrouping(uint32_t PriorityGroup)
{
 80015c0:	b580      	push	{r7, lr}
 80015c2:	b082      	sub	sp, #8
 80015c4:	af00      	add	r7, sp, #0
 80015c6:	6078      	str	r0, [r7, #4]
  /* Check the parameters */
  assert_param(IS_NVIC_PRIORITY_GROUP(PriorityGroup));
  
  /* Set the PRIGROUP[10:8] bits according to the PriorityGroup parameter value */
  NVIC_SetPriorityGrouping(PriorityGroup);
 80015c8:	6878      	ldr	r0, [r7, #4]
 80015ca:	f7ff ff09 	bl	80013e0 <__NVIC_SetPriorityGrouping>
}
 80015ce:	bf00      	nop
 80015d0:	3708      	adds	r7, #8
 80015d2:	46bd      	mov	sp, r7
 80015d4:	bd80      	pop	{r7, pc}

080015d6 <HAL_NVIC_SetPriority>:
  *         This parameter can be a value between 0 and 15
  *         A lower priority value indicates a higher priority.          
  * @retval None
  */
void HAL_NVIC_SetPriority(IRQn_Type IRQn, uint32_t PreemptPriority, uint32_t SubPriority)
{ 
 80015d6:	b580      	push	{r7, lr}
 80015d8:	b086      	sub	sp, #24
 80015da:	af00      	add	r7, sp, #0
 80015dc:	4603      	mov	r3, r0
 80015de:	60b9      	str	r1, [r7, #8]
 80015e0:	607a      	str	r2, [r7, #4]
 80015e2:	73fb      	strb	r3, [r7, #15]
  uint32_t prioritygroup = 0x00U;
 80015e4:	2300      	movs	r3, #0
 80015e6:	617b      	str	r3, [r7, #20]
  
  /* Check the parameters */
  assert_param(IS_NVIC_SUB_PRIORITY(SubPriority));
  assert_param(IS_NVIC_PREEMPTION_PRIORITY(PreemptPriority));
  
  prioritygroup = NVIC_GetPriorityGrouping();
 80015e8:	f7ff ff1e 	bl	8001428 <__NVIC_GetPriorityGrouping>
 80015ec:	6178      	str	r0, [r7, #20]
  
  NVIC_SetPriority(IRQn, NVIC_EncodePriority(prioritygroup, PreemptPriority, SubPriority));
 80015ee:	687a      	ldr	r2, [r7, #4]
 80015f0:	68b9      	ldr	r1, [r7, #8]
 80015f2:	6978      	ldr	r0, [r7, #20]
 80015f4:	f7ff ff90 	bl	8001518 <NVIC_EncodePriority>
 80015f8:	4602      	mov	r2, r0
 80015fa:	f997 300f 	ldrsb.w	r3, [r7, #15]
 80015fe:	4611      	mov	r1, r2
 8001600:	4618      	mov	r0, r3
 8001602:	f7ff ff5f 	bl	80014c4 <__NVIC_SetPriority>
}
 8001606:	bf00      	nop
 8001608:	3718      	adds	r7, #24
 800160a:	46bd      	mov	sp, r7
 800160c:	bd80      	pop	{r7, pc}

0800160e <HAL_NVIC_EnableIRQ>:
  *         This parameter can be an enumerator of IRQn_Type enumeration
  *         (For the complete STM32 Devices IRQ Channels list, please refer to the appropriate CMSIS device file (stm32f10xxx.h))
  * @retval None
  */
void HAL_NVIC_EnableIRQ(IRQn_Type IRQn)
{
 800160e:	b580      	push	{r7, lr}
 8001610:	b082      	sub	sp, #8
 8001612:	af00      	add	r7, sp, #0
 8001614:	4603      	mov	r3, r0
 8001616:	71fb      	strb	r3, [r7, #7]
  /* Check the parameters */
  assert_param(IS_NVIC_DEVICE_IRQ(IRQn));

  /* Enable interrupt */
  NVIC_EnableIRQ(IRQn);
 8001618:	f997 3007 	ldrsb.w	r3, [r7, #7]
 800161c:	4618      	mov	r0, r3
 800161e:	f7ff ff11 	bl	8001444 <__NVIC_EnableIRQ>
}
 8001622:	bf00      	nop
 8001624:	3708      	adds	r7, #8
 8001626:	46bd      	mov	sp, r7
 8001628:	bd80      	pop	{r7, pc}

0800162a <HAL_NVIC_DisableIRQ>:
  *         This parameter can be an enumerator of IRQn_Type enumeration
  *         (For the complete STM32 Devices IRQ Channels list, please refer to the appropriate CMSIS device file (stm32f10xxx.h))  
  * @retval None
  */
void HAL_NVIC_DisableIRQ(IRQn_Type IRQn)
{
 800162a:	b580      	push	{r7, lr}
 800162c:	b082      	sub	sp, #8
 800162e:	af00      	add	r7, sp, #0
 8001630:	4603      	mov	r3, r0
 8001632:	71fb      	strb	r3, [r7, #7]
  /* Check the parameters */
  assert_param(IS_NVIC_DEVICE_IRQ(IRQn));

  /* Disable interrupt */
  NVIC_DisableIRQ(IRQn);
 8001634:	f997 3007 	ldrsb.w	r3, [r7, #7]
 8001638:	4618      	mov	r0, r3
 800163a:	f7ff ff1f 	bl	800147c <__NVIC_DisableIRQ>
}
 800163e:	bf00      	nop
 8001640:	3708      	adds	r7, #8
 8001642:	46bd      	mov	sp, r7
 8001644:	bd80      	pop	{r7, pc}

08001646 <HAL_SYSTICK_Config>:
  * @param  TicksNumb: Specifies the ticks Number of ticks between two interrupts.
  * @retval status:  - 0  Function succeeded.
  *                  - 1  Function failed.
  */
uint32_t HAL_SYSTICK_Config(uint32_t TicksNumb)
{
 8001646:	b580      	push	{r7, lr}
 8001648:	b082      	sub	sp, #8
 800164a:	af00      	add	r7, sp, #0
 800164c:	6078      	str	r0, [r7, #4]
   return SysTick_Config(TicksNumb);
 800164e:	6878      	ldr	r0, [r7, #4]
 8001650:	f7ff ff94 	bl	800157c <SysTick_Config>
 8001654:	4603      	mov	r3, r0
}
 8001656:	4618      	mov	r0, r3
 8001658:	3708      	adds	r7, #8
 800165a:	46bd      	mov	sp, r7
 800165c:	bd80      	pop	{r7, pc}
	...

08001660 <HAL_DMA_Abort_IT>:
  * @param  hdma  : pointer to a DMA_HandleTypeDef structure that contains
  *                 the configuration information for the specified DMA Channel.
  * @retval HAL status
  */
HAL_StatusTypeDef HAL_DMA_Abort_IT(DMA_HandleTypeDef *hdma)
{  
 8001660:	b580      	push	{r7, lr}
 8001662:	b084      	sub	sp, #16
 8001664:	af00      	add	r7, sp, #0
 8001666:	6078      	str	r0, [r7, #4]
  HAL_StatusTypeDef status = HAL_OK;
 8001668:	2300      	movs	r3, #0
 800166a:	73fb      	strb	r3, [r7, #15]
  
  if(HAL_DMA_STATE_BUSY != hdma->State)
 800166c:	687b      	ldr	r3, [r7, #4]
 800166e:	f893 3021 	ldrb.w	r3, [r3, #33]	@ 0x21
 8001672:	b2db      	uxtb	r3, r3
 8001674:	2b02      	cmp	r3, #2
 8001676:	d005      	beq.n	8001684 <HAL_DMA_Abort_IT+0x24>
  {
    /* no transfer ongoing */
    hdma->ErrorCode = HAL_DMA_ERROR_NO_XFER;
 8001678:	687b      	ldr	r3, [r7, #4]
 800167a:	2204      	movs	r2, #4
 800167c:	639a      	str	r2, [r3, #56]	@ 0x38
        
    status = HAL_ERROR;
 800167e:	2301      	movs	r3, #1
 8001680:	73fb      	strb	r3, [r7, #15]
 8001682:	e051      	b.n	8001728 <HAL_DMA_Abort_IT+0xc8>
  }
  else
  { 
    /* Disable DMA IT */
    __HAL_DMA_DISABLE_IT(hdma, (DMA_IT_TC | DMA_IT_HT | DMA_IT_TE));
 8001684:	687b      	ldr	r3, [r7, #4]
 8001686:	681b      	ldr	r3, [r3, #0]
 8001688:	681a      	ldr	r2, [r3, #0]
 800168a:	687b      	ldr	r3, [r7, #4]
 800168c:	681b      	ldr	r3, [r3, #0]
 800168e:	f022 020e 	bic.w	r2, r2, #14
 8001692:	601a      	str	r2, [r3, #0]

    /* Disable the channel */
    __HAL_DMA_DISABLE(hdma);
 8001694:	687b      	ldr	r3, [r7, #4]
 8001696:	681b      	ldr	r3, [r3, #0]
 8001698:	681a      	ldr	r2, [r3, #0]
 800169a:	687b      	ldr	r3, [r7, #4]
 800169c:	681b      	ldr	r3, [r3, #0]
 800169e:	f022 0201 	bic.w	r2, r2, #1
 80016a2:	601a      	str	r2, [r3, #0]

    /* Clear all flags */
    __HAL_DMA_CLEAR_FLAG(hdma, __HAL_DMA_GET_GI_FLAG_INDEX(hdma));
 80016a4:	687b      	ldr	r3, [r7, #4]
 80016a6:	681b      	ldr	r3, [r3, #0]
 80016a8:	4a22      	ldr	r2, [pc, #136]	@ (8001734 <HAL_DMA_Abort_IT+0xd4>)
 80016aa:	4293      	cmp	r3, r2
 80016ac:	d029      	beq.n	8001702 <HAL_DMA_Abort_IT+0xa2>
 80016ae:	687b      	ldr	r3, [r7, #4]
 80016b0:	681b      	ldr	r3, [r3, #0]
 80016b2:	4a21      	ldr	r2, [pc, #132]	@ (8001738 <HAL_DMA_Abort_IT+0xd8>)
 80016b4:	4293      	cmp	r3, r2
 80016b6:	d022      	beq.n	80016fe <HAL_DMA_Abort_IT+0x9e>
 80016b8:	687b      	ldr	r3, [r7, #4]
 80016ba:	681b      	ldr	r3, [r3, #0]
 80016bc:	4a1f      	ldr	r2, [pc, #124]	@ (800173c <HAL_DMA_Abort_IT+0xdc>)
 80016be:	4293      	cmp	r3, r2
 80016c0:	d01a      	beq.n	80016f8 <HAL_DMA_Abort_IT+0x98>
 80016c2:	687b      	ldr	r3, [r7, #4]
 80016c4:	681b      	ldr	r3, [r3, #0]
 80016c6:	4a1e      	ldr	r2, [pc, #120]	@ (8001740 <HAL_DMA_Abort_IT+0xe0>)
 80016c8:	4293      	cmp	r3, r2
 80016ca:	d012      	beq.n	80016f2 <HAL_DMA_Abort_IT+0x92>
 80016cc:	687b      	ldr	r3, [r7, #4]
 80016ce:	681b      	ldr	r3, [r3, #0]
 80016d0:	4a1c      	ldr	r2, [pc, #112]	@ (8001744 <HAL_DMA_Abort_IT+0xe4>)
 80016d2:	4293      	cmp	r3, r2
 80016d4:	d00a      	beq.n	80016ec <HAL_DMA_Abort_IT+0x8c>
 80016d6:	687b      	ldr	r3, [r7, #4]
 80016d8:	681b      	ldr	r3, [r3, #0]
 80016da:	4a1b      	ldr	r2, [pc, #108]	@ (8001748 <HAL_DMA_Abort_IT+0xe8>)
 80016dc:	4293      	cmp	r3, r2
 80016de:	d102      	bne.n	80016e6 <HAL_DMA_Abort_IT+0x86>
 80016e0:	f44f 1380 	mov.w	r3, #1048576	@ 0x100000
 80016e4:	e00e      	b.n	8001704 <HAL_DMA_Abort_IT+0xa4>
 80016e6:	f04f 7380 	mov.w	r3, #16777216	@ 0x1000000
 80016ea:	e00b      	b.n	8001704 <HAL_DMA_Abort_IT+0xa4>
 80016ec:	f44f 3380 	mov.w	r3, #65536	@ 0x10000
 80016f0:	e008      	b.n	8001704 <HAL_DMA_Abort_IT+0xa4>
 80016f2:	f44f 5380 	mov.w	r3, #4096	@ 0x1000
 80016f6:	e005      	b.n	8001704 <HAL_DMA_Abort_IT+0xa4>
 80016f8:	f44f 7380 	mov.w	r3, #256	@ 0x100
 80016fc:	e002      	b.n	8001704 <HAL_DMA_Abort_IT+0xa4>
 80016fe:	2310      	movs	r3, #16
 8001700:	e000      	b.n	8001704 <HAL_DMA_Abort_IT+0xa4>
 8001702:	2301      	movs	r3, #1
 8001704:	4a11      	ldr	r2, [pc, #68]	@ (800174c <HAL_DMA_Abort_IT+0xec>)
 8001706:	6053      	str	r3, [r2, #4]

    /* Change the DMA state */
    hdma->State = HAL_DMA_STATE_READY;
 8001708:	687b      	ldr	r3, [r7, #4]
 800170a:	2201      	movs	r2, #1
 800170c:	f883 2021 	strb.w	r2, [r3, #33]	@ 0x21

    /* Process Unlocked */
    __HAL_UNLOCK(hdma);
 8001710:	687b      	ldr	r3, [r7, #4]
 8001712:	2200      	movs	r2, #0
 8001714:	f883 2020 	strb.w	r2, [r3, #32]

    /* Call User Abort callback */
    if(hdma->XferAbortCallback != NULL)
 8001718:	687b      	ldr	r3, [r7, #4]
 800171a:	6b5b      	ldr	r3, [r3, #52]	@ 0x34
 800171c:	2b00      	cmp	r3, #0
 800171e:	d003      	beq.n	8001728 <HAL_DMA_Abort_IT+0xc8>
    {
      hdma->XferAbortCallback(hdma);
 8001720:	687b      	ldr	r3, [r7, #4]
 8001722:	6b5b      	ldr	r3, [r3, #52]	@ 0x34
 8001724:	6878      	ldr	r0, [r7, #4]
 8001726:	4798      	blx	r3
    } 
  }
  return status;
 8001728:	7bfb      	ldrb	r3, [r7, #15]
}
 800172a:	4618      	mov	r0, r3
 800172c:	3710      	adds	r7, #16
 800172e:	46bd      	mov	sp, r7
 8001730:	bd80      	pop	{r7, pc}
 8001732:	bf00      	nop
 8001734:	40020008 	.word	0x40020008
 8001738:	4002001c 	.word	0x4002001c
 800173c:	40020030 	.word	0x40020030
 8001740:	40020044 	.word	0x40020044
 8001744:	40020058 	.word	0x40020058
 8001748:	4002006c 	.word	0x4002006c
 800174c:	40020000 	.word	0x40020000

08001750 <HAL_DMA_GetState>:
  * @param  hdma: pointer to a DMA_HandleTypeDef structure that contains
  *               the configuration information for the specified DMA Channel.
  * @retval HAL state
  */
HAL_DMA_StateTypeDef HAL_DMA_GetState(DMA_HandleTypeDef *hdma)
{
 8001750:	b480      	push	{r7}
 8001752:	b083      	sub	sp, #12
 8001754:	af00      	add	r7, sp, #0
 8001756:	6078      	str	r0, [r7, #4]
  /* Return DMA handle state */
  return hdma->State;
 8001758:	687b      	ldr	r3, [r7, #4]
 800175a:	f893 3021 	ldrb.w	r3, [r3, #33]	@ 0x21
 800175e:	b2db      	uxtb	r3, r3
}
 8001760:	4618      	mov	r0, r3
 8001762:	370c      	adds	r7, #12
 8001764:	46bd      	mov	sp, r7
 8001766:	bc80      	pop	{r7}
 8001768:	4770      	bx	lr
	...

0800176c <HAL_GPIO_Init>:
  * @param  GPIO_Init: pointer to a GPIO_InitTypeDef structure that contains
  *         the configuration information for the specified GPIO peripheral.
  * @retval None
  */
void HAL_GPIO_Init(GPIO_TypeDef  *GPIOx, GPIO_InitTypeDef *GPIO_Init)
{
 800176c:	b480      	push	{r7}
 800176e:	b08b      	sub	sp, #44	@ 0x2c
 8001770:	af00      	add	r7, sp, #0
 8001772:	6078      	str	r0, [r7, #4]
 8001774:	6039      	str	r1, [r7, #0]
  uint32_t position = 0x00u;
 8001776:	2300      	movs	r3, #0
 8001778:	627b      	str	r3, [r7, #36]	@ 0x24
  uint32_t ioposition;
  uint32_t iocurrent;
  uint32_t temp;
  uint32_t config = 0x00u;
 800177a:	2300      	movs	r3, #0
 800177c:	623b      	str	r3, [r7, #32]
  assert_param(IS_GPIO_ALL_INSTANCE(GPIOx));
  assert_param(IS_GPIO_PIN(GPIO_Init->Pin));
  assert_param(IS_GPIO_MODE(GPIO_Init->Mode));

  /* Configure the port pins */
  while (((GPIO_Init->Pin) >> position) != 0x00u)
 800177e:	e169      	b.n	8001a54 <HAL_GPIO_Init+0x2e8>
  {
    /* Get the IO position */
    ioposition = (0x01uL << position);
 8001780:	2201      	movs	r2, #1
 8001782:	6a7b      	ldr	r3, [r7, #36]	@ 0x24
 8001784:	fa02 f303 	lsl.w	r3, r2, r3
 8001788:	61fb      	str	r3, [r7, #28]

    /* Get the current IO position */
    iocurrent = (uint32_t)(GPIO_Init->Pin) & ioposition;
 800178a:	683b      	ldr	r3, [r7, #0]
 800178c:	681b      	ldr	r3, [r3, #0]
 800178e:	69fa      	ldr	r2, [r7, #28]
 8001790:	4013      	ands	r3, r2
 8001792:	61bb      	str	r3, [r7, #24]

    if (iocurrent == ioposition)
 8001794:	69ba      	ldr	r2, [r7, #24]
 8001796:	69fb      	ldr	r3, [r7, #28]
 8001798:	429a      	cmp	r2, r3
 800179a:	f040 8158 	bne.w	8001a4e <HAL_GPIO_Init+0x2e2>
    {
      /* Check the Alternate function parameters */
      assert_param(IS_GPIO_AF_INSTANCE(GPIOx));

      /* Based on the required mode, filling config variable with MODEy[1:0] and CNFy[3:2] corresponding bits */
      switch (GPIO_Init->Mode)
 800179e:	683b      	ldr	r3, [r7, #0]
 80017a0:	685b      	ldr	r3, [r3, #4]
 80017a2:	4a9a      	ldr	r2, [pc, #616]	@ (8001a0c <HAL_GPIO_Init+0x2a0>)
 80017a4:	4293      	cmp	r3, r2
 80017a6:	d05e      	beq.n	8001866 <HAL_GPIO_Init+0xfa>
 80017a8:	4a98      	ldr	r2, [pc, #608]	@ (8001a0c <HAL_GPIO_Init+0x2a0>)
 80017aa:	4293      	cmp	r3, r2
 80017ac:	d875      	bhi.n	800189a <HAL_GPIO_Init+0x12e>
 80017ae:	4a98      	ldr	r2, [pc, #608]	@ (8001a10 <HAL_GPIO_Init+0x2a4>)
 80017b0:	4293      	cmp	r3, r2
 80017b2:	d058      	beq.n	8001866 <HAL_GPIO_Init+0xfa>
 80017b4:	4a96      	ldr	r2, [pc, #600]	@ (8001a10 <HAL_GPIO_Init+0x2a4>)
 80017b6:	4293      	cmp	r3, r2
 80017b8:	d86f      	bhi.n	800189a <HAL_GPIO_Init+0x12e>
 80017ba:	4a96      	ldr	r2, [pc, #600]	@ (8001a14 <HAL_GPIO_Init+0x2a8>)
 80017bc:	4293      	cmp	r3, r2
 80017be:	d052      	beq.n	8001866 <HAL_GPIO_Init+0xfa>
 80017c0:	4a94      	ldr	r2, [pc, #592]	@ (8001a14 <HAL_GPIO_Init+0x2a8>)
 80017c2:	4293      	cmp	r3, r2
 80017c4:	d869      	bhi.n	800189a <HAL_GPIO_Init+0x12e>
 80017c6:	4a94      	ldr	r2, [pc, #592]	@ (8001a18 <HAL_GPIO_Init+0x2ac>)
 80017c8:	4293      	cmp	r3, r2
 80017ca:	d04c      	beq.n	8001866 <HAL_GPIO_Init+0xfa>
 80017cc:	4a92      	ldr	r2, [pc, #584]	@ (8001a18 <HAL_GPIO_Init+0x2ac>)
 80017ce:	4293      	cmp	r3, r2
 80017d0:	d863      	bhi.n	800189a <HAL_GPIO_Init+0x12e>
 80017d2:	4a92      	ldr	r2, [pc, #584]	@ (8001a1c <HAL_GPIO_Init+0x2b0>)
 80017d4:	4293      	cmp	r3, r2
 80017d6:	d046      	beq.n	8001866 <HAL_GPIO_Init+0xfa>
 80017d8:	4a90      	ldr	r2, [pc, #576]	@ (8001a1c <HAL_GPIO_Init+0x2b0>)
 80017da:	4293      	cmp	r3, r2
 80017dc:	d85d      	bhi.n	800189a <HAL_GPIO_Init+0x12e>
 80017de:	2b12      	cmp	r3, #18
 80017e0:	d82a      	bhi.n	8001838 <HAL_GPIO_Init+0xcc>
 80017e2:	2b12      	cmp	r3, #18
 80017e4:	d859      	bhi.n	800189a <HAL_GPIO_Init+0x12e>
 80017e6:	a201      	add	r2, pc, #4	@ (adr r2, 80017ec <HAL_GPIO_Init+0x80>)
 80017e8:	f852 f023 	ldr.w	pc, [r2, r3, lsl #2]
 80017ec:	08001867 	.word	0x08001867
 80017f0:	08001841 	.word	0x08001841
 80017f4:	08001853 	.word	0x08001853
 80017f8:	08001895 	.word	0x08001895
 80017fc:	0800189b 	.word	0x0800189b
 8001800:	0800189b 	.word	0x0800189b
 8001804:	0800189b 	.word	0x0800189b
 8001808:	0800189b 	.word	0x0800189b
 800180c:	0800189b 	.word	0x0800189b
 8001810:	0800189b 	.word	0x0800189b
 8001814:	0800189b 	.word	0x0800189b
 8001818:	0800189b 	.word	0x0800189b
 800181c:	0800189b 	.word	0x0800189b
 8001820:	0800189b 	.word	0x0800189b
 8001824:	0800189b 	.word	0x0800189b
 8001828:	0800189b 	.word	0x0800189b
 800182c:	0800189b 	.word	0x0800189b
 8001830:	08001849 	.word	0x08001849
 8001834:	0800185d 	.word	0x0800185d
 8001838:	4a79      	ldr	r2, [pc, #484]	@ (8001a20 <HAL_GPIO_Init+0x2b4>)
 800183a:	4293      	cmp	r3, r2
 800183c:	d013      	beq.n	8001866 <HAL_GPIO_Init+0xfa>
          config = GPIO_CR_MODE_INPUT + GPIO_CR_CNF_ANALOG;
          break;

        /* Parameters are checked with assert_param */
        default:
          break;
 800183e:	e02c      	b.n	800189a <HAL_GPIO_Init+0x12e>
          config = GPIO_Init->Speed + GPIO_CR_CNF_GP_OUTPUT_PP;
 8001840:	683b      	ldr	r3, [r7, #0]
 8001842:	68db      	ldr	r3, [r3, #12]
 8001844:	623b      	str	r3, [r7, #32]
          break;
 8001846:	e029      	b.n	800189c <HAL_GPIO_Init+0x130>
          config = GPIO_Init->Speed + GPIO_CR_CNF_GP_OUTPUT_OD;
 8001848:	683b      	ldr	r3, [r7, #0]
 800184a:	68db      	ldr	r3, [r3, #12]
 800184c:	3304      	adds	r3, #4
 800184e:	623b      	str	r3, [r7, #32]
          break;
 8001850:	e024      	b.n	800189c <HAL_GPIO_Init+0x130>
          config = GPIO_Init->Speed + GPIO_CR_CNF_AF_OUTPUT_PP;
 8001852:	683b      	ldr	r3, [r7, #0]
 8001854:	68db      	ldr	r3, [r3, #12]
 8001856:	3308      	adds	r3, #8
 8001858:	623b      	str	r3, [r7, #32]
          break;
 800185a:	e01f      	b.n	800189c <HAL_GPIO_Init+0x130>
          config = GPIO_Init->Speed + GPIO_CR_CNF_AF_OUTPUT_OD;
 800185c:	683b      	ldr	r3, [r7, #0]
 800185e:	68db      	ldr	r3, [r3, #12]
 8001860:	330c      	adds	r3, #12
 8001862:	623b      	str	r3, [r7, #32]
          break;
 8001864:	e01a      	b.n	800189c <HAL_GPIO_Init+0x130>
          if (GPIO_Init->Pull == GPIO_NOPULL)
 8001866:	683b      	ldr	r3, [r7, #0]
 8001868:	689b      	ldr	r3, [r3, #8]
 800186a:	2b00      	cmp	r3, #0
 800186c:	d102      	bne.n	8001874 <HAL_GPIO_Init+0x108>
            config = GPIO_CR_MODE_INPUT + GPIO_CR_CNF_INPUT_FLOATING;
 800186e:	2304      	movs	r3, #4
 8001870:	623b      	str	r3, [r7, #32]
          break;
 8001872:	e013      	b.n	800189c <HAL_GPIO_Init+0x130>
          else if (GPIO_Init->Pull == GPIO_PULLUP)
 8001874:	683b      	ldr	r3, [r7, #0]
 8001876:	689b      	ldr	r3, [r3, #8]
 8001878:	2b01      	cmp	r3, #1
 800187a:	d105      	bne.n	8001888 <HAL_GPIO_Init+0x11c>
            config = GPIO_CR_MODE_INPUT + GPIO_CR_CNF_INPUT_PU_PD;
 800187c:	2308      	movs	r3, #8
 800187e:	623b      	str	r3, [r7, #32]
            GPIOx->BSRR = ioposition;
 8001880:	687b      	ldr	r3, [r7, #4]
 8001882:	69fa      	ldr	r2, [r7, #28]
 8001884:	611a      	str	r2, [r3, #16]
          break;
 8001886:	e009      	b.n	800189c <HAL_GPIO_Init+0x130>
            config = GPIO_CR_MODE_INPUT + GPIO_CR_CNF_INPUT_PU_PD;
 8001888:	2308      	movs	r3, #8
 800188a:	623b      	str	r3, [r7, #32]
            GPIOx->BRR = ioposition;
 800188c:	687b      	ldr	r3, [r7, #4]
 800188e:	69fa      	ldr	r2, [r7, #28]
 8001890:	615a      	str	r2, [r3, #20]
          break;
 8001892:	e003      	b.n	800189c <HAL_GPIO_Init+0x130>
          config = GPIO_CR_MODE_INPUT + GPIO_CR_CNF_ANALOG;
 8001894:	2300      	movs	r3, #0
 8001896:	623b      	str	r3, [r7, #32]
          break;
 8001898:	e000      	b.n	800189c <HAL_GPIO_Init+0x130>
          break;
 800189a:	bf00      	nop
      }

      /* Check if the current bit belongs to first half or last half of the pin count number
       in order to address CRH or CRL register*/
      configregister = (iocurrent < GPIO_PIN_8) ? &GPIOx->CRL     : &GPIOx->CRH;
 800189c:	69bb      	ldr	r3, [r7, #24]
 800189e:	2bff      	cmp	r3, #255	@ 0xff
 80018a0:	d801      	bhi.n	80018a6 <HAL_GPIO_Init+0x13a>
 80018a2:	687b      	ldr	r3, [r7, #4]
 80018a4:	e001      	b.n	80018aa <HAL_GPIO_Init+0x13e>
 80018a6:	687b      	ldr	r3, [r7, #4]
 80018a8:	3304      	adds	r3, #4
 80018aa:	617b      	str	r3, [r7, #20]
      registeroffset = (iocurrent < GPIO_PIN_8) ? (position << 2u) : ((position - 8u) << 2u);
 80018ac:	69bb      	ldr	r3, [r7, #24]
 80018ae:	2bff      	cmp	r3, #255	@ 0xff
 80018b0:	d802      	bhi.n	80018b8 <HAL_GPIO_Init+0x14c>
 80018b2:	6a7b      	ldr	r3, [r7, #36]	@ 0x24
 80018b4:	009b      	lsls	r3, r3, #2
 80018b6:	e002      	b.n	80018be <HAL_GPIO_Init+0x152>
 80018b8:	6a7b      	ldr	r3, [r7, #36]	@ 0x24
 80018ba:	3b08      	subs	r3, #8
 80018bc:	009b      	lsls	r3, r3, #2
 80018be:	613b      	str	r3, [r7, #16]

      /* Apply the new configuration of the pin to the register */
      MODIFY_REG((*configregister), ((GPIO_CRL_MODE0 | GPIO_CRL_CNF0) << registeroffset), (config << registeroffset));
 80018c0:	697b      	ldr	r3, [r7, #20]
 80018c2:	681a      	ldr	r2, [r3, #0]
 80018c4:	210f      	movs	r1, #15
 80018c6:	693b      	ldr	r3, [r7, #16]
 80018c8:	fa01 f303 	lsl.w	r3, r1, r3
 80018cc:	43db      	mvns	r3, r3
 80018ce:	401a      	ands	r2, r3
 80018d0:	6a39      	ldr	r1, [r7, #32]
 80018d2:	693b      	ldr	r3, [r7, #16]
 80018d4:	fa01 f303 	lsl.w	r3, r1, r3
 80018d8:	431a      	orrs	r2, r3
 80018da:	697b      	ldr	r3, [r7, #20]
 80018dc:	601a      	str	r2, [r3, #0]

      /*--------------------- EXTI Mode Configuration ------------------------*/
      /* Configure the External Interrupt or event for the current IO */
      if ((GPIO_Init->Mode & EXTI_MODE) == EXTI_MODE)
 80018de:	683b      	ldr	r3, [r7, #0]
 80018e0:	685b      	ldr	r3, [r3, #4]
 80018e2:	f003 5380 	and.w	r3, r3, #268435456	@ 0x10000000
 80018e6:	2b00      	cmp	r3, #0
 80018e8:	f000 80b1 	beq.w	8001a4e <HAL_GPIO_Init+0x2e2>
      {
        /* Enable AFIO Clock */
        __HAL_RCC_AFIO_CLK_ENABLE();
 80018ec:	4b4d      	ldr	r3, [pc, #308]	@ (8001a24 <HAL_GPIO_Init+0x2b8>)
 80018ee:	699b      	ldr	r3, [r3, #24]
 80018f0:	4a4c      	ldr	r2, [pc, #304]	@ (8001a24 <HAL_GPIO_Init+0x2b8>)
 80018f2:	f043 0301 	orr.w	r3, r3, #1
 80018f6:	6193      	str	r3, [r2, #24]
 80018f8:	4b4a      	ldr	r3, [pc, #296]	@ (8001a24 <HAL_GPIO_Init+0x2b8>)
 80018fa:	699b      	ldr	r3, [r3, #24]
 80018fc:	f003 0301 	and.w	r3, r3, #1
 8001900:	60bb      	str	r3, [r7, #8]
 8001902:	68bb      	ldr	r3, [r7, #8]
        temp = AFIO->EXTICR[position >> 2u];
 8001904:	4a48      	ldr	r2, [pc, #288]	@ (8001a28 <HAL_GPIO_Init+0x2bc>)
 8001906:	6a7b      	ldr	r3, [r7, #36]	@ 0x24
 8001908:	089b      	lsrs	r3, r3, #2
 800190a:	3302      	adds	r3, #2
 800190c:	f852 3023 	ldr.w	r3, [r2, r3, lsl #2]
 8001910:	60fb      	str	r3, [r7, #12]
        CLEAR_BIT(temp, (0x0Fu) << (4u * (position & 0x03u)));
 8001912:	6a7b      	ldr	r3, [r7, #36]	@ 0x24
 8001914:	f003 0303 	and.w	r3, r3, #3
 8001918:	009b      	lsls	r3, r3, #2
 800191a:	220f      	movs	r2, #15
 800191c:	fa02 f303 	lsl.w	r3, r2, r3
 8001920:	43db      	mvns	r3, r3
 8001922:	68fa      	ldr	r2, [r7, #12]
 8001924:	4013      	ands	r3, r2
 8001926:	60fb      	str	r3, [r7, #12]
        SET_BIT(temp, (GPIO_GET_INDEX(GPIOx)) << (4u * (position & 0x03u)));
 8001928:	687b      	ldr	r3, [r7, #4]
 800192a:	4a40      	ldr	r2, [pc, #256]	@ (8001a2c <HAL_GPIO_Init+0x2c0>)
 800192c:	4293      	cmp	r3, r2
 800192e:	d013      	beq.n	8001958 <HAL_GPIO_Init+0x1ec>
 8001930:	687b      	ldr	r3, [r7, #4]
 8001932:	4a3f      	ldr	r2, [pc, #252]	@ (8001a30 <HAL_GPIO_Init+0x2c4>)
 8001934:	4293      	cmp	r3, r2
 8001936:	d00d      	beq.n	8001954 <HAL_GPIO_Init+0x1e8>
 8001938:	687b      	ldr	r3, [r7, #4]
 800193a:	4a3e      	ldr	r2, [pc, #248]	@ (8001a34 <HAL_GPIO_Init+0x2c8>)
 800193c:	4293      	cmp	r3, r2
 800193e:	d007      	beq.n	8001950 <HAL_GPIO_Init+0x1e4>
 8001940:	687b      	ldr	r3, [r7, #4]
 8001942:	4a3d      	ldr	r2, [pc, #244]	@ (8001a38 <HAL_GPIO_Init+0x2cc>)
 8001944:	4293      	cmp	r3, r2
 8001946:	d101      	bne.n	800194c <HAL_GPIO_Init+0x1e0>
 8001948:	2303      	movs	r3, #3
 800194a:	e006      	b.n	800195a <HAL_GPIO_Init+0x1ee>
 800194c:	2304      	movs	r3, #4
 800194e:	e004      	b.n	800195a <HAL_GPIO_Init+0x1ee>
 8001950:	2302      	movs	r3, #2
 8001952:	e002      	b.n	800195a <HAL_GPIO_Init+0x1ee>
 8001954:	2301      	movs	r3, #1
 8001956:	e000      	b.n	800195a <HAL_GPIO_Init+0x1ee>
 8001958:	2300      	movs	r3, #0
 800195a:	6a7a      	ldr	r2, [r7, #36]	@ 0x24
 800195c:	f002 0203 	and.w	r2, r2, #3
 8001960:	0092      	lsls	r2, r2, #2
 8001962:	4093      	lsls	r3, r2
 8001964:	68fa      	ldr	r2, [r7, #12]
 8001966:	4313      	orrs	r3, r2
 8001968:	60fb      	str	r3, [r7, #12]
        AFIO->EXTICR[position >> 2u] = temp;
 800196a:	492f      	ldr	r1, [pc, #188]	@ (8001a28 <HAL_GPIO_Init+0x2bc>)
 800196c:	6a7b      	ldr	r3, [r7, #36]	@ 0x24
 800196e:	089b      	lsrs	r3, r3, #2
 8001970:	3302      	adds	r3, #2
 8001972:	68fa      	ldr	r2, [r7, #12]
 8001974:	f841 2023 	str.w	r2, [r1, r3, lsl #2]


        /* Enable or disable the rising trigger */
        if ((GPIO_Init->Mode & RISING_EDGE) == RISING_EDGE)
 8001978:	683b      	ldr	r3, [r7, #0]
 800197a:	685b      	ldr	r3, [r3, #4]
 800197c:	f403 1380 	and.w	r3, r3, #1048576	@ 0x100000
 8001980:	2b00      	cmp	r3, #0
 8001982:	d006      	beq.n	8001992 <HAL_GPIO_Init+0x226>
        {
          SET_BIT(EXTI->RTSR, iocurrent);
 8001984:	4b2d      	ldr	r3, [pc, #180]	@ (8001a3c <HAL_GPIO_Init+0x2d0>)
 8001986:	689a      	ldr	r2, [r3, #8]
 8001988:	492c      	ldr	r1, [pc, #176]	@ (8001a3c <HAL_GPIO_Init+0x2d0>)
 800198a:	69bb      	ldr	r3, [r7, #24]
 800198c:	4313      	orrs	r3, r2
 800198e:	608b      	str	r3, [r1, #8]
 8001990:	e006      	b.n	80019a0 <HAL_GPIO_Init+0x234>
        }
        else
        {
          CLEAR_BIT(EXTI->RTSR, iocurrent);
 8001992:	4b2a      	ldr	r3, [pc, #168]	@ (8001a3c <HAL_GPIO_Init+0x2d0>)
 8001994:	689a      	ldr	r2, [r3, #8]
 8001996:	69bb      	ldr	r3, [r7, #24]
 8001998:	43db      	mvns	r3, r3
 800199a:	4928      	ldr	r1, [pc, #160]	@ (8001a3c <HAL_GPIO_Init+0x2d0>)
 800199c:	4013      	ands	r3, r2
 800199e:	608b      	str	r3, [r1, #8]
        }

        /* Enable or disable the falling trigger */
        if ((GPIO_Init->Mode & FALLING_EDGE) == FALLING_EDGE)
 80019a0:	683b      	ldr	r3, [r7, #0]
 80019a2:	685b      	ldr	r3, [r3, #4]
 80019a4:	f403 1300 	and.w	r3, r3, #2097152	@ 0x200000
 80019a8:	2b00      	cmp	r3, #0
 80019aa:	d006      	beq.n	80019ba <HAL_GPIO_Init+0x24e>
        {
          SET_BIT(EXTI->FTSR, iocurrent);
 80019ac:	4b23      	ldr	r3, [pc, #140]	@ (8001a3c <HAL_GPIO_Init+0x2d0>)
 80019ae:	68da      	ldr	r2, [r3, #12]
 80019b0:	4922      	ldr	r1, [pc, #136]	@ (8001a3c <HAL_GPIO_Init+0x2d0>)
 80019b2:	69bb      	ldr	r3, [r7, #24]
 80019b4:	4313      	orrs	r3, r2
 80019b6:	60cb      	str	r3, [r1, #12]
 80019b8:	e006      	b.n	80019c8 <HAL_GPIO_Init+0x25c>
        }
        else
        {
          CLEAR_BIT(EXTI->FTSR, iocurrent);
 80019ba:	4b20      	ldr	r3, [pc, #128]	@ (8001a3c <HAL_GPIO_Init+0x2d0>)
 80019bc:	68da      	ldr	r2, [r3, #12]
 80019be:	69bb      	ldr	r3, [r7, #24]
 80019c0:	43db      	mvns	r3, r3
 80019c2:	491e      	ldr	r1, [pc, #120]	@ (8001a3c <HAL_GPIO_Init+0x2d0>)
 80019c4:	4013      	ands	r3, r2
 80019c6:	60cb      	str	r3, [r1, #12]
        }

        /* Configure the event mask */
        if ((GPIO_Init->Mode & GPIO_MODE_EVT) == GPIO_MODE_EVT)
 80019c8:	683b      	ldr	r3, [r7, #0]
 80019ca:	685b      	ldr	r3, [r3, #4]
 80019cc:	f403 3300 	and.w	r3, r3, #131072	@ 0x20000
 80019d0:	2b00      	cmp	r3, #0
 80019d2:	d006      	beq.n	80019e2 <HAL_GPIO_Init+0x276>
        {
          SET_BIT(EXTI->EMR, iocurrent);
 80019d4:	4b19      	ldr	r3, [pc, #100]	@ (8001a3c <HAL_GPIO_Init+0x2d0>)
 80019d6:	685a      	ldr	r2, [r3, #4]
 80019d8:	4918      	ldr	r1, [pc, #96]	@ (8001a3c <HAL_GPIO_Init+0x2d0>)
 80019da:	69bb      	ldr	r3, [r7, #24]
 80019dc:	4313      	orrs	r3, r2
 80019de:	604b      	str	r3, [r1, #4]
 80019e0:	e006      	b.n	80019f0 <HAL_GPIO_Init+0x284>
        }
        else
        {
          CLEAR_BIT(EXTI->EMR, iocurrent);
 80019e2:	4b16      	ldr	r3, [pc, #88]	@ (8001a3c <HAL_GPIO_Init+0x2d0>)
 80019e4:	685a      	ldr	r2, [r3, #4]
 80019e6:	69bb      	ldr	r3, [r7, #24]
 80019e8:	43db      	mvns	r3, r3
 80019ea:	4914      	ldr	r1, [pc, #80]	@ (8001a3c <HAL_GPIO_Init+0x2d0>)
 80019ec:	4013      	ands	r3, r2
 80019ee:	604b      	str	r3, [r1, #4]
        }

        /* Configure the interrupt mask */
        if ((GPIO_Init->Mode & GPIO_MODE_IT) == GPIO_MODE_IT)
 80019f0:	683b      	ldr	r3, [r7, #0]
 80019f2:	685b      	ldr	r3, [r3, #4]
 80019f4:	f403 3380 	and.w	r3, r3, #65536	@ 0x10000
 80019f8:	2b00      	cmp	r3, #0
 80019fa:	d021      	beq.n	8001a40 <HAL_GPIO_Init+0x2d4>
        {
          SET_BIT(EXTI->IMR, iocurrent);
 80019fc:	4b0f      	ldr	r3, [pc, #60]	@ (8001a3c <HAL_GPIO_Init+0x2d0>)
 80019fe:	681a      	ldr	r2, [r3, #0]
 8001a00:	490e      	ldr	r1, [pc, #56]	@ (8001a3c <HAL_GPIO_Init+0x2d0>)
 8001a02:	69bb      	ldr	r3, [r7, #24]
 8001a04:	4313      	orrs	r3, r2
 8001a06:	600b      	str	r3, [r1, #0]
 8001a08:	e021      	b.n	8001a4e <HAL_GPIO_Init+0x2e2>
 8001a0a:	bf00      	nop
 8001a0c:	10320000 	.word	0x10320000
 8001a10:	10310000 	.word	0x10310000
 8001a14:	10220000 	.word	0x10220000
 8001a18:	10210000 	.word	0x10210000
 8001a1c:	10120000 	.word	0x10120000
 8001a20:	10110000 	.word	0x10110000
 8001a24:	40021000 	.word	0x40021000
 8001a28:	40010000 	.word	0x40010000
 8001a2c:	40010800 	.word	0x40010800
 8001a30:	40010c00 	.word	0x40010c00
 8001a34:	40011000 	.word	0x40011000
 8001a38:	40011400 	.word	0x40011400
 8001a3c:	40010400 	.word	0x40010400
        }
        else
        {
          CLEAR_BIT(EXTI->IMR, iocurrent);
 8001a40:	4b0b      	ldr	r3, [pc, #44]	@ (8001a70 <HAL_GPIO_Init+0x304>)
 8001a42:	681a      	ldr	r2, [r3, #0]
 8001a44:	69bb      	ldr	r3, [r7, #24]
 8001a46:	43db      	mvns	r3, r3
 8001a48:	4909      	ldr	r1, [pc, #36]	@ (8001a70 <HAL_GPIO_Init+0x304>)
 8001a4a:	4013      	ands	r3, r2
 8001a4c:	600b      	str	r3, [r1, #0]
        }
      }
    }

	position++;
 8001a4e:	6a7b      	ldr	r3, [r7, #36]	@ 0x24
 8001a50:	3301      	adds	r3, #1
 8001a52:	627b      	str	r3, [r7, #36]	@ 0x24
  while (((GPIO_Init->Pin) >> position) != 0x00u)
 8001a54:	683b      	ldr	r3, [r7, #0]
 8001a56:	681a      	ldr	r2, [r3, #0]
 8001a58:	6a7b      	ldr	r3, [r7, #36]	@ 0x24
 8001a5a:	fa22 f303 	lsr.w	r3, r2, r3
 8001a5e:	2b00      	cmp	r3, #0
 8001a60:	f47f ae8e 	bne.w	8001780 <HAL_GPIO_Init+0x14>
  }
}
 8001a64:	bf00      	nop
 8001a66:	bf00      	nop
 8001a68:	372c      	adds	r7, #44	@ 0x2c
 8001a6a:	46bd      	mov	sp, r7
 8001a6c:	bc80      	pop	{r7}
 8001a6e:	4770      	bx	lr
 8001a70:	40010400 	.word	0x40010400

08001a74 <HAL_GPIO_DeInit>:
  * @param  GPIO_Pin: specifies the port bit to be written.
  *         This parameter can be one of GPIO_PIN_x where x can be (0..15).
  * @retval None
  */
void HAL_GPIO_DeInit(GPIO_TypeDef  *GPIOx, uint32_t GPIO_Pin)
{
 8001a74:	b480      	push	{r7}
 8001a76:	b089      	sub	sp, #36	@ 0x24
 8001a78:	af00      	add	r7, sp, #0
 8001a7a:	6078      	str	r0, [r7, #4]
 8001a7c:	6039      	str	r1, [r7, #0]
  uint32_t position = 0x00u;
 8001a7e:	2300      	movs	r3, #0
 8001a80:	61fb      	str	r3, [r7, #28]
  /* Check the parameters */
  assert_param(IS_GPIO_ALL_INSTANCE(GPIOx));
  assert_param(IS_GPIO_PIN(GPIO_Pin));

  /* Configure the port pins */
  while ((GPIO_Pin >> position) != 0u)
 8001a82:	e09a      	b.n	8001bba <HAL_GPIO_DeInit+0x146>
  {
    /* Get current io position */
    iocurrent = (GPIO_Pin) & (1uL << position);
 8001a84:	2201      	movs	r2, #1
 8001a86:	69fb      	ldr	r3, [r7, #28]
 8001a88:	fa02 f303 	lsl.w	r3, r2, r3
 8001a8c:	683a      	ldr	r2, [r7, #0]
 8001a8e:	4013      	ands	r3, r2
 8001a90:	61bb      	str	r3, [r7, #24]

    if (iocurrent)
 8001a92:	69bb      	ldr	r3, [r7, #24]
 8001a94:	2b00      	cmp	r3, #0
 8001a96:	f000 808d 	beq.w	8001bb4 <HAL_GPIO_DeInit+0x140>
    {
      /*------------------------- EXTI Mode Configuration --------------------*/
      /* Clear the External Interrupt or Event for the current IO */

      tmp = AFIO->EXTICR[position >> 2u];
 8001a9a:	4a4e      	ldr	r2, [pc, #312]	@ (8001bd4 <HAL_GPIO_DeInit+0x160>)
 8001a9c:	69fb      	ldr	r3, [r7, #28]
 8001a9e:	089b      	lsrs	r3, r3, #2
 8001aa0:	3302      	adds	r3, #2
 8001aa2:	f852 3023 	ldr.w	r3, [r2, r3, lsl #2]
 8001aa6:	617b      	str	r3, [r7, #20]
      tmp &= 0x0FuL << (4u * (position & 0x03u));
 8001aa8:	69fb      	ldr	r3, [r7, #28]
 8001aaa:	f003 0303 	and.w	r3, r3, #3
 8001aae:	009b      	lsls	r3, r3, #2
 8001ab0:	220f      	movs	r2, #15
 8001ab2:	fa02 f303 	lsl.w	r3, r2, r3
 8001ab6:	697a      	ldr	r2, [r7, #20]
 8001ab8:	4013      	ands	r3, r2
 8001aba:	617b      	str	r3, [r7, #20]
      if (tmp == (GPIO_GET_INDEX(GPIOx) << (4u * (position & 0x03u))))
 8001abc:	687b      	ldr	r3, [r7, #4]
 8001abe:	4a46      	ldr	r2, [pc, #280]	@ (8001bd8 <HAL_GPIO_DeInit+0x164>)
 8001ac0:	4293      	cmp	r3, r2
 8001ac2:	d013      	beq.n	8001aec <HAL_GPIO_DeInit+0x78>
 8001ac4:	687b      	ldr	r3, [r7, #4]
 8001ac6:	4a45      	ldr	r2, [pc, #276]	@ (8001bdc <HAL_GPIO_DeInit+0x168>)
 8001ac8:	4293      	cmp	r3, r2
 8001aca:	d00d      	beq.n	8001ae8 <HAL_GPIO_DeInit+0x74>
 8001acc:	687b      	ldr	r3, [r7, #4]
 8001ace:	4a44      	ldr	r2, [pc, #272]	@ (8001be0 <HAL_GPIO_DeInit+0x16c>)
 8001ad0:	4293      	cmp	r3, r2
 8001ad2:	d007      	beq.n	8001ae4 <HAL_GPIO_DeInit+0x70>
 8001ad4:	687b      	ldr	r3, [r7, #4]
 8001ad6:	4a43      	ldr	r2, [pc, #268]	@ (8001be4 <HAL_GPIO_DeInit+0x170>)
 8001ad8:	4293      	cmp	r3, r2
 8001ada:	d101      	bne.n	8001ae0 <HAL_GPIO_DeInit+0x6c>
 8001adc:	2303      	movs	r3, #3
 8001ade:	e006      	b.n	8001aee <HAL_GPIO_DeInit+0x7a>
 8001ae0:	2304      	movs	r3, #4
 8001ae2:	e004      	b.n	8001aee <HAL_GPIO_DeInit+0x7a>
 8001ae4:	2302      	movs	r3, #2
 8001ae6:	e002      	b.n	8001aee <HAL_GPIO_DeInit+0x7a>
 8001ae8:	2301      	movs	r3, #1
 8001aea:	e000      	b.n	8001aee <HAL_GPIO_DeInit+0x7a>
 8001aec:	2300      	movs	r3, #0
 8001aee:	69fa      	ldr	r2, [r7, #28]
 8001af0:	f002 0203 	and.w	r2, r2, #3
 8001af4:	0092      	lsls	r2, r2, #2
 8001af6:	4093      	lsls	r3, r2
 8001af8:	697a      	ldr	r2, [r7, #20]
 8001afa:	429a      	cmp	r2, r3
 8001afc:	d132      	bne.n	8001b64 <HAL_GPIO_DeInit+0xf0>
      {
        /* Clear EXTI line configuration */
        CLEAR_BIT(EXTI->IMR, (uint32_t)iocurrent);
 8001afe:	4b3a      	ldr	r3, [pc, #232]	@ (8001be8 <HAL_GPIO_DeInit+0x174>)
 8001b00:	681a      	ldr	r2, [r3, #0]
 8001b02:	69bb      	ldr	r3, [r7, #24]
 8001b04:	43db      	mvns	r3, r3
 8001b06:	4938      	ldr	r1, [pc, #224]	@ (8001be8 <HAL_GPIO_DeInit+0x174>)
 8001b08:	4013      	ands	r3, r2
 8001b0a:	600b      	str	r3, [r1, #0]
        CLEAR_BIT(EXTI->EMR, (uint32_t)iocurrent);
 8001b0c:	4b36      	ldr	r3, [pc, #216]	@ (8001be8 <HAL_GPIO_DeInit+0x174>)
 8001b0e:	685a      	ldr	r2, [r3, #4]
 8001b10:	69bb      	ldr	r3, [r7, #24]
 8001b12:	43db      	mvns	r3, r3
 8001b14:	4934      	ldr	r1, [pc, #208]	@ (8001be8 <HAL_GPIO_DeInit+0x174>)
 8001b16:	4013      	ands	r3, r2
 8001b18:	604b      	str	r3, [r1, #4]

        /* Clear Rising Falling edge configuration */
        CLEAR_BIT(EXTI->FTSR, (uint32_t)iocurrent);
 8001b1a:	4b33      	ldr	r3, [pc, #204]	@ (8001be8 <HAL_GPIO_DeInit+0x174>)
 8001b1c:	68da      	ldr	r2, [r3, #12]
 8001b1e:	69bb      	ldr	r3, [r7, #24]
 8001b20:	43db      	mvns	r3, r3
 8001b22:	4931      	ldr	r1, [pc, #196]	@ (8001be8 <HAL_GPIO_DeInit+0x174>)
 8001b24:	4013      	ands	r3, r2
 8001b26:	60cb      	str	r3, [r1, #12]
        CLEAR_BIT(EXTI->RTSR, (uint32_t)iocurrent);
 8001b28:	4b2f      	ldr	r3, [pc, #188]	@ (8001be8 <HAL_GPIO_DeInit+0x174>)
 8001b2a:	689a      	ldr	r2, [r3, #8]
 8001b2c:	69bb      	ldr	r3, [r7, #24]
 8001b2e:	43db      	mvns	r3, r3
 8001b30:	492d      	ldr	r1, [pc, #180]	@ (8001be8 <HAL_GPIO_DeInit+0x174>)
 8001b32:	4013      	ands	r3, r2
 8001b34:	608b      	str	r3, [r1, #8]
        
        tmp = 0x0FuL << (4u * (position & 0x03u));
 8001b36:	69fb      	ldr	r3, [r7, #28]
 8001b38:	f003 0303 	and.w	r3, r3, #3
 8001b3c:	009b      	lsls	r3, r3, #2
 8001b3e:	220f      	movs	r2, #15
 8001b40:	fa02 f303 	lsl.w	r3, r2, r3
 8001b44:	617b      	str	r3, [r7, #20]
        CLEAR_BIT(AFIO->EXTICR[position >> 2u], tmp);
 8001b46:	4a23      	ldr	r2, [pc, #140]	@ (8001bd4 <HAL_GPIO_DeInit+0x160>)
 8001b48:	69fb      	ldr	r3, [r7, #28]
 8001b4a:	089b      	lsrs	r3, r3, #2
 8001b4c:	3302      	adds	r3, #2
 8001b4e:	f852 1023 	ldr.w	r1, [r2, r3, lsl #2]
 8001b52:	697b      	ldr	r3, [r7, #20]
 8001b54:	43da      	mvns	r2, r3
 8001b56:	481f      	ldr	r0, [pc, #124]	@ (8001bd4 <HAL_GPIO_DeInit+0x160>)
 8001b58:	69fb      	ldr	r3, [r7, #28]
 8001b5a:	089b      	lsrs	r3, r3, #2
 8001b5c:	400a      	ands	r2, r1
 8001b5e:	3302      	adds	r3, #2
 8001b60:	f840 2023 	str.w	r2, [r0, r3, lsl #2]
      }
      /*------------------------- GPIO Mode Configuration --------------------*/
      /* Check if the current bit belongs to first half or last half of the pin count number
       in order to address CRH or CRL register */
      configregister = (iocurrent < GPIO_PIN_8) ? &GPIOx->CRL     : &GPIOx->CRH;
 8001b64:	69bb      	ldr	r3, [r7, #24]
 8001b66:	2bff      	cmp	r3, #255	@ 0xff
 8001b68:	d801      	bhi.n	8001b6e <HAL_GPIO_DeInit+0xfa>
 8001b6a:	687b      	ldr	r3, [r7, #4]
 8001b6c:	e001      	b.n	8001b72 <HAL_GPIO_DeInit+0xfe>
 8001b6e:	687b      	ldr	r3, [r7, #4]
 8001b70:	3304      	adds	r3, #4
 8001b72:	613b      	str	r3, [r7, #16]
      registeroffset = (iocurrent < GPIO_PIN_8) ? (position << 2u) : ((position - 8u) << 2u);
 8001b74:	69bb      	ldr	r3, [r7, #24]
 8001b76:	2bff      	cmp	r3, #255	@ 0xff
 8001b78:	d802      	bhi.n	8001b80 <HAL_GPIO_DeInit+0x10c>
 8001b7a:	69fb      	ldr	r3, [r7, #28]
 8001b7c:	009b      	lsls	r3, r3, #2
 8001b7e:	e002      	b.n	8001b86 <HAL_GPIO_DeInit+0x112>
 8001b80:	69fb      	ldr	r3, [r7, #28]
 8001b82:	3b08      	subs	r3, #8
 8001b84:	009b      	lsls	r3, r3, #2
 8001b86:	60fb      	str	r3, [r7, #12]

      /* CRL/CRH default value is floating input(0x04) shifted to correct position */
      MODIFY_REG(*configregister, ((GPIO_CRL_MODE0 | GPIO_CRL_CNF0) << registeroffset), GPIO_CRL_CNF0_0 << registeroffset);
 8001b88:	693b      	ldr	r3, [r7, #16]
 8001b8a:	681a      	ldr	r2, [r3, #0]
 8001b8c:	210f      	movs	r1, #15
 8001b8e:	68fb      	ldr	r3, [r7, #12]
 8001b90:	fa01 f303 	lsl.w	r3, r1, r3
 8001b94:	43db      	mvns	r3, r3
 8001b96:	401a      	ands	r2, r3
 8001b98:	2104      	movs	r1, #4
 8001b9a:	68fb      	ldr	r3, [r7, #12]
 8001b9c:	fa01 f303 	lsl.w	r3, r1, r3
 8001ba0:	431a      	orrs	r2, r3
 8001ba2:	693b      	ldr	r3, [r7, #16]
 8001ba4:	601a      	str	r2, [r3, #0]

      /* ODR default value is 0 */
      CLEAR_BIT(GPIOx->ODR, iocurrent);
 8001ba6:	687b      	ldr	r3, [r7, #4]
 8001ba8:	68da      	ldr	r2, [r3, #12]
 8001baa:	69bb      	ldr	r3, [r7, #24]
 8001bac:	43db      	mvns	r3, r3
 8001bae:	401a      	ands	r2, r3
 8001bb0:	687b      	ldr	r3, [r7, #4]
 8001bb2:	60da      	str	r2, [r3, #12]
    }

    position++;
 8001bb4:	69fb      	ldr	r3, [r7, #28]
 8001bb6:	3301      	adds	r3, #1
 8001bb8:	61fb      	str	r3, [r7, #28]
  while ((GPIO_Pin >> position) != 0u)
 8001bba:	683a      	ldr	r2, [r7, #0]
 8001bbc:	69fb      	ldr	r3, [r7, #28]
 8001bbe:	fa22 f303 	lsr.w	r3, r2, r3
 8001bc2:	2b00      	cmp	r3, #0
 8001bc4:	f47f af5e 	bne.w	8001a84 <HAL_GPIO_DeInit+0x10>
  }
}
 8001bc8:	bf00      	nop
 8001bca:	bf00      	nop
 8001bcc:	3724      	adds	r7, #36	@ 0x24
 8001bce:	46bd      	mov	sp, r7
 8001bd0:	bc80      	pop	{r7}
 8001bd2:	4770      	bx	lr
 8001bd4:	40010000 	.word	0x40010000
 8001bd8:	40010800 	.word	0x40010800
 8001bdc:	40010c00 	.word	0x40010c00
 8001be0:	40011000 	.word	0x40011000
 8001be4:	40011400 	.word	0x40011400
 8001be8:	40010400 	.word	0x40010400

08001bec <HAL_GPIO_WritePin>:
  *            @arg GPIO_PIN_RESET: to clear the port pin
  *            @arg GPIO_PIN_SET: to set the port pin
  * @retval None
  */
void HAL_GPIO_WritePin(GPIO_TypeDef *GPIOx, uint16_t GPIO_Pin, GPIO_PinState PinState)
{
 8001bec:	b480      	push	{r7}
 8001bee:	b083      	sub	sp, #12
 8001bf0:	af00      	add	r7, sp, #0
 8001bf2:	6078      	str	r0, [r7, #4]
 8001bf4:	460b      	mov	r3, r1
 8001bf6:	807b      	strh	r3, [r7, #2]
 8001bf8:	4613      	mov	r3, r2
 8001bfa:	707b      	strb	r3, [r7, #1]
  /* Check the parameters */
  assert_param(IS_GPIO_PIN(GPIO_Pin));
  assert_param(IS_GPIO_PIN_ACTION(PinState));

  if (PinState != GPIO_PIN_RESET)
 8001bfc:	787b      	ldrb	r3, [r7, #1]
 8001bfe:	2b00      	cmp	r3, #0
 8001c00:	d003      	beq.n	8001c0a <HAL_GPIO_WritePin+0x1e>
  {
    GPIOx->BSRR = GPIO_Pin;
 8001c02:	887a      	ldrh	r2, [r7, #2]
 8001c04:	687b      	ldr	r3, [r7, #4]
 8001c06:	611a      	str	r2, [r3, #16]
  }
  else
  {
    GPIOx->BSRR = (uint32_t)GPIO_Pin << 16u;
  }
}
 8001c08:	e003      	b.n	8001c12 <HAL_GPIO_WritePin+0x26>
    GPIOx->BSRR = (uint32_t)GPIO_Pin << 16u;
 8001c0a:	887b      	ldrh	r3, [r7, #2]
 8001c0c:	041a      	lsls	r2, r3, #16
 8001c0e:	687b      	ldr	r3, [r7, #4]
 8001c10:	611a      	str	r2, [r3, #16]
}
 8001c12:	bf00      	nop
 8001c14:	370c      	adds	r7, #12
 8001c16:	46bd      	mov	sp, r7
 8001c18:	bc80      	pop	{r7}
 8001c1a:	4770      	bx	lr

08001c1c <HAL_GPIO_TogglePin>:
  * @param  GPIOx: where x can be (A..G depending on device used) to select the GPIO peripheral
  * @param  GPIO_Pin: Specifies the pins to be toggled.
  * @retval None
  */
void HAL_GPIO_TogglePin(GPIO_TypeDef *GPIOx, uint16_t GPIO_Pin)
{
 8001c1c:	b480      	push	{r7}
 8001c1e:	b085      	sub	sp, #20
 8001c20:	af00      	add	r7, sp, #0
 8001c22:	6078      	str	r0, [r7, #4]
 8001c24:	460b      	mov	r3, r1
 8001c26:	807b      	strh	r3, [r7, #2]

  /* Check the parameters */
  assert_param(IS_GPIO_PIN(GPIO_Pin));

  /* get current Output Data Register value */
  odr = GPIOx->ODR;
 8001c28:	687b      	ldr	r3, [r7, #4]
 8001c2a:	68db      	ldr	r3, [r3, #12]
 8001c2c:	60fb      	str	r3, [r7, #12]

  /* Set selected pins that were at low level, and reset ones that were high */
  GPIOx->BSRR = ((odr & GPIO_Pin) << GPIO_NUMBER) | (~odr & GPIO_Pin);
 8001c2e:	887a      	ldrh	r2, [r7, #2]
 8001c30:	68fb      	ldr	r3, [r7, #12]
 8001c32:	4013      	ands	r3, r2
 8001c34:	041a      	lsls	r2, r3, #16
 8001c36:	68fb      	ldr	r3, [r7, #12]
 8001c38:	43d9      	mvns	r1, r3
 8001c3a:	887b      	ldrh	r3, [r7, #2]
 8001c3c:	400b      	ands	r3, r1
 8001c3e:	431a      	orrs	r2, r3
 8001c40:	687b      	ldr	r3, [r7, #4]
 8001c42:	611a      	str	r2, [r3, #16]
}
 8001c44:	bf00      	nop
 8001c46:	3714      	adds	r7, #20
 8001c48:	46bd      	mov	sp, r7
 8001c4a:	bc80      	pop	{r7}
 8001c4c:	4770      	bx	lr
	...

08001c50 <HAL_GPIO_EXTI_IRQHandler>:
  * @brief  This function handles EXTI interrupt request.
  * @param  GPIO_Pin: Specifies the pins connected EXTI line
  * @retval None
  */
void HAL_GPIO_EXTI_IRQHandler(uint16_t GPIO_Pin)
{
 8001c50:	b580      	push	{r7, lr}
 8001c52:	b082      	sub	sp, #8
 8001c54:	af00      	add	r7, sp, #0
 8001c56:	4603      	mov	r3, r0
 8001c58:	80fb      	strh	r3, [r7, #6]
  /* EXTI line interrupt detected */
  if (__HAL_GPIO_EXTI_GET_IT(GPIO_Pin) != 0x00u)
 8001c5a:	4b08      	ldr	r3, [pc, #32]	@ (8001c7c <HAL_GPIO_EXTI_IRQHandler+0x2c>)
 8001c5c:	695a      	ldr	r2, [r3, #20]
 8001c5e:	88fb      	ldrh	r3, [r7, #6]
 8001c60:	4013      	ands	r3, r2
 8001c62:	2b00      	cmp	r3, #0
 8001c64:	d006      	beq.n	8001c74 <HAL_GPIO_EXTI_IRQHandler+0x24>
  {
    __HAL_GPIO_EXTI_CLEAR_IT(GPIO_Pin);
 8001c66:	4a05      	ldr	r2, [pc, #20]	@ (8001c7c <HAL_GPIO_EXTI_IRQHandler+0x2c>)
 8001c68:	88fb      	ldrh	r3, [r7, #6]
 8001c6a:	6153      	str	r3, [r2, #20]
    HAL_GPIO_EXTI_Callback(GPIO_Pin);
 8001c6c:	88fb      	ldrh	r3, [r7, #6]
 8001c6e:	4618      	mov	r0, r3
 8001c70:	f7ff f93a 	bl	8000ee8 <HAL_GPIO_EXTI_Callback>
  }
}
 8001c74:	bf00      	nop
 8001c76:	3708      	adds	r7, #8
 8001c78:	46bd      	mov	sp, r7
 8001c7a:	bd80      	pop	{r7, pc}
 8001c7c:	40010400 	.word	0x40010400

08001c80 <HAL_I2C_Init>:
  * @param  hi2c Pointer to a I2C_HandleTypeDef structure that contains
  *                the configuration information for the specified I2C.
  * @retval HAL status
  */
HAL_StatusTypeDef HAL_I2C_Init(I2C_HandleTypeDef *hi2c)
{
 8001c80:	b580      	push	{r7, lr}
 8001c82:	b084      	sub	sp, #16
 8001c84:	af00      	add	r7, sp, #0
 8001c86:	6078      	str	r0, [r7, #4]
  uint32_t freqrange;
  uint32_t pclk1;

  /* Check the I2C handle allocation */
  if (hi2c == NULL)
 8001c88:	687b      	ldr	r3, [r7, #4]
 8001c8a:	2b00      	cmp	r3, #0
 8001c8c:	d101      	bne.n	8001c92 <HAL_I2C_Init+0x12>
  {
    return HAL_ERROR;
 8001c8e:	2301      	movs	r3, #1
 8001c90:	e12b      	b.n	8001eea <HAL_I2C_Init+0x26a>
  assert_param(IS_I2C_DUAL_ADDRESS(hi2c->Init.DualAddressMode));
  assert_param(IS_I2C_OWN_ADDRESS2(hi2c->Init.OwnAddress2));
  assert_param(IS_I2C_GENERAL_CALL(hi2c->Init.GeneralCallMode));
  assert_param(IS_I2C_NO_STRETCH(hi2c->Init.NoStretchMode));

  if (hi2c->State == HAL_I2C_STATE_RESET)
 8001c92:	687b      	ldr	r3, [r7, #4]
 8001c94:	f893 303d 	ldrb.w	r3, [r3, #61]	@ 0x3d
 8001c98:	b2db      	uxtb	r3, r3
 8001c9a:	2b00      	cmp	r3, #0
 8001c9c:	d106      	bne.n	8001cac <HAL_I2C_Init+0x2c>
  {
    /* Allocate lock resource and initialize it */
    hi2c->Lock = HAL_UNLOCKED;
 8001c9e:	687b      	ldr	r3, [r7, #4]
 8001ca0:	2200      	movs	r2, #0
 8001ca2:	f883 203c 	strb.w	r2, [r3, #60]	@ 0x3c

    /* Init the low level hardware : GPIO, CLOCK, NVIC */
    hi2c->MspInitCallback(hi2c);
#else
    /* Init the low level hardware : GPIO, CLOCK, NVIC */
    HAL_I2C_MspInit(hi2c);
 8001ca6:	6878      	ldr	r0, [r7, #4]
 8001ca8:	f7ff f81a 	bl	8000ce0 <HAL_I2C_MspInit>
#endif /* USE_HAL_I2C_REGISTER_CALLBACKS */
  }

  hi2c->State = HAL_I2C_STATE_BUSY;
 8001cac:	687b      	ldr	r3, [r7, #4]
 8001cae:	2224      	movs	r2, #36	@ 0x24
 8001cb0:	f883 203d 	strb.w	r2, [r3, #61]	@ 0x3d

  /* Disable the selected I2C peripheral */
  __HAL_I2C_DISABLE(hi2c);
 8001cb4:	687b      	ldr	r3, [r7, #4]
 8001cb6:	681b      	ldr	r3, [r3, #0]
 8001cb8:	681a      	ldr	r2, [r3, #0]
 8001cba:	687b      	ldr	r3, [r7, #4]
 8001cbc:	681b      	ldr	r3, [r3, #0]
 8001cbe:	f022 0201 	bic.w	r2, r2, #1
 8001cc2:	601a      	str	r2, [r3, #0]

  /*Reset I2C*/
  hi2c->Instance->CR1 |= I2C_CR1_SWRST;
 8001cc4:	687b      	ldr	r3, [r7, #4]
 8001cc6:	681b      	ldr	r3, [r3, #0]
 8001cc8:	681a      	ldr	r2, [r3, #0]
 8001cca:	687b      	ldr	r3, [r7, #4]
 8001ccc:	681b      	ldr	r3, [r3, #0]
 8001cce:	f442 4200 	orr.w	r2, r2, #32768	@ 0x8000
 8001cd2:	601a      	str	r2, [r3, #0]
  hi2c->Instance->CR1 &= ~I2C_CR1_SWRST;
 8001cd4:	687b      	ldr	r3, [r7, #4]
 8001cd6:	681b      	ldr	r3, [r3, #0]
 8001cd8:	681a      	ldr	r2, [r3, #0]
 8001cda:	687b      	ldr	r3, [r7, #4]
 8001cdc:	681b      	ldr	r3, [r3, #0]
 8001cde:	f422 4200 	bic.w	r2, r2, #32768	@ 0x8000
 8001ce2:	601a      	str	r2, [r3, #0]

  /* Get PCLK1 frequency */
  pclk1 = HAL_RCC_GetPCLK1Freq();
 8001ce4:	f002 faae 	bl	8004244 <HAL_RCC_GetPCLK1Freq>
 8001ce8:	60f8      	str	r0, [r7, #12]

  /* Check the minimum allowed PCLK1 frequency */
  if (I2C_MIN_PCLK_FREQ(pclk1, hi2c->Init.ClockSpeed) == 1U)
 8001cea:	687b      	ldr	r3, [r7, #4]
 8001cec:	685b      	ldr	r3, [r3, #4]
 8001cee:	4a81      	ldr	r2, [pc, #516]	@ (8001ef4 <HAL_I2C_Init+0x274>)
 8001cf0:	4293      	cmp	r3, r2
 8001cf2:	d807      	bhi.n	8001d04 <HAL_I2C_Init+0x84>
 8001cf4:	68fb      	ldr	r3, [r7, #12]
 8001cf6:	4a80      	ldr	r2, [pc, #512]	@ (8001ef8 <HAL_I2C_Init+0x278>)
 8001cf8:	4293      	cmp	r3, r2
 8001cfa:	bf94      	ite	ls
 8001cfc:	2301      	movls	r3, #1
 8001cfe:	2300      	movhi	r3, #0
 8001d00:	b2db      	uxtb	r3, r3
 8001d02:	e006      	b.n	8001d12 <HAL_I2C_Init+0x92>
 8001d04:	68fb      	ldr	r3, [r7, #12]
 8001d06:	4a7d      	ldr	r2, [pc, #500]	@ (8001efc <HAL_I2C_Init+0x27c>)
 8001d08:	4293      	cmp	r3, r2
 8001d0a:	bf94      	ite	ls
 8001d0c:	2301      	movls	r3, #1
 8001d0e:	2300      	movhi	r3, #0
 8001d10:	b2db      	uxtb	r3, r3
 8001d12:	2b00      	cmp	r3, #0
 8001d14:	d001      	beq.n	8001d1a <HAL_I2C_Init+0x9a>
  {
    return HAL_ERROR;
 8001d16:	2301      	movs	r3, #1
 8001d18:	e0e7      	b.n	8001eea <HAL_I2C_Init+0x26a>
  }

  /* Calculate frequency range */
  freqrange = I2C_FREQRANGE(pclk1);
 8001d1a:	68fb      	ldr	r3, [r7, #12]
 8001d1c:	4a78      	ldr	r2, [pc, #480]	@ (8001f00 <HAL_I2C_Init+0x280>)
 8001d1e:	fba2 2303 	umull	r2, r3, r2, r3
 8001d22:	0c9b      	lsrs	r3, r3, #18
 8001d24:	60bb      	str	r3, [r7, #8]

  /*---------------------------- I2Cx CR2 Configuration ----------------------*/
  /* Configure I2Cx: Frequency range */
  MODIFY_REG(hi2c->Instance->CR2, I2C_CR2_FREQ, freqrange);
 8001d26:	687b      	ldr	r3, [r7, #4]
 8001d28:	681b      	ldr	r3, [r3, #0]
 8001d2a:	685b      	ldr	r3, [r3, #4]
 8001d2c:	f023 013f 	bic.w	r1, r3, #63	@ 0x3f
 8001d30:	687b      	ldr	r3, [r7, #4]
 8001d32:	681b      	ldr	r3, [r3, #0]
 8001d34:	68ba      	ldr	r2, [r7, #8]
 8001d36:	430a      	orrs	r2, r1
 8001d38:	605a      	str	r2, [r3, #4]

  /*---------------------------- I2Cx TRISE Configuration --------------------*/
  /* Configure I2Cx: Rise Time */
  MODIFY_REG(hi2c->Instance->TRISE, I2C_TRISE_TRISE, I2C_RISE_TIME(freqrange, hi2c->Init.ClockSpeed));
 8001d3a:	687b      	ldr	r3, [r7, #4]
 8001d3c:	681b      	ldr	r3, [r3, #0]
 8001d3e:	6a1b      	ldr	r3, [r3, #32]
 8001d40:	f023 013f 	bic.w	r1, r3, #63	@ 0x3f
 8001d44:	687b      	ldr	r3, [r7, #4]
 8001d46:	685b      	ldr	r3, [r3, #4]
 8001d48:	4a6a      	ldr	r2, [pc, #424]	@ (8001ef4 <HAL_I2C_Init+0x274>)
 8001d4a:	4293      	cmp	r3, r2
 8001d4c:	d802      	bhi.n	8001d54 <HAL_I2C_Init+0xd4>
 8001d4e:	68bb      	ldr	r3, [r7, #8]
 8001d50:	3301      	adds	r3, #1
 8001d52:	e009      	b.n	8001d68 <HAL_I2C_Init+0xe8>
 8001d54:	68bb      	ldr	r3, [r7, #8]
 8001d56:	f44f 7296 	mov.w	r2, #300	@ 0x12c
 8001d5a:	fb02 f303 	mul.w	r3, r2, r3
 8001d5e:	4a69      	ldr	r2, [pc, #420]	@ (8001f04 <HAL_I2C_Init+0x284>)
 8001d60:	fba2 2303 	umull	r2, r3, r2, r3
 8001d64:	099b      	lsrs	r3, r3, #6
 8001d66:	3301      	adds	r3, #1
 8001d68:	687a      	ldr	r2, [r7, #4]
 8001d6a:	6812      	ldr	r2, [r2, #0]
 8001d6c:	430b      	orrs	r3, r1
 8001d6e:	6213      	str	r3, [r2, #32]

  /*---------------------------- I2Cx CCR Configuration ----------------------*/
  /* Configure I2Cx: Speed */
  MODIFY_REG(hi2c->Instance->CCR, (I2C_CCR_FS | I2C_CCR_DUTY | I2C_CCR_CCR), I2C_SPEED(pclk1, hi2c->Init.ClockSpeed, hi2c->Init.DutyCycle));
 8001d70:	687b      	ldr	r3, [r7, #4]
 8001d72:	681b      	ldr	r3, [r3, #0]
 8001d74:	69db      	ldr	r3, [r3, #28]
 8001d76:	f423 424f 	bic.w	r2, r3, #52992	@ 0xcf00
 8001d7a:	f022 02ff 	bic.w	r2, r2, #255	@ 0xff
 8001d7e:	687b      	ldr	r3, [r7, #4]
 8001d80:	685b      	ldr	r3, [r3, #4]
 8001d82:	495c      	ldr	r1, [pc, #368]	@ (8001ef4 <HAL_I2C_Init+0x274>)
 8001d84:	428b      	cmp	r3, r1
 8001d86:	d819      	bhi.n	8001dbc <HAL_I2C_Init+0x13c>
 8001d88:	68fb      	ldr	r3, [r7, #12]
 8001d8a:	1e59      	subs	r1, r3, #1
 8001d8c:	687b      	ldr	r3, [r7, #4]
 8001d8e:	685b      	ldr	r3, [r3, #4]
 8001d90:	005b      	lsls	r3, r3, #1
 8001d92:	fbb1 f3f3 	udiv	r3, r1, r3
 8001d96:	1c59      	adds	r1, r3, #1
 8001d98:	f640 73fc 	movw	r3, #4092	@ 0xffc
 8001d9c:	400b      	ands	r3, r1
 8001d9e:	2b00      	cmp	r3, #0
 8001da0:	d00a      	beq.n	8001db8 <HAL_I2C_Init+0x138>
 8001da2:	68fb      	ldr	r3, [r7, #12]
 8001da4:	1e59      	subs	r1, r3, #1
 8001da6:	687b      	ldr	r3, [r7, #4]
 8001da8:	685b      	ldr	r3, [r3, #4]
 8001daa:	005b      	lsls	r3, r3, #1
 8001dac:	fbb1 f3f3 	udiv	r3, r1, r3
 8001db0:	3301      	adds	r3, #1
 8001db2:	f3c3 030b 	ubfx	r3, r3, #0, #12
 8001db6:	e051      	b.n	8001e5c <HAL_I2C_Init+0x1dc>
 8001db8:	2304      	movs	r3, #4
 8001dba:	e04f      	b.n	8001e5c <HAL_I2C_Init+0x1dc>
 8001dbc:	687b      	ldr	r3, [r7, #4]
 8001dbe:	689b      	ldr	r3, [r3, #8]
 8001dc0:	2b00      	cmp	r3, #0
 8001dc2:	d111      	bne.n	8001de8 <HAL_I2C_Init+0x168>
 8001dc4:	68fb      	ldr	r3, [r7, #12]
 8001dc6:	1e58      	subs	r0, r3, #1
 8001dc8:	687b      	ldr	r3, [r7, #4]
 8001dca:	6859      	ldr	r1, [r3, #4]
 8001dcc:	460b      	mov	r3, r1
 8001dce:	005b      	lsls	r3, r3, #1
 8001dd0:	440b      	add	r3, r1
 8001dd2:	fbb0 f3f3 	udiv	r3, r0, r3
 8001dd6:	3301      	adds	r3, #1
 8001dd8:	f3c3 030b 	ubfx	r3, r3, #0, #12
 8001ddc:	2b00      	cmp	r3, #0
 8001dde:	bf0c      	ite	eq
 8001de0:	2301      	moveq	r3, #1
 8001de2:	2300      	movne	r3, #0
 8001de4:	b2db      	uxtb	r3, r3
 8001de6:	e012      	b.n	8001e0e <HAL_I2C_Init+0x18e>
 8001de8:	68fb      	ldr	r3, [r7, #12]
 8001dea:	1e58      	subs	r0, r3, #1
 8001dec:	687b      	ldr	r3, [r7, #4]
 8001dee:	6859      	ldr	r1, [r3, #4]
 8001df0:	460b      	mov	r3, r1
 8001df2:	009b      	lsls	r3, r3, #2
 8001df4:	440b      	add	r3, r1
 8001df6:	0099      	lsls	r1, r3, #2
 8001df8:	440b      	add	r3, r1
 8001dfa:	fbb0 f3f3 	udiv	r3, r0, r3
 8001dfe:	3301      	adds	r3, #1
 8001e00:	f3c3 030b 	ubfx	r3, r3, #0, #12
 8001e04:	2b00      	cmp	r3, #0
 8001e06:	bf0c      	ite	eq
 8001e08:	2301      	moveq	r3, #1
 8001e0a:	2300      	movne	r3, #0
 8001e0c:	b2db      	uxtb	r3, r3
 8001e0e:	2b00      	cmp	r3, #0
 8001e10:	d001      	beq.n	8001e16 <HAL_I2C_Init+0x196>
 8001e12:	2301      	movs	r3, #1
 8001e14:	e022      	b.n	8001e5c <HAL_I2C_Init+0x1dc>
 8001e16:	687b      	ldr	r3, [r7, #4]
 8001e18:	689b      	ldr	r3, [r3, #8]
 8001e1a:	2b00      	cmp	r3, #0
 8001e1c:	d10e      	bne.n	8001e3c <HAL_I2C_Init+0x1bc>
 8001e1e:	68fb      	ldr	r3, [r7, #12]
 8001e20:	1e58      	subs	r0, r3, #1
 8001e22:	687b      	ldr	r3, [r7, #4]
 8001e24:	6859      	ldr	r1, [r3, #4]
 8001e26:	460b      	mov	r3, r1
 8001e28:	005b      	lsls	r3, r3, #1
 8001e2a:	440b      	add	r3, r1
 8001e2c:	fbb0 f3f3 	udiv	r3, r0, r3
 8001e30:	3301      	adds	r3, #1
 8001e32:	f3c3 030b 	ubfx	r3, r3, #0, #12
 8001e36:	f443 4300 	orr.w	r3, r3, #32768	@ 0x8000
 8001e3a:	e00f      	b.n	8001e5c <HAL_I2C_Init+0x1dc>
 8001e3c:	68fb      	ldr	r3, [r7, #12]
 8001e3e:	1e58      	subs	r0, r3, #1
 8001e40:	687b      	ldr	r3, [r7, #4]
 8001e42:	6859      	ldr	r1, [r3, #4]
 8001e44:	460b      	mov	r3, r1
 8001e46:	009b      	lsls	r3, r3, #2
 8001e48:	440b      	add	r3, r1
 8001e4a:	0099      	lsls	r1, r3, #2
 8001e4c:	440b      	add	r3, r1
 8001e4e:	fbb0 f3f3 	udiv	r3, r0, r3
 8001e52:	3301      	adds	r3, #1
 8001e54:	f3c3 030b 	ubfx	r3, r3, #0, #12
 8001e58:	f443 4340 	orr.w	r3, r3, #49152	@ 0xc000
 8001e5c:	6879      	ldr	r1, [r7, #4]
 8001e5e:	6809      	ldr	r1, [r1, #0]
 8001e60:	4313      	orrs	r3, r2
 8001e62:	61cb      	str	r3, [r1, #28]

  /*---------------------------- I2Cx CR1 Configuration ----------------------*/
  /* Configure I2Cx: Generalcall and NoStretch mode */
  MODIFY_REG(hi2c->Instance->CR1, (I2C_CR1_ENGC | I2C_CR1_NOSTRETCH), (hi2c->Init.GeneralCallMode | hi2c->Init.NoStretchMode));
 8001e64:	687b      	ldr	r3, [r7, #4]
 8001e66:	681b      	ldr	r3, [r3, #0]
 8001e68:	681b      	ldr	r3, [r3, #0]
 8001e6a:	f023 01c0 	bic.w	r1, r3, #192	@ 0xc0
 8001e6e:	687b      	ldr	r3, [r7, #4]
 8001e70:	69da      	ldr	r2, [r3, #28]
 8001e72:	687b      	ldr	r3, [r7, #4]
 8001e74:	6a1b      	ldr	r3, [r3, #32]
 8001e76:	431a      	orrs	r2, r3
 8001e78:	687b      	ldr	r3, [r7, #4]
 8001e7a:	681b      	ldr	r3, [r3, #0]
 8001e7c:	430a      	orrs	r2, r1
 8001e7e:	601a      	str	r2, [r3, #0]

  /*---------------------------- I2Cx OAR1 Configuration ---------------------*/
  /* Configure I2Cx: Own Address1 and addressing mode */
  MODIFY_REG(hi2c->Instance->OAR1, (I2C_OAR1_ADDMODE | I2C_OAR1_ADD8_9 | I2C_OAR1_ADD1_7 | I2C_OAR1_ADD0), (hi2c->Init.AddressingMode | hi2c->Init.OwnAddress1));
 8001e80:	687b      	ldr	r3, [r7, #4]
 8001e82:	681b      	ldr	r3, [r3, #0]
 8001e84:	689b      	ldr	r3, [r3, #8]
 8001e86:	f423 4303 	bic.w	r3, r3, #33536	@ 0x8300
 8001e8a:	f023 03ff 	bic.w	r3, r3, #255	@ 0xff
 8001e8e:	687a      	ldr	r2, [r7, #4]
 8001e90:	6911      	ldr	r1, [r2, #16]
 8001e92:	687a      	ldr	r2, [r7, #4]
 8001e94:	68d2      	ldr	r2, [r2, #12]
 8001e96:	4311      	orrs	r1, r2
 8001e98:	687a      	ldr	r2, [r7, #4]
 8001e9a:	6812      	ldr	r2, [r2, #0]
 8001e9c:	430b      	orrs	r3, r1
 8001e9e:	6093      	str	r3, [r2, #8]

  /*---------------------------- I2Cx OAR2 Configuration ---------------------*/
  /* Configure I2Cx: Dual mode and Own Address2 */
  MODIFY_REG(hi2c->Instance->OAR2, (I2C_OAR2_ENDUAL | I2C_OAR2_ADD2), (hi2c->Init.DualAddressMode | hi2c->Init.OwnAddress2));
 8001ea0:	687b      	ldr	r3, [r7, #4]
 8001ea2:	681b      	ldr	r3, [r3, #0]
 8001ea4:	68db      	ldr	r3, [r3, #12]
 8001ea6:	f023 01ff 	bic.w	r1, r3, #255	@ 0xff
 8001eaa:	687b      	ldr	r3, [r7, #4]
 8001eac:	695a      	ldr	r2, [r3, #20]
 8001eae:	687b      	ldr	r3, [r7, #4]
 8001eb0:	699b      	ldr	r3, [r3, #24]
 8001eb2:	431a      	orrs	r2, r3
 8001eb4:	687b      	ldr	r3, [r7, #4]
 8001eb6:	681b      	ldr	r3, [r3, #0]
 8001eb8:	430a      	orrs	r2, r1
 8001eba:	60da      	str	r2, [r3, #12]

  /* Enable the selected I2C peripheral */
  __HAL_I2C_ENABLE(hi2c);
 8001ebc:	687b      	ldr	r3, [r7, #4]
 8001ebe:	681b      	ldr	r3, [r3, #0]
 8001ec0:	681a      	ldr	r2, [r3, #0]
 8001ec2:	687b      	ldr	r3, [r7, #4]
 8001ec4:	681b      	ldr	r3, [r3, #0]
 8001ec6:	f042 0201 	orr.w	r2, r2, #1
 8001eca:	601a      	str	r2, [r3, #0]

  hi2c->ErrorCode = HAL_I2C_ERROR_NONE;
 8001ecc:	687b      	ldr	r3, [r7, #4]
 8001ece:	2200      	movs	r2, #0
 8001ed0:	641a      	str	r2, [r3, #64]	@ 0x40
  hi2c->State = HAL_I2C_STATE_READY;
 8001ed2:	687b      	ldr	r3, [r7, #4]
 8001ed4:	2220      	movs	r2, #32
 8001ed6:	f883 203d 	strb.w	r2, [r3, #61]	@ 0x3d
  hi2c->PreviousState = I2C_STATE_NONE;
 8001eda:	687b      	ldr	r3, [r7, #4]
 8001edc:	2200      	movs	r2, #0
 8001ede:	631a      	str	r2, [r3, #48]	@ 0x30
  hi2c->Mode = HAL_I2C_MODE_NONE;
 8001ee0:	687b      	ldr	r3, [r7, #4]
 8001ee2:	2200      	movs	r2, #0
 8001ee4:	f883 203e 	strb.w	r2, [r3, #62]	@ 0x3e

  return HAL_OK;
 8001ee8:	2300      	movs	r3, #0
}
 8001eea:	4618      	mov	r0, r3
 8001eec:	3710      	adds	r7, #16
 8001eee:	46bd      	mov	sp, r7
 8001ef0:	bd80      	pop	{r7, pc}
 8001ef2:	bf00      	nop
 8001ef4:	000186a0 	.word	0x000186a0
 8001ef8:	001e847f 	.word	0x001e847f
 8001efc:	003d08ff 	.word	0x003d08ff
 8001f00:	431bde83 	.word	0x431bde83
 8001f04:	10624dd3 	.word	0x10624dd3

08001f08 <HAL_I2C_DeInit>:
  * @param  hi2c Pointer to a I2C_HandleTypeDef structure that contains
  *         the configuration information for the specified I2C.
  * @retval HAL status
  */
HAL_StatusTypeDef HAL_I2C_DeInit(I2C_HandleTypeDef *hi2c)
{
 8001f08:	b580      	push	{r7, lr}
 8001f0a:	b082      	sub	sp, #8
 8001f0c:	af00      	add	r7, sp, #0
 8001f0e:	6078      	str	r0, [r7, #4]
  /* Check the I2C handle allocation */
  if (hi2c == NULL)
 8001f10:	687b      	ldr	r3, [r7, #4]
 8001f12:	2b00      	cmp	r3, #0
 8001f14:	d101      	bne.n	8001f1a <HAL_I2C_DeInit+0x12>
  {
    return HAL_ERROR;
 8001f16:	2301      	movs	r3, #1
 8001f18:	e021      	b.n	8001f5e <HAL_I2C_DeInit+0x56>
  }

  /* Check the parameters */
  assert_param(IS_I2C_ALL_INSTANCE(hi2c->Instance));

  hi2c->State = HAL_I2C_STATE_BUSY;
 8001f1a:	687b      	ldr	r3, [r7, #4]
 8001f1c:	2224      	movs	r2, #36	@ 0x24
 8001f1e:	f883 203d 	strb.w	r2, [r3, #61]	@ 0x3d

  /* Disable the I2C Peripheral Clock */
  __HAL_I2C_DISABLE(hi2c);
 8001f22:	687b      	ldr	r3, [r7, #4]
 8001f24:	681b      	ldr	r3, [r3, #0]
 8001f26:	681a      	ldr	r2, [r3, #0]
 8001f28:	687b      	ldr	r3, [r7, #4]
 8001f2a:	681b      	ldr	r3, [r3, #0]
 8001f2c:	f022 0201 	bic.w	r2, r2, #1
 8001f30:	601a      	str	r2, [r3, #0]

  /* DeInit the low level hardware: GPIO, CLOCK, NVIC */
  hi2c->MspDeInitCallback(hi2c);
#else
  /* DeInit the low level hardware: GPIO, CLOCK, NVIC */
  HAL_I2C_MspDeInit(hi2c);
 8001f32:	6878      	ldr	r0, [r7, #4]
 8001f34:	f7fe ff22 	bl	8000d7c <HAL_I2C_MspDeInit>
#endif /* USE_HAL_I2C_REGISTER_CALLBACKS */

  hi2c->ErrorCode     = HAL_I2C_ERROR_NONE;
 8001f38:	687b      	ldr	r3, [r7, #4]
 8001f3a:	2200      	movs	r2, #0
 8001f3c:	641a      	str	r2, [r3, #64]	@ 0x40
  hi2c->State         = HAL_I2C_STATE_RESET;
 8001f3e:	687b      	ldr	r3, [r7, #4]
 8001f40:	2200      	movs	r2, #0
 8001f42:	f883 203d 	strb.w	r2, [r3, #61]	@ 0x3d
  hi2c->PreviousState = I2C_STATE_NONE;
 8001f46:	687b      	ldr	r3, [r7, #4]
 8001f48:	2200      	movs	r2, #0
 8001f4a:	631a      	str	r2, [r3, #48]	@ 0x30
  hi2c->Mode          = HAL_I2C_MODE_NONE;
 8001f4c:	687b      	ldr	r3, [r7, #4]
 8001f4e:	2200      	movs	r2, #0
 8001f50:	f883 203e 	strb.w	r2, [r3, #62]	@ 0x3e

  /* Release Lock */
  __HAL_UNLOCK(hi2c);
 8001f54:	687b      	ldr	r3, [r7, #4]
 8001f56:	2200      	movs	r2, #0
 8001f58:	f883 203c 	strb.w	r2, [r3, #60]	@ 0x3c

  return HAL_OK;
 8001f5c:	2300      	movs	r3, #0
}
 8001f5e:	4618      	mov	r0, r3
 8001f60:	3708      	adds	r7, #8
 8001f62:	46bd      	mov	sp, r7
 8001f64:	bd80      	pop	{r7, pc}

08001f66 <I2C_Flush_DR>:
  * @brief  I2C data register flush process.
  * @param  hi2c I2C handle.
  * @retval None
  */
static void I2C_Flush_DR(I2C_HandleTypeDef *hi2c)
{
 8001f66:	b480      	push	{r7}
 8001f68:	b083      	sub	sp, #12
 8001f6a:	af00      	add	r7, sp, #0
 8001f6c:	6078      	str	r0, [r7, #4]
  /* Write a dummy data in DR to clear TXE flag */
  if (__HAL_I2C_GET_FLAG(hi2c, I2C_FLAG_TXE) != RESET)
 8001f6e:	687b      	ldr	r3, [r7, #4]
 8001f70:	681b      	ldr	r3, [r3, #0]
 8001f72:	695b      	ldr	r3, [r3, #20]
 8001f74:	f003 0380 	and.w	r3, r3, #128	@ 0x80
 8001f78:	2b80      	cmp	r3, #128	@ 0x80
 8001f7a:	d103      	bne.n	8001f84 <I2C_Flush_DR+0x1e>
  {
    hi2c->Instance->DR = 0x00U;
 8001f7c:	687b      	ldr	r3, [r7, #4]
 8001f7e:	681b      	ldr	r3, [r3, #0]
 8001f80:	2200      	movs	r2, #0
 8001f82:	611a      	str	r2, [r3, #16]
  }
}
 8001f84:	bf00      	nop
 8001f86:	370c      	adds	r7, #12
 8001f88:	46bd      	mov	sp, r7
 8001f8a:	bc80      	pop	{r7}
 8001f8c:	4770      	bx	lr
	...

08001f90 <HAL_I2C_Slave_Transmit_IT>:
  * @param  pData Pointer to data buffer
  * @param  Size Amount of data to be sent
  * @retval HAL status
  */
HAL_StatusTypeDef HAL_I2C_Slave_Transmit_IT(I2C_HandleTypeDef *hi2c, uint8_t *pData, uint16_t Size)
{
 8001f90:	b480      	push	{r7}
 8001f92:	b085      	sub	sp, #20
 8001f94:	af00      	add	r7, sp, #0
 8001f96:	60f8      	str	r0, [r7, #12]
 8001f98:	60b9      	str	r1, [r7, #8]
 8001f9a:	4613      	mov	r3, r2
 8001f9c:	80fb      	strh	r3, [r7, #6]

  if (hi2c->State == HAL_I2C_STATE_READY)
 8001f9e:	68fb      	ldr	r3, [r7, #12]
 8001fa0:	f893 303d 	ldrb.w	r3, [r3, #61]	@ 0x3d
 8001fa4:	b2db      	uxtb	r3, r3
 8001fa6:	2b20      	cmp	r3, #32
 8001fa8:	d158      	bne.n	800205c <HAL_I2C_Slave_Transmit_IT+0xcc>
  {
    if ((pData == NULL) || (Size == 0U))
 8001faa:	68bb      	ldr	r3, [r7, #8]
 8001fac:	2b00      	cmp	r3, #0
 8001fae:	d002      	beq.n	8001fb6 <HAL_I2C_Slave_Transmit_IT+0x26>
 8001fb0:	88fb      	ldrh	r3, [r7, #6]
 8001fb2:	2b00      	cmp	r3, #0
 8001fb4:	d101      	bne.n	8001fba <HAL_I2C_Slave_Transmit_IT+0x2a>
    {
      return  HAL_ERROR;
 8001fb6:	2301      	movs	r3, #1
 8001fb8:	e051      	b.n	800205e <HAL_I2C_Slave_Transmit_IT+0xce>
    }

    /* Process Locked */
    __HAL_LOCK(hi2c);
 8001fba:	68fb      	ldr	r3, [r7, #12]
 8001fbc:	f893 303c 	ldrb.w	r3, [r3, #60]	@ 0x3c
 8001fc0:	2b01      	cmp	r3, #1
 8001fc2:	d101      	bne.n	8001fc8 <HAL_I2C_Slave_Transmit_IT+0x38>
 8001fc4:	2302      	movs	r3, #2
 8001fc6:	e04a      	b.n	800205e <HAL_I2C_Slave_Transmit_IT+0xce>
 8001fc8:	68fb      	ldr	r3, [r7, #12]
 8001fca:	2201      	movs	r2, #1
 8001fcc:	f883 203c 	strb.w	r2, [r3, #60]	@ 0x3c

    /* Check if the I2C is already enabled */
    if ((hi2c->Instance->CR1 & I2C_CR1_PE) != I2C_CR1_PE)
 8001fd0:	68fb      	ldr	r3, [r7, #12]
 8001fd2:	681b      	ldr	r3, [r3, #0]
 8001fd4:	681b      	ldr	r3, [r3, #0]
 8001fd6:	f003 0301 	and.w	r3, r3, #1
 8001fda:	2b01      	cmp	r3, #1
 8001fdc:	d007      	beq.n	8001fee <HAL_I2C_Slave_Transmit_IT+0x5e>
    {
      /* Enable I2C peripheral */
      __HAL_I2C_ENABLE(hi2c);
 8001fde:	68fb      	ldr	r3, [r7, #12]
 8001fe0:	681b      	ldr	r3, [r3, #0]
 8001fe2:	681a      	ldr	r2, [r3, #0]
 8001fe4:	68fb      	ldr	r3, [r7, #12]
 8001fe6:	681b      	ldr	r3, [r3, #0]
 8001fe8:	f042 0201 	orr.w	r2, r2, #1
 8001fec:	601a      	str	r2, [r3, #0]
    }

    /* Disable Pos */
    CLEAR_BIT(hi2c->Instance->CR1, I2C_CR1_POS);
 8001fee:	68fb      	ldr	r3, [r7, #12]
 8001ff0:	681b      	ldr	r3, [r3, #0]
 8001ff2:	681a      	ldr	r2, [r3, #0]
 8001ff4:	68fb      	ldr	r3, [r7, #12]
 8001ff6:	681b      	ldr	r3, [r3, #0]
 8001ff8:	f422 6200 	bic.w	r2, r2, #2048	@ 0x800
 8001ffc:	601a      	str	r2, [r3, #0]

    hi2c->State     = HAL_I2C_STATE_BUSY_TX;
 8001ffe:	68fb      	ldr	r3, [r7, #12]
 8002000:	2221      	movs	r2, #33	@ 0x21
 8002002:	f883 203d 	strb.w	r2, [r3, #61]	@ 0x3d
    hi2c->Mode      = HAL_I2C_MODE_SLAVE;
 8002006:	68fb      	ldr	r3, [r7, #12]
 8002008:	2220      	movs	r2, #32
 800200a:	f883 203e 	strb.w	r2, [r3, #62]	@ 0x3e
    hi2c->ErrorCode = HAL_I2C_ERROR_NONE;
 800200e:	68fb      	ldr	r3, [r7, #12]
 8002010:	2200      	movs	r2, #0
 8002012:	641a      	str	r2, [r3, #64]	@ 0x40

    /* Prepare transfer parameters */
    hi2c->pBuffPtr    = pData;
 8002014:	68fb      	ldr	r3, [r7, #12]
 8002016:	68ba      	ldr	r2, [r7, #8]
 8002018:	625a      	str	r2, [r3, #36]	@ 0x24
    hi2c->XferCount   = Size;
 800201a:	68fb      	ldr	r3, [r7, #12]
 800201c:	88fa      	ldrh	r2, [r7, #6]
 800201e:	855a      	strh	r2, [r3, #42]	@ 0x2a
    hi2c->XferSize    = hi2c->XferCount;
 8002020:	68fb      	ldr	r3, [r7, #12]
 8002022:	8d5b      	ldrh	r3, [r3, #42]	@ 0x2a
 8002024:	b29a      	uxth	r2, r3
 8002026:	68fb      	ldr	r3, [r7, #12]
 8002028:	851a      	strh	r2, [r3, #40]	@ 0x28
    hi2c->XferOptions = I2C_NO_OPTION_FRAME;
 800202a:	68fb      	ldr	r3, [r7, #12]
 800202c:	4a0e      	ldr	r2, [pc, #56]	@ (8002068 <HAL_I2C_Slave_Transmit_IT+0xd8>)
 800202e:	62da      	str	r2, [r3, #44]	@ 0x2c

    /* Enable Address Acknowledge */
    SET_BIT(hi2c->Instance->CR1, I2C_CR1_ACK);
 8002030:	68fb      	ldr	r3, [r7, #12]
 8002032:	681b      	ldr	r3, [r3, #0]
 8002034:	681a      	ldr	r2, [r3, #0]
 8002036:	68fb      	ldr	r3, [r7, #12]
 8002038:	681b      	ldr	r3, [r3, #0]
 800203a:	f442 6280 	orr.w	r2, r2, #1024	@ 0x400
 800203e:	601a      	str	r2, [r3, #0]

    /* Process Unlocked */
    __HAL_UNLOCK(hi2c);
 8002040:	68fb      	ldr	r3, [r7, #12]
 8002042:	2200      	movs	r2, #0
 8002044:	f883 203c 	strb.w	r2, [r3, #60]	@ 0x3c
    /* Note : The I2C interrupts must be enabled after unlocking current process
              to avoid the risk of I2C interrupt handle execution before current
              process unlock */

    /* Enable EVT, BUF and ERR interrupt */
    __HAL_I2C_ENABLE_IT(hi2c, I2C_IT_EVT | I2C_IT_BUF | I2C_IT_ERR);
 8002048:	68fb      	ldr	r3, [r7, #12]
 800204a:	681b      	ldr	r3, [r3, #0]
 800204c:	685a      	ldr	r2, [r3, #4]
 800204e:	68fb      	ldr	r3, [r7, #12]
 8002050:	681b      	ldr	r3, [r3, #0]
 8002052:	f442 62e0 	orr.w	r2, r2, #1792	@ 0x700
 8002056:	605a      	str	r2, [r3, #4]

    return HAL_OK;
 8002058:	2300      	movs	r3, #0
 800205a:	e000      	b.n	800205e <HAL_I2C_Slave_Transmit_IT+0xce>
  }
  else
  {
    return HAL_BUSY;
 800205c:	2302      	movs	r3, #2
  }
}
 800205e:	4618      	mov	r0, r3
 8002060:	3714      	adds	r7, #20
 8002062:	46bd      	mov	sp, r7
 8002064:	bc80      	pop	{r7}
 8002066:	4770      	bx	lr
 8002068:	ffff0000 	.word	0xffff0000

0800206c <HAL_I2C_Slave_Receive_IT>:
  * @param  pData Pointer to data buffer
  * @param  Size Amount of data to be sent
  * @retval HAL status
  */
HAL_StatusTypeDef HAL_I2C_Slave_Receive_IT(I2C_HandleTypeDef *hi2c, uint8_t *pData, uint16_t Size)
{
 800206c:	b480      	push	{r7}
 800206e:	b085      	sub	sp, #20
 8002070:	af00      	add	r7, sp, #0
 8002072:	60f8      	str	r0, [r7, #12]
 8002074:	60b9      	str	r1, [r7, #8]
 8002076:	4613      	mov	r3, r2
 8002078:	80fb      	strh	r3, [r7, #6]

  if (hi2c->State == HAL_I2C_STATE_READY)
 800207a:	68fb      	ldr	r3, [r7, #12]
 800207c:	f893 303d 	ldrb.w	r3, [r3, #61]	@ 0x3d
 8002080:	b2db      	uxtb	r3, r3
 8002082:	2b20      	cmp	r3, #32
 8002084:	d158      	bne.n	8002138 <HAL_I2C_Slave_Receive_IT+0xcc>
  {
    if ((pData == NULL) || (Size == 0U))
 8002086:	68bb      	ldr	r3, [r7, #8]
 8002088:	2b00      	cmp	r3, #0
 800208a:	d002      	beq.n	8002092 <HAL_I2C_Slave_Receive_IT+0x26>
 800208c:	88fb      	ldrh	r3, [r7, #6]
 800208e:	2b00      	cmp	r3, #0
 8002090:	d101      	bne.n	8002096 <HAL_I2C_Slave_Receive_IT+0x2a>
    {
      return  HAL_ERROR;
 8002092:	2301      	movs	r3, #1
 8002094:	e051      	b.n	800213a <HAL_I2C_Slave_Receive_IT+0xce>
    }

    /* Process Locked */
    __HAL_LOCK(hi2c);
 8002096:	68fb      	ldr	r3, [r7, #12]
 8002098:	f893 303c 	ldrb.w	r3, [r3, #60]	@ 0x3c
 800209c:	2b01      	cmp	r3, #1
 800209e:	d101      	bne.n	80020a4 <HAL_I2C_Slave_Receive_IT+0x38>
 80020a0:	2302      	movs	r3, #2
 80020a2:	e04a      	b.n	800213a <HAL_I2C_Slave_Receive_IT+0xce>
 80020a4:	68fb      	ldr	r3, [r7, #12]
 80020a6:	2201      	movs	r2, #1
 80020a8:	f883 203c 	strb.w	r2, [r3, #60]	@ 0x3c

    /* Check if the I2C is already enabled */
    if ((hi2c->Instance->CR1 & I2C_CR1_PE) != I2C_CR1_PE)
 80020ac:	68fb      	ldr	r3, [r7, #12]
 80020ae:	681b      	ldr	r3, [r3, #0]
 80020b0:	681b      	ldr	r3, [r3, #0]
 80020b2:	f003 0301 	and.w	r3, r3, #1
 80020b6:	2b01      	cmp	r3, #1
 80020b8:	d007      	beq.n	80020ca <HAL_I2C_Slave_Receive_IT+0x5e>
    {
      /* Enable I2C peripheral */
      __HAL_I2C_ENABLE(hi2c);
 80020ba:	68fb      	ldr	r3, [r7, #12]
 80020bc:	681b      	ldr	r3, [r3, #0]
 80020be:	681a      	ldr	r2, [r3, #0]
 80020c0:	68fb      	ldr	r3, [r7, #12]
 80020c2:	681b      	ldr	r3, [r3, #0]
 80020c4:	f042 0201 	orr.w	r2, r2, #1
 80020c8:	601a      	str	r2, [r3, #0]
    }

    /* Disable Pos */
    CLEAR_BIT(hi2c->Instance->CR1, I2C_CR1_POS);
 80020ca:	68fb      	ldr	r3, [r7, #12]
 80020cc:	681b      	ldr	r3, [r3, #0]
 80020ce:	681a      	ldr	r2, [r3, #0]
 80020d0:	68fb      	ldr	r3, [r7, #12]
 80020d2:	681b      	ldr	r3, [r3, #0]
 80020d4:	f422 6200 	bic.w	r2, r2, #2048	@ 0x800
 80020d8:	601a      	str	r2, [r3, #0]

    hi2c->State     = HAL_I2C_STATE_BUSY_RX;
 80020da:	68fb      	ldr	r3, [r7, #12]
 80020dc:	2222      	movs	r2, #34	@ 0x22
 80020de:	f883 203d 	strb.w	r2, [r3, #61]	@ 0x3d
    hi2c->Mode      = HAL_I2C_MODE_SLAVE;
 80020e2:	68fb      	ldr	r3, [r7, #12]
 80020e4:	2220      	movs	r2, #32
 80020e6:	f883 203e 	strb.w	r2, [r3, #62]	@ 0x3e
    hi2c->ErrorCode = HAL_I2C_ERROR_NONE;
 80020ea:	68fb      	ldr	r3, [r7, #12]
 80020ec:	2200      	movs	r2, #0
 80020ee:	641a      	str	r2, [r3, #64]	@ 0x40

    /* Prepare transfer parameters */
    hi2c->pBuffPtr    = pData;
 80020f0:	68fb      	ldr	r3, [r7, #12]
 80020f2:	68ba      	ldr	r2, [r7, #8]
 80020f4:	625a      	str	r2, [r3, #36]	@ 0x24
    hi2c->XferCount   = Size;
 80020f6:	68fb      	ldr	r3, [r7, #12]
 80020f8:	88fa      	ldrh	r2, [r7, #6]
 80020fa:	855a      	strh	r2, [r3, #42]	@ 0x2a
    hi2c->XferSize    = hi2c->XferCount;
 80020fc:	68fb      	ldr	r3, [r7, #12]
 80020fe:	8d5b      	ldrh	r3, [r3, #42]	@ 0x2a
 8002100:	b29a      	uxth	r2, r3
 8002102:	68fb      	ldr	r3, [r7, #12]
 8002104:	851a      	strh	r2, [r3, #40]	@ 0x28
    hi2c->XferOptions = I2C_NO_OPTION_FRAME;
 8002106:	68fb      	ldr	r3, [r7, #12]
 8002108:	4a0e      	ldr	r2, [pc, #56]	@ (8002144 <HAL_I2C_Slave_Receive_IT+0xd8>)
 800210a:	62da      	str	r2, [r3, #44]	@ 0x2c

    /* Enable Address Acknowledge */
    SET_BIT(hi2c->Instance->CR1, I2C_CR1_ACK);
 800210c:	68fb      	ldr	r3, [r7, #12]
 800210e:	681b      	ldr	r3, [r3, #0]
 8002110:	681a      	ldr	r2, [r3, #0]
 8002112:	68fb      	ldr	r3, [r7, #12]
 8002114:	681b      	ldr	r3, [r3, #0]
 8002116:	f442 6280 	orr.w	r2, r2, #1024	@ 0x400
 800211a:	601a      	str	r2, [r3, #0]

    /* Process Unlocked */
    __HAL_UNLOCK(hi2c);
 800211c:	68fb      	ldr	r3, [r7, #12]
 800211e:	2200      	movs	r2, #0
 8002120:	f883 203c 	strb.w	r2, [r3, #60]	@ 0x3c
    /* Note : The I2C interrupts must be enabled after unlocking current process
              to avoid the risk of I2C interrupt handle execution before current
              process unlock */

    /* Enable EVT, BUF and ERR interrupt */
    __HAL_I2C_ENABLE_IT(hi2c, I2C_IT_EVT | I2C_IT_BUF | I2C_IT_ERR);
 8002124:	68fb      	ldr	r3, [r7, #12]
 8002126:	681b      	ldr	r3, [r3, #0]
 8002128:	685a      	ldr	r2, [r3, #4]
 800212a:	68fb      	ldr	r3, [r7, #12]
 800212c:	681b      	ldr	r3, [r3, #0]
 800212e:	f442 62e0 	orr.w	r2, r2, #1792	@ 0x700
 8002132:	605a      	str	r2, [r3, #4]

    return HAL_OK;
 8002134:	2300      	movs	r3, #0
 8002136:	e000      	b.n	800213a <HAL_I2C_Slave_Receive_IT+0xce>
  }
  else
  {
    return HAL_BUSY;
 8002138:	2302      	movs	r3, #2
  }
}
 800213a:	4618      	mov	r0, r3
 800213c:	3714      	adds	r7, #20
 800213e:	46bd      	mov	sp, r7
 8002140:	bc80      	pop	{r7}
 8002142:	4770      	bx	lr
 8002144:	ffff0000 	.word	0xffff0000

08002148 <HAL_I2C_EV_IRQHandler>:
  * @param  hi2c Pointer to a I2C_HandleTypeDef structure that contains
  *                the configuration information for the specified I2C.
  * @retval None
  */
void HAL_I2C_EV_IRQHandler(I2C_HandleTypeDef *hi2c)
{
 8002148:	b580      	push	{r7, lr}
 800214a:	b088      	sub	sp, #32
 800214c:	af00      	add	r7, sp, #0
 800214e:	6078      	str	r0, [r7, #4]
  uint32_t sr1itflags;
  uint32_t sr2itflags               = 0U;
 8002150:	2300      	movs	r3, #0
 8002152:	61bb      	str	r3, [r7, #24]
  uint32_t itsources                = READ_REG(hi2c->Instance->CR2);
 8002154:	687b      	ldr	r3, [r7, #4]
 8002156:	681b      	ldr	r3, [r3, #0]
 8002158:	685b      	ldr	r3, [r3, #4]
 800215a:	617b      	str	r3, [r7, #20]
  uint32_t CurrentXferOptions       = hi2c->XferOptions;
 800215c:	687b      	ldr	r3, [r7, #4]
 800215e:	6adb      	ldr	r3, [r3, #44]	@ 0x2c
 8002160:	613b      	str	r3, [r7, #16]
  HAL_I2C_ModeTypeDef CurrentMode   = hi2c->Mode;
 8002162:	687b      	ldr	r3, [r7, #4]
 8002164:	f893 303e 	ldrb.w	r3, [r3, #62]	@ 0x3e
 8002168:	73fb      	strb	r3, [r7, #15]
  HAL_I2C_StateTypeDef CurrentState = hi2c->State;
 800216a:	687b      	ldr	r3, [r7, #4]
 800216c:	f893 303d 	ldrb.w	r3, [r3, #61]	@ 0x3d
 8002170:	73bb      	strb	r3, [r7, #14]

  /* Master or Memory mode selected */
  if ((CurrentMode == HAL_I2C_MODE_MASTER) || (CurrentMode == HAL_I2C_MODE_MEM))
 8002172:	7bfb      	ldrb	r3, [r7, #15]
 8002174:	2b10      	cmp	r3, #16
 8002176:	d003      	beq.n	8002180 <HAL_I2C_EV_IRQHandler+0x38>
 8002178:	7bfb      	ldrb	r3, [r7, #15]
 800217a:	2b40      	cmp	r3, #64	@ 0x40
 800217c:	f040 80c1 	bne.w	8002302 <HAL_I2C_EV_IRQHandler+0x1ba>
  {
    sr2itflags   = READ_REG(hi2c->Instance->SR2);
 8002180:	687b      	ldr	r3, [r7, #4]
 8002182:	681b      	ldr	r3, [r3, #0]
 8002184:	699b      	ldr	r3, [r3, #24]
 8002186:	61bb      	str	r3, [r7, #24]
    sr1itflags   = READ_REG(hi2c->Instance->SR1);
 8002188:	687b      	ldr	r3, [r7, #4]
 800218a:	681b      	ldr	r3, [r3, #0]
 800218c:	695b      	ldr	r3, [r3, #20]
 800218e:	61fb      	str	r3, [r7, #28]

    /* Exit IRQ event until Start Bit detected in case of Other frame requested */
    if ((I2C_CHECK_FLAG(sr1itflags, I2C_FLAG_SB) == RESET) && (IS_I2C_TRANSFER_OTHER_OPTIONS_REQUEST(CurrentXferOptions) == 1U))
 8002190:	69fb      	ldr	r3, [r7, #28]
 8002192:	f003 0301 	and.w	r3, r3, #1
 8002196:	2b00      	cmp	r3, #0
 8002198:	d10d      	bne.n	80021b6 <HAL_I2C_EV_IRQHandler+0x6e>
 800219a:	693b      	ldr	r3, [r7, #16]
 800219c:	f5b3 0f2a 	cmp.w	r3, #11141120	@ 0xaa0000
 80021a0:	d003      	beq.n	80021aa <HAL_I2C_EV_IRQHandler+0x62>
 80021a2:	693b      	ldr	r3, [r7, #16]
 80021a4:	f1b3 4f2a 	cmp.w	r3, #2852126720	@ 0xaa000000
 80021a8:	d101      	bne.n	80021ae <HAL_I2C_EV_IRQHandler+0x66>
 80021aa:	2301      	movs	r3, #1
 80021ac:	e000      	b.n	80021b0 <HAL_I2C_EV_IRQHandler+0x68>
 80021ae:	2300      	movs	r3, #0
 80021b0:	2b01      	cmp	r3, #1
 80021b2:	f000 8132 	beq.w	800241a <HAL_I2C_EV_IRQHandler+0x2d2>
    {
      return;
    }

    /* SB Set ----------------------------------------------------------------*/
    if ((I2C_CHECK_FLAG(sr1itflags, I2C_FLAG_SB) != RESET) && (I2C_CHECK_IT_SOURCE(itsources, I2C_IT_EVT) != RESET))
 80021b6:	69fb      	ldr	r3, [r7, #28]
 80021b8:	f003 0301 	and.w	r3, r3, #1
 80021bc:	2b00      	cmp	r3, #0
 80021be:	d00c      	beq.n	80021da <HAL_I2C_EV_IRQHandler+0x92>
 80021c0:	697b      	ldr	r3, [r7, #20]
 80021c2:	0a5b      	lsrs	r3, r3, #9
 80021c4:	f003 0301 	and.w	r3, r3, #1
 80021c8:	2b00      	cmp	r3, #0
 80021ca:	d006      	beq.n	80021da <HAL_I2C_EV_IRQHandler+0x92>
    {
      /* Convert OTHER_xxx XferOptions if any */
      I2C_ConvertOtherXferOptions(hi2c);
 80021cc:	6878      	ldr	r0, [r7, #4]
 80021ce:	f001 fc89 	bl	8003ae4 <I2C_ConvertOtherXferOptions>

      I2C_Master_SB(hi2c);
 80021d2:	6878      	ldr	r0, [r7, #4]
 80021d4:	f000 fd87 	bl	8002ce6 <I2C_Master_SB>
 80021d8:	e092      	b.n	8002300 <HAL_I2C_EV_IRQHandler+0x1b8>
    }
    /* ADD10 Set -------------------------------------------------------------*/
    else if ((I2C_CHECK_FLAG(sr1itflags, I2C_FLAG_ADD10) != RESET) && (I2C_CHECK_IT_SOURCE(itsources, I2C_IT_EVT) != RESET))
 80021da:	69fb      	ldr	r3, [r7, #28]
 80021dc:	08db      	lsrs	r3, r3, #3
 80021de:	f003 0301 	and.w	r3, r3, #1
 80021e2:	2b00      	cmp	r3, #0
 80021e4:	d009      	beq.n	80021fa <HAL_I2C_EV_IRQHandler+0xb2>
 80021e6:	697b      	ldr	r3, [r7, #20]
 80021e8:	0a5b      	lsrs	r3, r3, #9
 80021ea:	f003 0301 	and.w	r3, r3, #1
 80021ee:	2b00      	cmp	r3, #0
 80021f0:	d003      	beq.n	80021fa <HAL_I2C_EV_IRQHandler+0xb2>
    {
      I2C_Master_ADD10(hi2c);
 80021f2:	6878      	ldr	r0, [r7, #4]
 80021f4:	f000 fdfc 	bl	8002df0 <I2C_Master_ADD10>
 80021f8:	e082      	b.n	8002300 <HAL_I2C_EV_IRQHandler+0x1b8>
    }
    /* ADDR Set --------------------------------------------------------------*/
    else if ((I2C_CHECK_FLAG(sr1itflags, I2C_FLAG_ADDR) != RESET) && (I2C_CHECK_IT_SOURCE(itsources, I2C_IT_EVT) != RESET))
 80021fa:	69fb      	ldr	r3, [r7, #28]
 80021fc:	085b      	lsrs	r3, r3, #1
 80021fe:	f003 0301 	and.w	r3, r3, #1
 8002202:	2b00      	cmp	r3, #0
 8002204:	d009      	beq.n	800221a <HAL_I2C_EV_IRQHandler+0xd2>
 8002206:	697b      	ldr	r3, [r7, #20]
 8002208:	0a5b      	lsrs	r3, r3, #9
 800220a:	f003 0301 	and.w	r3, r3, #1
 800220e:	2b00      	cmp	r3, #0
 8002210:	d003      	beq.n	800221a <HAL_I2C_EV_IRQHandler+0xd2>
    {
      I2C_Master_ADDR(hi2c);
 8002212:	6878      	ldr	r0, [r7, #4]
 8002214:	f000 fe15 	bl	8002e42 <I2C_Master_ADDR>
 8002218:	e072      	b.n	8002300 <HAL_I2C_EV_IRQHandler+0x1b8>
    }
    /* I2C in mode Transmitter -----------------------------------------------*/
    else if (I2C_CHECK_FLAG(sr2itflags, I2C_FLAG_TRA) != RESET)
 800221a:	69bb      	ldr	r3, [r7, #24]
 800221c:	089b      	lsrs	r3, r3, #2
 800221e:	f003 0301 	and.w	r3, r3, #1
 8002222:	2b00      	cmp	r3, #0
 8002224:	d03b      	beq.n	800229e <HAL_I2C_EV_IRQHandler+0x156>
    {
      /* Do not check buffer and BTF flag if a Xfer DMA is on going */
      if (READ_BIT(hi2c->Instance->CR2, I2C_CR2_DMAEN) != I2C_CR2_DMAEN)
 8002226:	687b      	ldr	r3, [r7, #4]
 8002228:	681b      	ldr	r3, [r3, #0]
 800222a:	685b      	ldr	r3, [r3, #4]
 800222c:	f403 6300 	and.w	r3, r3, #2048	@ 0x800
 8002230:	f5b3 6f00 	cmp.w	r3, #2048	@ 0x800
 8002234:	f000 80f3 	beq.w	800241e <HAL_I2C_EV_IRQHandler+0x2d6>
      {
        /* TXE set and BTF reset -----------------------------------------------*/
        if ((I2C_CHECK_FLAG(sr1itflags, I2C_FLAG_TXE) != RESET) && (I2C_CHECK_IT_SOURCE(itsources, I2C_IT_BUF) != RESET) && (I2C_CHECK_FLAG(sr1itflags, I2C_FLAG_BTF) == RESET))
 8002238:	69fb      	ldr	r3, [r7, #28]
 800223a:	09db      	lsrs	r3, r3, #7
 800223c:	f003 0301 	and.w	r3, r3, #1
 8002240:	2b00      	cmp	r3, #0
 8002242:	d00f      	beq.n	8002264 <HAL_I2C_EV_IRQHandler+0x11c>
 8002244:	697b      	ldr	r3, [r7, #20]
 8002246:	0a9b      	lsrs	r3, r3, #10
 8002248:	f003 0301 	and.w	r3, r3, #1
 800224c:	2b00      	cmp	r3, #0
 800224e:	d009      	beq.n	8002264 <HAL_I2C_EV_IRQHandler+0x11c>
 8002250:	69fb      	ldr	r3, [r7, #28]
 8002252:	089b      	lsrs	r3, r3, #2
 8002254:	f003 0301 	and.w	r3, r3, #1
 8002258:	2b00      	cmp	r3, #0
 800225a:	d103      	bne.n	8002264 <HAL_I2C_EV_IRQHandler+0x11c>
        {
          I2C_MasterTransmit_TXE(hi2c);
 800225c:	6878      	ldr	r0, [r7, #4]
 800225e:	f000 f9df 	bl	8002620 <I2C_MasterTransmit_TXE>
 8002262:	e04d      	b.n	8002300 <HAL_I2C_EV_IRQHandler+0x1b8>
        }
        /* BTF set -------------------------------------------------------------*/
        else if ((I2C_CHECK_FLAG(sr1itflags, I2C_FLAG_BTF) != RESET) && (I2C_CHECK_IT_SOURCE(itsources, I2C_IT_EVT) != RESET))
 8002264:	69fb      	ldr	r3, [r7, #28]
 8002266:	089b      	lsrs	r3, r3, #2
 8002268:	f003 0301 	and.w	r3, r3, #1
 800226c:	2b00      	cmp	r3, #0
 800226e:	f000 80d6 	beq.w	800241e <HAL_I2C_EV_IRQHandler+0x2d6>
 8002272:	697b      	ldr	r3, [r7, #20]
 8002274:	0a5b      	lsrs	r3, r3, #9
 8002276:	f003 0301 	and.w	r3, r3, #1
 800227a:	2b00      	cmp	r3, #0
 800227c:	f000 80cf 	beq.w	800241e <HAL_I2C_EV_IRQHandler+0x2d6>
        {
          if (CurrentState == HAL_I2C_STATE_BUSY_TX)
 8002280:	7bbb      	ldrb	r3, [r7, #14]
 8002282:	2b21      	cmp	r3, #33	@ 0x21
 8002284:	d103      	bne.n	800228e <HAL_I2C_EV_IRQHandler+0x146>
          {
            I2C_MasterTransmit_BTF(hi2c);
 8002286:	6878      	ldr	r0, [r7, #4]
 8002288:	f000 fa66 	bl	8002758 <I2C_MasterTransmit_BTF>
    if ((I2C_CHECK_FLAG(sr1itflags, I2C_FLAG_SB) != RESET) && (I2C_CHECK_IT_SOURCE(itsources, I2C_IT_EVT) != RESET))
 800228c:	e0c7      	b.n	800241e <HAL_I2C_EV_IRQHandler+0x2d6>
          }
          else /* HAL_I2C_MODE_MEM */
          {
            if (CurrentMode == HAL_I2C_MODE_MEM)
 800228e:	7bfb      	ldrb	r3, [r7, #15]
 8002290:	2b40      	cmp	r3, #64	@ 0x40
 8002292:	f040 80c4 	bne.w	800241e <HAL_I2C_EV_IRQHandler+0x2d6>
            {
              I2C_MemoryTransmit_TXE_BTF(hi2c);
 8002296:	6878      	ldr	r0, [r7, #4]
 8002298:	f000 fad4 	bl	8002844 <I2C_MemoryTransmit_TXE_BTF>
    if ((I2C_CHECK_FLAG(sr1itflags, I2C_FLAG_SB) != RESET) && (I2C_CHECK_IT_SOURCE(itsources, I2C_IT_EVT) != RESET))
 800229c:	e0bf      	b.n	800241e <HAL_I2C_EV_IRQHandler+0x2d6>
    }
    /* I2C in mode Receiver --------------------------------------------------*/
    else
    {
      /* Do not check buffer and BTF flag if a Xfer DMA is on going */
      if (READ_BIT(hi2c->Instance->CR2, I2C_CR2_DMAEN) != I2C_CR2_DMAEN)
 800229e:	687b      	ldr	r3, [r7, #4]
 80022a0:	681b      	ldr	r3, [r3, #0]
 80022a2:	685b      	ldr	r3, [r3, #4]
 80022a4:	f403 6300 	and.w	r3, r3, #2048	@ 0x800
 80022a8:	f5b3 6f00 	cmp.w	r3, #2048	@ 0x800
 80022ac:	f000 80b7 	beq.w	800241e <HAL_I2C_EV_IRQHandler+0x2d6>
      {
        /* RXNE set and BTF reset -----------------------------------------------*/
        if ((I2C_CHECK_FLAG(sr1itflags, I2C_FLAG_RXNE) != RESET) && (I2C_CHECK_IT_SOURCE(itsources, I2C_IT_BUF) != RESET) && (I2C_CHECK_FLAG(sr1itflags, I2C_FLAG_BTF) == RESET))
 80022b0:	69fb      	ldr	r3, [r7, #28]
 80022b2:	099b      	lsrs	r3, r3, #6
 80022b4:	f003 0301 	and.w	r3, r3, #1
 80022b8:	2b00      	cmp	r3, #0
 80022ba:	d00f      	beq.n	80022dc <HAL_I2C_EV_IRQHandler+0x194>
 80022bc:	697b      	ldr	r3, [r7, #20]
 80022be:	0a9b      	lsrs	r3, r3, #10
 80022c0:	f003 0301 	and.w	r3, r3, #1
 80022c4:	2b00      	cmp	r3, #0
 80022c6:	d009      	beq.n	80022dc <HAL_I2C_EV_IRQHandler+0x194>
 80022c8:	69fb      	ldr	r3, [r7, #28]
 80022ca:	089b      	lsrs	r3, r3, #2
 80022cc:	f003 0301 	and.w	r3, r3, #1
 80022d0:	2b00      	cmp	r3, #0
 80022d2:	d103      	bne.n	80022dc <HAL_I2C_EV_IRQHandler+0x194>
        {
          I2C_MasterReceive_RXNE(hi2c);
 80022d4:	6878      	ldr	r0, [r7, #4]
 80022d6:	f000 fb4d 	bl	8002974 <I2C_MasterReceive_RXNE>
 80022da:	e011      	b.n	8002300 <HAL_I2C_EV_IRQHandler+0x1b8>
        }
        /* BTF set -------------------------------------------------------------*/
        else if ((I2C_CHECK_FLAG(sr1itflags, I2C_FLAG_BTF) != RESET) && (I2C_CHECK_IT_SOURCE(itsources, I2C_IT_EVT) != RESET))
 80022dc:	69fb      	ldr	r3, [r7, #28]
 80022de:	089b      	lsrs	r3, r3, #2
 80022e0:	f003 0301 	and.w	r3, r3, #1
 80022e4:	2b00      	cmp	r3, #0
 80022e6:	f000 809a 	beq.w	800241e <HAL_I2C_EV_IRQHandler+0x2d6>
 80022ea:	697b      	ldr	r3, [r7, #20]
 80022ec:	0a5b      	lsrs	r3, r3, #9
 80022ee:	f003 0301 	and.w	r3, r3, #1
 80022f2:	2b00      	cmp	r3, #0
 80022f4:	f000 8093 	beq.w	800241e <HAL_I2C_EV_IRQHandler+0x2d6>
        {
          I2C_MasterReceive_BTF(hi2c);
 80022f8:	6878      	ldr	r0, [r7, #4]
 80022fa:	f000 fc03 	bl	8002b04 <I2C_MasterReceive_BTF>
    if ((I2C_CHECK_FLAG(sr1itflags, I2C_FLAG_SB) != RESET) && (I2C_CHECK_IT_SOURCE(itsources, I2C_IT_EVT) != RESET))
 80022fe:	e08e      	b.n	800241e <HAL_I2C_EV_IRQHandler+0x2d6>
 8002300:	e08d      	b.n	800241e <HAL_I2C_EV_IRQHandler+0x2d6>
  /* Slave mode selected */
  else
  {
    /* If an error is detected, read only SR1 register to prevent */
    /* a clear of ADDR flags by reading SR2 after reading SR1 in Error treatment */
    if (hi2c->ErrorCode != HAL_I2C_ERROR_NONE)
 8002302:	687b      	ldr	r3, [r7, #4]
 8002304:	6c1b      	ldr	r3, [r3, #64]	@ 0x40
 8002306:	2b00      	cmp	r3, #0
 8002308:	d004      	beq.n	8002314 <HAL_I2C_EV_IRQHandler+0x1cc>
    {
      sr1itflags   = READ_REG(hi2c->Instance->SR1);
 800230a:	687b      	ldr	r3, [r7, #4]
 800230c:	681b      	ldr	r3, [r3, #0]
 800230e:	695b      	ldr	r3, [r3, #20]
 8002310:	61fb      	str	r3, [r7, #28]
 8002312:	e007      	b.n	8002324 <HAL_I2C_EV_IRQHandler+0x1dc>
    }
    else
    {
      sr2itflags   = READ_REG(hi2c->Instance->SR2);
 8002314:	687b      	ldr	r3, [r7, #4]
 8002316:	681b      	ldr	r3, [r3, #0]
 8002318:	699b      	ldr	r3, [r3, #24]
 800231a:	61bb      	str	r3, [r7, #24]
      sr1itflags   = READ_REG(hi2c->Instance->SR1);
 800231c:	687b      	ldr	r3, [r7, #4]
 800231e:	681b      	ldr	r3, [r3, #0]
 8002320:	695b      	ldr	r3, [r3, #20]
 8002322:	61fb      	str	r3, [r7, #28]
    }

    /* ADDR set --------------------------------------------------------------*/
    if ((I2C_CHECK_FLAG(sr1itflags, I2C_FLAG_ADDR) != RESET) && (I2C_CHECK_IT_SOURCE(itsources, I2C_IT_EVT) != RESET))
 8002324:	69fb      	ldr	r3, [r7, #28]
 8002326:	085b      	lsrs	r3, r3, #1
 8002328:	f003 0301 	and.w	r3, r3, #1
 800232c:	2b00      	cmp	r3, #0
 800232e:	d012      	beq.n	8002356 <HAL_I2C_EV_IRQHandler+0x20e>
 8002330:	697b      	ldr	r3, [r7, #20]
 8002332:	0a5b      	lsrs	r3, r3, #9
 8002334:	f003 0301 	and.w	r3, r3, #1
 8002338:	2b00      	cmp	r3, #0
 800233a:	d00c      	beq.n	8002356 <HAL_I2C_EV_IRQHandler+0x20e>
    {
      /* Now time to read SR2, this will clear ADDR flag automatically */
      if (hi2c->ErrorCode != HAL_I2C_ERROR_NONE)
 800233c:	687b      	ldr	r3, [r7, #4]
 800233e:	6c1b      	ldr	r3, [r3, #64]	@ 0x40
 8002340:	2b00      	cmp	r3, #0
 8002342:	d003      	beq.n	800234c <HAL_I2C_EV_IRQHandler+0x204>
      {
        sr2itflags   = READ_REG(hi2c->Instance->SR2);
 8002344:	687b      	ldr	r3, [r7, #4]
 8002346:	681b      	ldr	r3, [r3, #0]
 8002348:	699b      	ldr	r3, [r3, #24]
 800234a:	61bb      	str	r3, [r7, #24]
      }
      I2C_Slave_ADDR(hi2c, sr2itflags);
 800234c:	69b9      	ldr	r1, [r7, #24]
 800234e:	6878      	ldr	r0, [r7, #4]
 8002350:	f000 ffce 	bl	80032f0 <I2C_Slave_ADDR>
 8002354:	e066      	b.n	8002424 <HAL_I2C_EV_IRQHandler+0x2dc>
    }
    /* STOPF set --------------------------------------------------------------*/
    else if ((I2C_CHECK_FLAG(sr1itflags, I2C_FLAG_STOPF) != RESET) && (I2C_CHECK_IT_SOURCE(itsources, I2C_IT_EVT) != RESET))
 8002356:	69fb      	ldr	r3, [r7, #28]
 8002358:	091b      	lsrs	r3, r3, #4
 800235a:	f003 0301 	and.w	r3, r3, #1
 800235e:	2b00      	cmp	r3, #0
 8002360:	d009      	beq.n	8002376 <HAL_I2C_EV_IRQHandler+0x22e>
 8002362:	697b      	ldr	r3, [r7, #20]
 8002364:	0a5b      	lsrs	r3, r3, #9
 8002366:	f003 0301 	and.w	r3, r3, #1
 800236a:	2b00      	cmp	r3, #0
 800236c:	d003      	beq.n	8002376 <HAL_I2C_EV_IRQHandler+0x22e>
    {
      I2C_Slave_STOPF(hi2c);
 800236e:	6878      	ldr	r0, [r7, #4]
 8002370:	f001 f808 	bl	8003384 <I2C_Slave_STOPF>
 8002374:	e056      	b.n	8002424 <HAL_I2C_EV_IRQHandler+0x2dc>
    }
    /* I2C in mode Transmitter -----------------------------------------------*/
    else if ((CurrentState == HAL_I2C_STATE_BUSY_TX) || (CurrentState == HAL_I2C_STATE_BUSY_TX_LISTEN))
 8002376:	7bbb      	ldrb	r3, [r7, #14]
 8002378:	2b21      	cmp	r3, #33	@ 0x21
 800237a:	d002      	beq.n	8002382 <HAL_I2C_EV_IRQHandler+0x23a>
 800237c:	7bbb      	ldrb	r3, [r7, #14]
 800237e:	2b29      	cmp	r3, #41	@ 0x29
 8002380:	d125      	bne.n	80023ce <HAL_I2C_EV_IRQHandler+0x286>
    {
      /* TXE set and BTF reset -----------------------------------------------*/
      if ((I2C_CHECK_FLAG(sr1itflags, I2C_FLAG_TXE) != RESET) && (I2C_CHECK_IT_SOURCE(itsources, I2C_IT_BUF) != RESET) && (I2C_CHECK_FLAG(sr1itflags, I2C_FLAG_BTF) == RESET))
 8002382:	69fb      	ldr	r3, [r7, #28]
 8002384:	09db      	lsrs	r3, r3, #7
 8002386:	f003 0301 	and.w	r3, r3, #1
 800238a:	2b00      	cmp	r3, #0
 800238c:	d00f      	beq.n	80023ae <HAL_I2C_EV_IRQHandler+0x266>
 800238e:	697b      	ldr	r3, [r7, #20]
 8002390:	0a9b      	lsrs	r3, r3, #10
 8002392:	f003 0301 	and.w	r3, r3, #1
 8002396:	2b00      	cmp	r3, #0
 8002398:	d009      	beq.n	80023ae <HAL_I2C_EV_IRQHandler+0x266>
 800239a:	69fb      	ldr	r3, [r7, #28]
 800239c:	089b      	lsrs	r3, r3, #2
 800239e:	f003 0301 	and.w	r3, r3, #1
 80023a2:	2b00      	cmp	r3, #0
 80023a4:	d103      	bne.n	80023ae <HAL_I2C_EV_IRQHandler+0x266>
      {
        I2C_SlaveTransmit_TXE(hi2c);
 80023a6:	6878      	ldr	r0, [r7, #4]
 80023a8:	f000 fee6 	bl	8003178 <I2C_SlaveTransmit_TXE>
      if ((I2C_CHECK_FLAG(sr1itflags, I2C_FLAG_TXE) != RESET) && (I2C_CHECK_IT_SOURCE(itsources, I2C_IT_BUF) != RESET) && (I2C_CHECK_FLAG(sr1itflags, I2C_FLAG_BTF) == RESET))
 80023ac:	e039      	b.n	8002422 <HAL_I2C_EV_IRQHandler+0x2da>
      }
      /* BTF set -------------------------------------------------------------*/
      else if ((I2C_CHECK_FLAG(sr1itflags, I2C_FLAG_BTF) != RESET) && (I2C_CHECK_IT_SOURCE(itsources, I2C_IT_EVT) != RESET))
 80023ae:	69fb      	ldr	r3, [r7, #28]
 80023b0:	089b      	lsrs	r3, r3, #2
 80023b2:	f003 0301 	and.w	r3, r3, #1
 80023b6:	2b00      	cmp	r3, #0
 80023b8:	d033      	beq.n	8002422 <HAL_I2C_EV_IRQHandler+0x2da>
 80023ba:	697b      	ldr	r3, [r7, #20]
 80023bc:	0a5b      	lsrs	r3, r3, #9
 80023be:	f003 0301 	and.w	r3, r3, #1
 80023c2:	2b00      	cmp	r3, #0
 80023c4:	d02d      	beq.n	8002422 <HAL_I2C_EV_IRQHandler+0x2da>
      {
        I2C_SlaveTransmit_BTF(hi2c);
 80023c6:	6878      	ldr	r0, [r7, #4]
 80023c8:	f000 ff13 	bl	80031f2 <I2C_SlaveTransmit_BTF>
      if ((I2C_CHECK_FLAG(sr1itflags, I2C_FLAG_TXE) != RESET) && (I2C_CHECK_IT_SOURCE(itsources, I2C_IT_BUF) != RESET) && (I2C_CHECK_FLAG(sr1itflags, I2C_FLAG_BTF) == RESET))
 80023cc:	e029      	b.n	8002422 <HAL_I2C_EV_IRQHandler+0x2da>
    }
    /* I2C in mode Receiver --------------------------------------------------*/
    else
    {
      /* RXNE set and BTF reset ----------------------------------------------*/
      if ((I2C_CHECK_FLAG(sr1itflags, I2C_FLAG_RXNE) != RESET) && (I2C_CHECK_IT_SOURCE(itsources, I2C_IT_BUF) != RESET) && (I2C_CHECK_FLAG(sr1itflags, I2C_FLAG_BTF) == RESET))
 80023ce:	69fb      	ldr	r3, [r7, #28]
 80023d0:	099b      	lsrs	r3, r3, #6
 80023d2:	f003 0301 	and.w	r3, r3, #1
 80023d6:	2b00      	cmp	r3, #0
 80023d8:	d00f      	beq.n	80023fa <HAL_I2C_EV_IRQHandler+0x2b2>
 80023da:	697b      	ldr	r3, [r7, #20]
 80023dc:	0a9b      	lsrs	r3, r3, #10
 80023de:	f003 0301 	and.w	r3, r3, #1
 80023e2:	2b00      	cmp	r3, #0
 80023e4:	d009      	beq.n	80023fa <HAL_I2C_EV_IRQHandler+0x2b2>
 80023e6:	69fb      	ldr	r3, [r7, #28]
 80023e8:	089b      	lsrs	r3, r3, #2
 80023ea:	f003 0301 	and.w	r3, r3, #1
 80023ee:	2b00      	cmp	r3, #0
 80023f0:	d103      	bne.n	80023fa <HAL_I2C_EV_IRQHandler+0x2b2>
      {
        I2C_SlaveReceive_RXNE(hi2c);
 80023f2:	6878      	ldr	r0, [r7, #4]
 80023f4:	f000 ff1d 	bl	8003232 <I2C_SlaveReceive_RXNE>
 80023f8:	e014      	b.n	8002424 <HAL_I2C_EV_IRQHandler+0x2dc>
      }
      /* BTF set -------------------------------------------------------------*/
      else if ((I2C_CHECK_FLAG(sr1itflags, I2C_FLAG_BTF) != RESET) && (I2C_CHECK_IT_SOURCE(itsources, I2C_IT_EVT) != RESET))
 80023fa:	69fb      	ldr	r3, [r7, #28]
 80023fc:	089b      	lsrs	r3, r3, #2
 80023fe:	f003 0301 	and.w	r3, r3, #1
 8002402:	2b00      	cmp	r3, #0
 8002404:	d00e      	beq.n	8002424 <HAL_I2C_EV_IRQHandler+0x2dc>
 8002406:	697b      	ldr	r3, [r7, #20]
 8002408:	0a5b      	lsrs	r3, r3, #9
 800240a:	f003 0301 	and.w	r3, r3, #1
 800240e:	2b00      	cmp	r3, #0
 8002410:	d008      	beq.n	8002424 <HAL_I2C_EV_IRQHandler+0x2dc>
      {
        I2C_SlaveReceive_BTF(hi2c);
 8002412:	6878      	ldr	r0, [r7, #4]
 8002414:	f000 ff4b 	bl	80032ae <I2C_SlaveReceive_BTF>
 8002418:	e004      	b.n	8002424 <HAL_I2C_EV_IRQHandler+0x2dc>
      return;
 800241a:	bf00      	nop
 800241c:	e002      	b.n	8002424 <HAL_I2C_EV_IRQHandler+0x2dc>
    if ((I2C_CHECK_FLAG(sr1itflags, I2C_FLAG_SB) != RESET) && (I2C_CHECK_IT_SOURCE(itsources, I2C_IT_EVT) != RESET))
 800241e:	bf00      	nop
 8002420:	e000      	b.n	8002424 <HAL_I2C_EV_IRQHandler+0x2dc>
      if ((I2C_CHECK_FLAG(sr1itflags, I2C_FLAG_TXE) != RESET) && (I2C_CHECK_IT_SOURCE(itsources, I2C_IT_BUF) != RESET) && (I2C_CHECK_FLAG(sr1itflags, I2C_FLAG_BTF) == RESET))
 8002422:	bf00      	nop
      {
        /* Do nothing */
      }
    }
  }
}
 8002424:	3720      	adds	r7, #32
 8002426:	46bd      	mov	sp, r7
 8002428:	bd80      	pop	{r7, pc}

0800242a <HAL_I2C_ER_IRQHandler>:
  * @param  hi2c Pointer to a I2C_HandleTypeDef structure that contains
  *                the configuration information for the specified I2C.
  * @retval None
  */
void HAL_I2C_ER_IRQHandler(I2C_HandleTypeDef *hi2c)
{
 800242a:	b580      	push	{r7, lr}
 800242c:	b08a      	sub	sp, #40	@ 0x28
 800242e:	af00      	add	r7, sp, #0
 8002430:	6078      	str	r0, [r7, #4]
  HAL_I2C_ModeTypeDef tmp1;
  uint32_t tmp2;
  HAL_I2C_StateTypeDef tmp3;
  uint32_t tmp4;
  uint32_t sr1itflags = READ_REG(hi2c->Instance->SR1);
 8002432:	687b      	ldr	r3, [r7, #4]
 8002434:	681b      	ldr	r3, [r3, #0]
 8002436:	695b      	ldr	r3, [r3, #20]
 8002438:	623b      	str	r3, [r7, #32]
  uint32_t itsources  = READ_REG(hi2c->Instance->CR2);
 800243a:	687b      	ldr	r3, [r7, #4]
 800243c:	681b      	ldr	r3, [r3, #0]
 800243e:	685b      	ldr	r3, [r3, #4]
 8002440:	61fb      	str	r3, [r7, #28]
  uint32_t error      = HAL_I2C_ERROR_NONE;
 8002442:	2300      	movs	r3, #0
 8002444:	627b      	str	r3, [r7, #36]	@ 0x24
  HAL_I2C_ModeTypeDef CurrentMode   = hi2c->Mode;
 8002446:	687b      	ldr	r3, [r7, #4]
 8002448:	f893 303e 	ldrb.w	r3, [r3, #62]	@ 0x3e
 800244c:	76fb      	strb	r3, [r7, #27]

  /* I2C Bus error interrupt occurred ----------------------------------------*/
  if ((I2C_CHECK_FLAG(sr1itflags, I2C_FLAG_BERR) != RESET) && (I2C_CHECK_IT_SOURCE(itsources, I2C_IT_ERR) != RESET))
 800244e:	6a3b      	ldr	r3, [r7, #32]
 8002450:	0a1b      	lsrs	r3, r3, #8
 8002452:	f003 0301 	and.w	r3, r3, #1
 8002456:	2b00      	cmp	r3, #0
 8002458:	d016      	beq.n	8002488 <HAL_I2C_ER_IRQHandler+0x5e>
 800245a:	69fb      	ldr	r3, [r7, #28]
 800245c:	0a1b      	lsrs	r3, r3, #8
 800245e:	f003 0301 	and.w	r3, r3, #1
 8002462:	2b00      	cmp	r3, #0
 8002464:	d010      	beq.n	8002488 <HAL_I2C_ER_IRQHandler+0x5e>
  {
    error |= HAL_I2C_ERROR_BERR;
 8002466:	6a7b      	ldr	r3, [r7, #36]	@ 0x24
 8002468:	f043 0301 	orr.w	r3, r3, #1
 800246c:	627b      	str	r3, [r7, #36]	@ 0x24

    /* Clear BERR flag */
    __HAL_I2C_CLEAR_FLAG(hi2c, I2C_FLAG_BERR);
 800246e:	687b      	ldr	r3, [r7, #4]
 8002470:	681b      	ldr	r3, [r3, #0]
 8002472:	f46f 7280 	mvn.w	r2, #256	@ 0x100
 8002476:	615a      	str	r2, [r3, #20]

    /* Workaround: Start cannot be generated after a misplaced Stop */
    SET_BIT(hi2c->Instance->CR1, I2C_CR1_SWRST);
 8002478:	687b      	ldr	r3, [r7, #4]
 800247a:	681b      	ldr	r3, [r3, #0]
 800247c:	681a      	ldr	r2, [r3, #0]
 800247e:	687b      	ldr	r3, [r7, #4]
 8002480:	681b      	ldr	r3, [r3, #0]
 8002482:	f442 4200 	orr.w	r2, r2, #32768	@ 0x8000
 8002486:	601a      	str	r2, [r3, #0]
  }

  /* I2C Arbitration Lost error interrupt occurred ---------------------------*/
  if ((I2C_CHECK_FLAG(sr1itflags, I2C_FLAG_ARLO) != RESET) && (I2C_CHECK_IT_SOURCE(itsources, I2C_IT_ERR) != RESET))
 8002488:	6a3b      	ldr	r3, [r7, #32]
 800248a:	0a5b      	lsrs	r3, r3, #9
 800248c:	f003 0301 	and.w	r3, r3, #1
 8002490:	2b00      	cmp	r3, #0
 8002492:	d00e      	beq.n	80024b2 <HAL_I2C_ER_IRQHandler+0x88>
 8002494:	69fb      	ldr	r3, [r7, #28]
 8002496:	0a1b      	lsrs	r3, r3, #8
 8002498:	f003 0301 	and.w	r3, r3, #1
 800249c:	2b00      	cmp	r3, #0
 800249e:	d008      	beq.n	80024b2 <HAL_I2C_ER_IRQHandler+0x88>
  {
    error |= HAL_I2C_ERROR_ARLO;
 80024a0:	6a7b      	ldr	r3, [r7, #36]	@ 0x24
 80024a2:	f043 0302 	orr.w	r3, r3, #2
 80024a6:	627b      	str	r3, [r7, #36]	@ 0x24

    /* Clear ARLO flag */
    __HAL_I2C_CLEAR_FLAG(hi2c, I2C_FLAG_ARLO);
 80024a8:	687b      	ldr	r3, [r7, #4]
 80024aa:	681b      	ldr	r3, [r3, #0]
 80024ac:	f46f 7200 	mvn.w	r2, #512	@ 0x200
 80024b0:	615a      	str	r2, [r3, #20]
  }

  /* I2C Acknowledge failure error interrupt occurred ------------------------*/
  if ((I2C_CHECK_FLAG(sr1itflags, I2C_FLAG_AF) != RESET) && (I2C_CHECK_IT_SOURCE(itsources, I2C_IT_ERR) != RESET))
 80024b2:	6a3b      	ldr	r3, [r7, #32]
 80024b4:	0a9b      	lsrs	r3, r3, #10
 80024b6:	f003 0301 	and.w	r3, r3, #1
 80024ba:	2b00      	cmp	r3, #0
 80024bc:	d03f      	beq.n	800253e <HAL_I2C_ER_IRQHandler+0x114>
 80024be:	69fb      	ldr	r3, [r7, #28]
 80024c0:	0a1b      	lsrs	r3, r3, #8
 80024c2:	f003 0301 	and.w	r3, r3, #1
 80024c6:	2b00      	cmp	r3, #0
 80024c8:	d039      	beq.n	800253e <HAL_I2C_ER_IRQHandler+0x114>
  {
    tmp1 = CurrentMode;
 80024ca:	7efb      	ldrb	r3, [r7, #27]
 80024cc:	76bb      	strb	r3, [r7, #26]
    tmp2 = hi2c->XferCount;
 80024ce:	687b      	ldr	r3, [r7, #4]
 80024d0:	8d5b      	ldrh	r3, [r3, #42]	@ 0x2a
 80024d2:	b29b      	uxth	r3, r3
 80024d4:	617b      	str	r3, [r7, #20]
    tmp3 = hi2c->State;
 80024d6:	687b      	ldr	r3, [r7, #4]
 80024d8:	f893 303d 	ldrb.w	r3, [r3, #61]	@ 0x3d
 80024dc:	74fb      	strb	r3, [r7, #19]
    tmp4 = hi2c->PreviousState;
 80024de:	687b      	ldr	r3, [r7, #4]
 80024e0:	6b1b      	ldr	r3, [r3, #48]	@ 0x30
 80024e2:	60fb      	str	r3, [r7, #12]
    if ((tmp1 == HAL_I2C_MODE_SLAVE) && (tmp2 == 0U) && \
 80024e4:	7ebb      	ldrb	r3, [r7, #26]
 80024e6:	2b20      	cmp	r3, #32
 80024e8:	d112      	bne.n	8002510 <HAL_I2C_ER_IRQHandler+0xe6>
 80024ea:	697b      	ldr	r3, [r7, #20]
 80024ec:	2b00      	cmp	r3, #0
 80024ee:	d10f      	bne.n	8002510 <HAL_I2C_ER_IRQHandler+0xe6>
 80024f0:	7cfb      	ldrb	r3, [r7, #19]
 80024f2:	2b21      	cmp	r3, #33	@ 0x21
 80024f4:	d008      	beq.n	8002508 <HAL_I2C_ER_IRQHandler+0xde>
        ((tmp3 == HAL_I2C_STATE_BUSY_TX) || (tmp3 == HAL_I2C_STATE_BUSY_TX_LISTEN) || \
 80024f6:	7cfb      	ldrb	r3, [r7, #19]
 80024f8:	2b29      	cmp	r3, #41	@ 0x29
 80024fa:	d005      	beq.n	8002508 <HAL_I2C_ER_IRQHandler+0xde>
 80024fc:	7cfb      	ldrb	r3, [r7, #19]
 80024fe:	2b28      	cmp	r3, #40	@ 0x28
 8002500:	d106      	bne.n	8002510 <HAL_I2C_ER_IRQHandler+0xe6>
         ((tmp3 == HAL_I2C_STATE_LISTEN) && (tmp4 == I2C_STATE_SLAVE_BUSY_TX))))
 8002502:	68fb      	ldr	r3, [r7, #12]
 8002504:	2b21      	cmp	r3, #33	@ 0x21
 8002506:	d103      	bne.n	8002510 <HAL_I2C_ER_IRQHandler+0xe6>
    {
      I2C_Slave_AF(hi2c);
 8002508:	6878      	ldr	r0, [r7, #4]
 800250a:	f001 f86b 	bl	80035e4 <I2C_Slave_AF>
 800250e:	e016      	b.n	800253e <HAL_I2C_ER_IRQHandler+0x114>
    }
    else
    {
      /* Clear AF flag */
      __HAL_I2C_CLEAR_FLAG(hi2c, I2C_FLAG_AF);
 8002510:	687b      	ldr	r3, [r7, #4]
 8002512:	681b      	ldr	r3, [r3, #0]
 8002514:	f46f 6280 	mvn.w	r2, #1024	@ 0x400
 8002518:	615a      	str	r2, [r3, #20]

      error |= HAL_I2C_ERROR_AF;
 800251a:	6a7b      	ldr	r3, [r7, #36]	@ 0x24
 800251c:	f043 0304 	orr.w	r3, r3, #4
 8002520:	627b      	str	r3, [r7, #36]	@ 0x24

      /* Do not generate a STOP in case of Slave receive non acknowledge during transfer (mean not at the end of transfer) */
      if ((CurrentMode == HAL_I2C_MODE_MASTER) || (CurrentMode == HAL_I2C_MODE_MEM))
 8002522:	7efb      	ldrb	r3, [r7, #27]
 8002524:	2b10      	cmp	r3, #16
 8002526:	d002      	beq.n	800252e <HAL_I2C_ER_IRQHandler+0x104>
 8002528:	7efb      	ldrb	r3, [r7, #27]
 800252a:	2b40      	cmp	r3, #64	@ 0x40
 800252c:	d107      	bne.n	800253e <HAL_I2C_ER_IRQHandler+0x114>
      {
        /* Generate Stop */
        SET_BIT(hi2c->Instance->CR1, I2C_CR1_STOP);
 800252e:	687b      	ldr	r3, [r7, #4]
 8002530:	681b      	ldr	r3, [r3, #0]
 8002532:	681a      	ldr	r2, [r3, #0]
 8002534:	687b      	ldr	r3, [r7, #4]
 8002536:	681b      	ldr	r3, [r3, #0]
 8002538:	f442 7200 	orr.w	r2, r2, #512	@ 0x200
 800253c:	601a      	str	r2, [r3, #0]
      }
    }
  }

  /* I2C Over-Run/Under-Run interrupt occurred -------------------------------*/
  if ((I2C_CHECK_FLAG(sr1itflags, I2C_FLAG_OVR) != RESET) && (I2C_CHECK_IT_SOURCE(itsources, I2C_IT_ERR) != RESET))
 800253e:	6a3b      	ldr	r3, [r7, #32]
 8002540:	0adb      	lsrs	r3, r3, #11
 8002542:	f003 0301 	and.w	r3, r3, #1
 8002546:	2b00      	cmp	r3, #0
 8002548:	d00e      	beq.n	8002568 <HAL_I2C_ER_IRQHandler+0x13e>
 800254a:	69fb      	ldr	r3, [r7, #28]
 800254c:	0a1b      	lsrs	r3, r3, #8
 800254e:	f003 0301 	and.w	r3, r3, #1
 8002552:	2b00      	cmp	r3, #0
 8002554:	d008      	beq.n	8002568 <HAL_I2C_ER_IRQHandler+0x13e>
  {
    error |= HAL_I2C_ERROR_OVR;
 8002556:	6a7b      	ldr	r3, [r7, #36]	@ 0x24
 8002558:	f043 0308 	orr.w	r3, r3, #8
 800255c:	627b      	str	r3, [r7, #36]	@ 0x24
    /* Clear OVR flag */
    __HAL_I2C_CLEAR_FLAG(hi2c, I2C_FLAG_OVR);
 800255e:	687b      	ldr	r3, [r7, #4]
 8002560:	681b      	ldr	r3, [r3, #0]
 8002562:	f46f 6200 	mvn.w	r2, #2048	@ 0x800
 8002566:	615a      	str	r2, [r3, #20]
  }

  /* Call the Error Callback in case of Error detected -----------------------*/
  if (error != HAL_I2C_ERROR_NONE)
 8002568:	6a7b      	ldr	r3, [r7, #36]	@ 0x24
 800256a:	2b00      	cmp	r3, #0
 800256c:	d008      	beq.n	8002580 <HAL_I2C_ER_IRQHandler+0x156>
  {
    hi2c->ErrorCode |= error;
 800256e:	687b      	ldr	r3, [r7, #4]
 8002570:	6c1a      	ldr	r2, [r3, #64]	@ 0x40
 8002572:	6a7b      	ldr	r3, [r7, #36]	@ 0x24
 8002574:	431a      	orrs	r2, r3
 8002576:	687b      	ldr	r3, [r7, #4]
 8002578:	641a      	str	r2, [r3, #64]	@ 0x40
    I2C_ITError(hi2c);
 800257a:	6878      	ldr	r0, [r7, #4]
 800257c:	f001 f8a6 	bl	80036cc <I2C_ITError>
  }
}
 8002580:	bf00      	nop
 8002582:	3728      	adds	r7, #40	@ 0x28
 8002584:	46bd      	mov	sp, r7
 8002586:	bd80      	pop	{r7, pc}

08002588 <HAL_I2C_MasterTxCpltCallback>:
  * @param  hi2c Pointer to a I2C_HandleTypeDef structure that contains
  *                the configuration information for the specified I2C.
  * @retval None
  */
__weak void HAL_I2C_MasterTxCpltCallback(I2C_HandleTypeDef *hi2c)
{
 8002588:	b480      	push	{r7}
 800258a:	b083      	sub	sp, #12
 800258c:	af00      	add	r7, sp, #0
 800258e:	6078      	str	r0, [r7, #4]
  UNUSED(hi2c);

  /* NOTE : This function should not be modified, when the callback is needed,
            the HAL_I2C_MasterTxCpltCallback could be implemented in the user file
   */
}
 8002590:	bf00      	nop
 8002592:	370c      	adds	r7, #12
 8002594:	46bd      	mov	sp, r7
 8002596:	bc80      	pop	{r7}
 8002598:	4770      	bx	lr

0800259a <HAL_I2C_MasterRxCpltCallback>:
  * @param  hi2c Pointer to a I2C_HandleTypeDef structure that contains
  *                the configuration information for the specified I2C.
  * @retval None
  */
__weak void HAL_I2C_MasterRxCpltCallback(I2C_HandleTypeDef *hi2c)
{
 800259a:	b480      	push	{r7}
 800259c:	b083      	sub	sp, #12
 800259e:	af00      	add	r7, sp, #0
 80025a0:	6078      	str	r0, [r7, #4]
  UNUSED(hi2c);

  /* NOTE : This function should not be modified, when the callback is needed,
            the HAL_I2C_MasterRxCpltCallback could be implemented in the user file
   */
}
 80025a2:	bf00      	nop
 80025a4:	370c      	adds	r7, #12
 80025a6:	46bd      	mov	sp, r7
 80025a8:	bc80      	pop	{r7}
 80025aa:	4770      	bx	lr

080025ac <HAL_I2C_AddrCallback>:
  * @param  TransferDirection Master request Transfer Direction (Write/Read), value of @ref I2C_XferDirection_definition
  * @param  AddrMatchCode Address Match Code
  * @retval None
  */
__weak void HAL_I2C_AddrCallback(I2C_HandleTypeDef *hi2c, uint8_t TransferDirection, uint16_t AddrMatchCode)
{
 80025ac:	b480      	push	{r7}
 80025ae:	b083      	sub	sp, #12
 80025b0:	af00      	add	r7, sp, #0
 80025b2:	6078      	str	r0, [r7, #4]
 80025b4:	460b      	mov	r3, r1
 80025b6:	70fb      	strb	r3, [r7, #3]
 80025b8:	4613      	mov	r3, r2
 80025ba:	803b      	strh	r3, [r7, #0]
  UNUSED(AddrMatchCode);

  /* NOTE : This function should not be modified, when the callback is needed,
            the HAL_I2C_AddrCallback() could be implemented in the user file
   */
}
 80025bc:	bf00      	nop
 80025be:	370c      	adds	r7, #12
 80025c0:	46bd      	mov	sp, r7
 80025c2:	bc80      	pop	{r7}
 80025c4:	4770      	bx	lr

080025c6 <HAL_I2C_ListenCpltCallback>:
  * @param  hi2c Pointer to a I2C_HandleTypeDef structure that contains
  *                the configuration information for the specified I2C.
  * @retval None
  */
__weak void HAL_I2C_ListenCpltCallback(I2C_HandleTypeDef *hi2c)
{
 80025c6:	b480      	push	{r7}
 80025c8:	b083      	sub	sp, #12
 80025ca:	af00      	add	r7, sp, #0
 80025cc:	6078      	str	r0, [r7, #4]
  UNUSED(hi2c);

  /* NOTE : This function should not be modified, when the callback is needed,
            the HAL_I2C_ListenCpltCallback() could be implemented in the user file
  */
}
 80025ce:	bf00      	nop
 80025d0:	370c      	adds	r7, #12
 80025d2:	46bd      	mov	sp, r7
 80025d4:	bc80      	pop	{r7}
 80025d6:	4770      	bx	lr

080025d8 <HAL_I2C_MemTxCpltCallback>:
  * @param  hi2c Pointer to a I2C_HandleTypeDef structure that contains
  *                the configuration information for the specified I2C.
  * @retval None
  */
__weak void HAL_I2C_MemTxCpltCallback(I2C_HandleTypeDef *hi2c)
{
 80025d8:	b480      	push	{r7}
 80025da:	b083      	sub	sp, #12
 80025dc:	af00      	add	r7, sp, #0
 80025de:	6078      	str	r0, [r7, #4]
  UNUSED(hi2c);

  /* NOTE : This function should not be modified, when the callback is needed,
            the HAL_I2C_MemTxCpltCallback could be implemented in the user file
   */
}
 80025e0:	bf00      	nop
 80025e2:	370c      	adds	r7, #12
 80025e4:	46bd      	mov	sp, r7
 80025e6:	bc80      	pop	{r7}
 80025e8:	4770      	bx	lr

080025ea <HAL_I2C_MemRxCpltCallback>:
  * @param  hi2c Pointer to a I2C_HandleTypeDef structure that contains
  *                the configuration information for the specified I2C.
  * @retval None
  */
__weak void HAL_I2C_MemRxCpltCallback(I2C_HandleTypeDef *hi2c)
{
 80025ea:	b480      	push	{r7}
 80025ec:	b083      	sub	sp, #12
 80025ee:	af00      	add	r7, sp, #0
 80025f0:	6078      	str	r0, [r7, #4]
  UNUSED(hi2c);

  /* NOTE : This function should not be modified, when the callback is needed,
            the HAL_I2C_MemRxCpltCallback could be implemented in the user file
   */
}
 80025f2:	bf00      	nop
 80025f4:	370c      	adds	r7, #12
 80025f6:	46bd      	mov	sp, r7
 80025f8:	bc80      	pop	{r7}
 80025fa:	4770      	bx	lr

080025fc <HAL_I2C_ErrorCallback>:
  * @param  hi2c Pointer to a I2C_HandleTypeDef structure that contains
  *                the configuration information for the specified I2C.
  * @retval None
  */
__weak void HAL_I2C_ErrorCallback(I2C_HandleTypeDef *hi2c)
{
 80025fc:	b480      	push	{r7}
 80025fe:	b083      	sub	sp, #12
 8002600:	af00      	add	r7, sp, #0
 8002602:	6078      	str	r0, [r7, #4]
  UNUSED(hi2c);

  /* NOTE : This function should not be modified, when the callback is needed,
            the HAL_I2C_ErrorCallback could be implemented in the user file
   */
}
 8002604:	bf00      	nop
 8002606:	370c      	adds	r7, #12
 8002608:	46bd      	mov	sp, r7
 800260a:	bc80      	pop	{r7}
 800260c:	4770      	bx	lr

0800260e <HAL_I2C_AbortCpltCallback>:
  * @param  hi2c Pointer to a I2C_HandleTypeDef structure that contains
  *                the configuration information for the specified I2C.
  * @retval None
  */
__weak void HAL_I2C_AbortCpltCallback(I2C_HandleTypeDef *hi2c)
{
 800260e:	b480      	push	{r7}
 8002610:	b083      	sub	sp, #12
 8002612:	af00      	add	r7, sp, #0
 8002614:	6078      	str	r0, [r7, #4]
  UNUSED(hi2c);

  /* NOTE : This function should not be modified, when the callback is needed,
            the HAL_I2C_AbortCpltCallback could be implemented in the user file
   */
}
 8002616:	bf00      	nop
 8002618:	370c      	adds	r7, #12
 800261a:	46bd      	mov	sp, r7
 800261c:	bc80      	pop	{r7}
 800261e:	4770      	bx	lr

08002620 <I2C_MasterTransmit_TXE>:
  * @param  hi2c Pointer to a I2C_HandleTypeDef structure that contains
  *         the configuration information for I2C module
  * @retval None
  */
static void I2C_MasterTransmit_TXE(I2C_HandleTypeDef *hi2c)
{
 8002620:	b580      	push	{r7, lr}
 8002622:	b084      	sub	sp, #16
 8002624:	af00      	add	r7, sp, #0
 8002626:	6078      	str	r0, [r7, #4]
  /* Declaration of temporary variables to prevent undefined behavior of volatile usage */
  HAL_I2C_StateTypeDef CurrentState = hi2c->State;
 8002628:	687b      	ldr	r3, [r7, #4]
 800262a:	f893 303d 	ldrb.w	r3, [r3, #61]	@ 0x3d
 800262e:	73fb      	strb	r3, [r7, #15]
  HAL_I2C_ModeTypeDef CurrentMode   = hi2c->Mode;
 8002630:	687b      	ldr	r3, [r7, #4]
 8002632:	f893 303e 	ldrb.w	r3, [r3, #62]	@ 0x3e
 8002636:	73bb      	strb	r3, [r7, #14]
  uint32_t CurrentXferOptions       = hi2c->XferOptions;
 8002638:	687b      	ldr	r3, [r7, #4]
 800263a:	6adb      	ldr	r3, [r3, #44]	@ 0x2c
 800263c:	60bb      	str	r3, [r7, #8]

  if ((hi2c->XferSize == 0U) && (CurrentState == HAL_I2C_STATE_BUSY_TX))
 800263e:	687b      	ldr	r3, [r7, #4]
 8002640:	8d1b      	ldrh	r3, [r3, #40]	@ 0x28
 8002642:	2b00      	cmp	r3, #0
 8002644:	d150      	bne.n	80026e8 <I2C_MasterTransmit_TXE+0xc8>
 8002646:	7bfb      	ldrb	r3, [r7, #15]
 8002648:	2b21      	cmp	r3, #33	@ 0x21
 800264a:	d14d      	bne.n	80026e8 <I2C_MasterTransmit_TXE+0xc8>
  {
    /* Call TxCpltCallback() directly if no stop mode is set */
    if ((CurrentXferOptions != I2C_FIRST_AND_LAST_FRAME) && (CurrentXferOptions != I2C_LAST_FRAME) && (CurrentXferOptions != I2C_NO_OPTION_FRAME))
 800264c:	68bb      	ldr	r3, [r7, #8]
 800264e:	2b08      	cmp	r3, #8
 8002650:	d01d      	beq.n	800268e <I2C_MasterTransmit_TXE+0x6e>
 8002652:	68bb      	ldr	r3, [r7, #8]
 8002654:	2b20      	cmp	r3, #32
 8002656:	d01a      	beq.n	800268e <I2C_MasterTransmit_TXE+0x6e>
 8002658:	68bb      	ldr	r3, [r7, #8]
 800265a:	f513 3f80 	cmn.w	r3, #65536	@ 0x10000
 800265e:	d016      	beq.n	800268e <I2C_MasterTransmit_TXE+0x6e>
    {
      __HAL_I2C_DISABLE_IT(hi2c, I2C_IT_EVT | I2C_IT_BUF | I2C_IT_ERR);
 8002660:	687b      	ldr	r3, [r7, #4]
 8002662:	681b      	ldr	r3, [r3, #0]
 8002664:	685a      	ldr	r2, [r3, #4]
 8002666:	687b      	ldr	r3, [r7, #4]
 8002668:	681b      	ldr	r3, [r3, #0]
 800266a:	f422 62e0 	bic.w	r2, r2, #1792	@ 0x700
 800266e:	605a      	str	r2, [r3, #4]

      hi2c->PreviousState = I2C_STATE_MASTER_BUSY_TX;
 8002670:	687b      	ldr	r3, [r7, #4]
 8002672:	2211      	movs	r2, #17
 8002674:	631a      	str	r2, [r3, #48]	@ 0x30
      hi2c->Mode = HAL_I2C_MODE_NONE;
 8002676:	687b      	ldr	r3, [r7, #4]
 8002678:	2200      	movs	r2, #0
 800267a:	f883 203e 	strb.w	r2, [r3, #62]	@ 0x3e
      hi2c->State = HAL_I2C_STATE_READY;
 800267e:	687b      	ldr	r3, [r7, #4]
 8002680:	2220      	movs	r2, #32
 8002682:	f883 203d 	strb.w	r2, [r3, #61]	@ 0x3d

#if (USE_HAL_I2C_REGISTER_CALLBACKS == 1)
      hi2c->MasterTxCpltCallback(hi2c);
#else
      HAL_I2C_MasterTxCpltCallback(hi2c);
 8002686:	6878      	ldr	r0, [r7, #4]
 8002688:	f7ff ff7e 	bl	8002588 <HAL_I2C_MasterTxCpltCallback>
    if ((CurrentXferOptions != I2C_FIRST_AND_LAST_FRAME) && (CurrentXferOptions != I2C_LAST_FRAME) && (CurrentXferOptions != I2C_NO_OPTION_FRAME))
 800268c:	e060      	b.n	8002750 <I2C_MasterTransmit_TXE+0x130>
#endif /* USE_HAL_I2C_REGISTER_CALLBACKS */
    }
    else /* Generate Stop condition then Call TxCpltCallback() */
    {
      /* Disable EVT, BUF and ERR interrupt */
      __HAL_I2C_DISABLE_IT(hi2c, I2C_IT_EVT | I2C_IT_BUF | I2C_IT_ERR);
 800268e:	687b      	ldr	r3, [r7, #4]
 8002690:	681b      	ldr	r3, [r3, #0]
 8002692:	685a      	ldr	r2, [r3, #4]
 8002694:	687b      	ldr	r3, [r7, #4]
 8002696:	681b      	ldr	r3, [r3, #0]
 8002698:	f422 62e0 	bic.w	r2, r2, #1792	@ 0x700
 800269c:	605a      	str	r2, [r3, #4]

      /* Generate Stop */
      SET_BIT(hi2c->Instance->CR1, I2C_CR1_STOP);
 800269e:	687b      	ldr	r3, [r7, #4]
 80026a0:	681b      	ldr	r3, [r3, #0]
 80026a2:	681a      	ldr	r2, [r3, #0]
 80026a4:	687b      	ldr	r3, [r7, #4]
 80026a6:	681b      	ldr	r3, [r3, #0]
 80026a8:	f442 7200 	orr.w	r2, r2, #512	@ 0x200
 80026ac:	601a      	str	r2, [r3, #0]

      hi2c->PreviousState = I2C_STATE_NONE;
 80026ae:	687b      	ldr	r3, [r7, #4]
 80026b0:	2200      	movs	r2, #0
 80026b2:	631a      	str	r2, [r3, #48]	@ 0x30
      hi2c->State = HAL_I2C_STATE_READY;
 80026b4:	687b      	ldr	r3, [r7, #4]
 80026b6:	2220      	movs	r2, #32
 80026b8:	f883 203d 	strb.w	r2, [r3, #61]	@ 0x3d

      if (hi2c->Mode == HAL_I2C_MODE_MEM)
 80026bc:	687b      	ldr	r3, [r7, #4]
 80026be:	f893 303e 	ldrb.w	r3, [r3, #62]	@ 0x3e
 80026c2:	b2db      	uxtb	r3, r3
 80026c4:	2b40      	cmp	r3, #64	@ 0x40
 80026c6:	d107      	bne.n	80026d8 <I2C_MasterTransmit_TXE+0xb8>
      {
        hi2c->Mode = HAL_I2C_MODE_NONE;
 80026c8:	687b      	ldr	r3, [r7, #4]
 80026ca:	2200      	movs	r2, #0
 80026cc:	f883 203e 	strb.w	r2, [r3, #62]	@ 0x3e
#if (USE_HAL_I2C_REGISTER_CALLBACKS == 1)
        hi2c->MemTxCpltCallback(hi2c);
#else
        HAL_I2C_MemTxCpltCallback(hi2c);
 80026d0:	6878      	ldr	r0, [r7, #4]
 80026d2:	f7ff ff81 	bl	80025d8 <HAL_I2C_MemTxCpltCallback>
    if ((CurrentXferOptions != I2C_FIRST_AND_LAST_FRAME) && (CurrentXferOptions != I2C_LAST_FRAME) && (CurrentXferOptions != I2C_NO_OPTION_FRAME))
 80026d6:	e03b      	b.n	8002750 <I2C_MasterTransmit_TXE+0x130>
#endif /* USE_HAL_I2C_REGISTER_CALLBACKS */
      }
      else
      {
        hi2c->Mode = HAL_I2C_MODE_NONE;
 80026d8:	687b      	ldr	r3, [r7, #4]
 80026da:	2200      	movs	r2, #0
 80026dc:	f883 203e 	strb.w	r2, [r3, #62]	@ 0x3e
#if (USE_HAL_I2C_REGISTER_CALLBACKS == 1)
        hi2c->MasterTxCpltCallback(hi2c);
#else
        HAL_I2C_MasterTxCpltCallback(hi2c);
 80026e0:	6878      	ldr	r0, [r7, #4]
 80026e2:	f7ff ff51 	bl	8002588 <HAL_I2C_MasterTxCpltCallback>
    if ((CurrentXferOptions != I2C_FIRST_AND_LAST_FRAME) && (CurrentXferOptions != I2C_LAST_FRAME) && (CurrentXferOptions != I2C_NO_OPTION_FRAME))
 80026e6:	e033      	b.n	8002750 <I2C_MasterTransmit_TXE+0x130>
#endif /* USE_HAL_I2C_REGISTER_CALLBACKS */
      }
    }
  }
  else if ((CurrentState == HAL_I2C_STATE_BUSY_TX) || \
 80026e8:	7bfb      	ldrb	r3, [r7, #15]
 80026ea:	2b21      	cmp	r3, #33	@ 0x21
 80026ec:	d005      	beq.n	80026fa <I2C_MasterTransmit_TXE+0xda>
 80026ee:	7bbb      	ldrb	r3, [r7, #14]
 80026f0:	2b40      	cmp	r3, #64	@ 0x40
 80026f2:	d12d      	bne.n	8002750 <I2C_MasterTransmit_TXE+0x130>
           ((CurrentMode == HAL_I2C_MODE_MEM) && (CurrentState == HAL_I2C_STATE_BUSY_RX)))
 80026f4:	7bfb      	ldrb	r3, [r7, #15]
 80026f6:	2b22      	cmp	r3, #34	@ 0x22
 80026f8:	d12a      	bne.n	8002750 <I2C_MasterTransmit_TXE+0x130>
  {
    if (hi2c->XferCount == 0U)
 80026fa:	687b      	ldr	r3, [r7, #4]
 80026fc:	8d5b      	ldrh	r3, [r3, #42]	@ 0x2a
 80026fe:	b29b      	uxth	r3, r3
 8002700:	2b00      	cmp	r3, #0
 8002702:	d108      	bne.n	8002716 <I2C_MasterTransmit_TXE+0xf6>
    {
      /* Disable BUF interrupt */
      __HAL_I2C_DISABLE_IT(hi2c, I2C_IT_BUF);
 8002704:	687b      	ldr	r3, [r7, #4]
 8002706:	681b      	ldr	r3, [r3, #0]
 8002708:	685a      	ldr	r2, [r3, #4]
 800270a:	687b      	ldr	r3, [r7, #4]
 800270c:	681b      	ldr	r3, [r3, #0]
 800270e:	f422 6280 	bic.w	r2, r2, #1024	@ 0x400
 8002712:	605a      	str	r2, [r3, #4]
  }
  else
  {
    /* Do nothing */
  }
}
 8002714:	e01c      	b.n	8002750 <I2C_MasterTransmit_TXE+0x130>
      if (hi2c->Mode == HAL_I2C_MODE_MEM)
 8002716:	687b      	ldr	r3, [r7, #4]
 8002718:	f893 303e 	ldrb.w	r3, [r3, #62]	@ 0x3e
 800271c:	b2db      	uxtb	r3, r3
 800271e:	2b40      	cmp	r3, #64	@ 0x40
 8002720:	d103      	bne.n	800272a <I2C_MasterTransmit_TXE+0x10a>
        I2C_MemoryTransmit_TXE_BTF(hi2c);
 8002722:	6878      	ldr	r0, [r7, #4]
 8002724:	f000 f88e 	bl	8002844 <I2C_MemoryTransmit_TXE_BTF>
}
 8002728:	e012      	b.n	8002750 <I2C_MasterTransmit_TXE+0x130>
        hi2c->Instance->DR = *hi2c->pBuffPtr;
 800272a:	687b      	ldr	r3, [r7, #4]
 800272c:	6a5b      	ldr	r3, [r3, #36]	@ 0x24
 800272e:	781a      	ldrb	r2, [r3, #0]
 8002730:	687b      	ldr	r3, [r7, #4]
 8002732:	681b      	ldr	r3, [r3, #0]
 8002734:	611a      	str	r2, [r3, #16]
        hi2c->pBuffPtr++;
 8002736:	687b      	ldr	r3, [r7, #4]
 8002738:	6a5b      	ldr	r3, [r3, #36]	@ 0x24
 800273a:	1c5a      	adds	r2, r3, #1
 800273c:	687b      	ldr	r3, [r7, #4]
 800273e:	625a      	str	r2, [r3, #36]	@ 0x24
        hi2c->XferCount--;
 8002740:	687b      	ldr	r3, [r7, #4]
 8002742:	8d5b      	ldrh	r3, [r3, #42]	@ 0x2a
 8002744:	b29b      	uxth	r3, r3
 8002746:	3b01      	subs	r3, #1
 8002748:	b29a      	uxth	r2, r3
 800274a:	687b      	ldr	r3, [r7, #4]
 800274c:	855a      	strh	r2, [r3, #42]	@ 0x2a
}
 800274e:	e7ff      	b.n	8002750 <I2C_MasterTransmit_TXE+0x130>
 8002750:	bf00      	nop
 8002752:	3710      	adds	r7, #16
 8002754:	46bd      	mov	sp, r7
 8002756:	bd80      	pop	{r7, pc}

08002758 <I2C_MasterTransmit_BTF>:
  * @param  hi2c Pointer to a I2C_HandleTypeDef structure that contains
  *         the configuration information for I2C module
  * @retval None
  */
static void I2C_MasterTransmit_BTF(I2C_HandleTypeDef *hi2c)
{
 8002758:	b580      	push	{r7, lr}
 800275a:	b084      	sub	sp, #16
 800275c:	af00      	add	r7, sp, #0
 800275e:	6078      	str	r0, [r7, #4]
  /* Declaration of temporary variables to prevent undefined behavior of volatile usage */
  uint32_t CurrentXferOptions = hi2c->XferOptions;
 8002760:	687b      	ldr	r3, [r7, #4]
 8002762:	6adb      	ldr	r3, [r3, #44]	@ 0x2c
 8002764:	60fb      	str	r3, [r7, #12]

  if (hi2c->State == HAL_I2C_STATE_BUSY_TX)
 8002766:	687b      	ldr	r3, [r7, #4]
 8002768:	f893 303d 	ldrb.w	r3, [r3, #61]	@ 0x3d
 800276c:	b2db      	uxtb	r3, r3
 800276e:	2b21      	cmp	r3, #33	@ 0x21
 8002770:	d164      	bne.n	800283c <I2C_MasterTransmit_BTF+0xe4>
  {
    if (hi2c->XferCount != 0U)
 8002772:	687b      	ldr	r3, [r7, #4]
 8002774:	8d5b      	ldrh	r3, [r3, #42]	@ 0x2a
 8002776:	b29b      	uxth	r3, r3
 8002778:	2b00      	cmp	r3, #0
 800277a:	d012      	beq.n	80027a2 <I2C_MasterTransmit_BTF+0x4a>
    {
      /* Write data to DR */
      hi2c->Instance->DR = *hi2c->pBuffPtr;
 800277c:	687b      	ldr	r3, [r7, #4]
 800277e:	6a5b      	ldr	r3, [r3, #36]	@ 0x24
 8002780:	781a      	ldrb	r2, [r3, #0]
 8002782:	687b      	ldr	r3, [r7, #4]
 8002784:	681b      	ldr	r3, [r3, #0]
 8002786:	611a      	str	r2, [r3, #16]

      /* Increment Buffer pointer */
      hi2c->pBuffPtr++;
 8002788:	687b      	ldr	r3, [r7, #4]
 800278a:	6a5b      	ldr	r3, [r3, #36]	@ 0x24
 800278c:	1c5a      	adds	r2, r3, #1
 800278e:	687b      	ldr	r3, [r7, #4]
 8002790:	625a      	str	r2, [r3, #36]	@ 0x24

      /* Update counter */
      hi2c->XferCount--;
 8002792:	687b      	ldr	r3, [r7, #4]
 8002794:	8d5b      	ldrh	r3, [r3, #42]	@ 0x2a
 8002796:	b29b      	uxth	r3, r3
 8002798:	3b01      	subs	r3, #1
 800279a:	b29a      	uxth	r2, r3
 800279c:	687b      	ldr	r3, [r7, #4]
 800279e:	855a      	strh	r2, [r3, #42]	@ 0x2a
  }
  else
  {
    /* Do nothing */
  }
}
 80027a0:	e04c      	b.n	800283c <I2C_MasterTransmit_BTF+0xe4>
      if ((CurrentXferOptions != I2C_FIRST_AND_LAST_FRAME) && (CurrentXferOptions != I2C_LAST_FRAME) && (CurrentXferOptions != I2C_NO_OPTION_FRAME))
 80027a2:	68fb      	ldr	r3, [r7, #12]
 80027a4:	2b08      	cmp	r3, #8
 80027a6:	d01d      	beq.n	80027e4 <I2C_MasterTransmit_BTF+0x8c>
 80027a8:	68fb      	ldr	r3, [r7, #12]
 80027aa:	2b20      	cmp	r3, #32
 80027ac:	d01a      	beq.n	80027e4 <I2C_MasterTransmit_BTF+0x8c>
 80027ae:	68fb      	ldr	r3, [r7, #12]
 80027b0:	f513 3f80 	cmn.w	r3, #65536	@ 0x10000
 80027b4:	d016      	beq.n	80027e4 <I2C_MasterTransmit_BTF+0x8c>
        __HAL_I2C_DISABLE_IT(hi2c, I2C_IT_EVT | I2C_IT_BUF | I2C_IT_ERR);
 80027b6:	687b      	ldr	r3, [r7, #4]
 80027b8:	681b      	ldr	r3, [r3, #0]
 80027ba:	685a      	ldr	r2, [r3, #4]
 80027bc:	687b      	ldr	r3, [r7, #4]
 80027be:	681b      	ldr	r3, [r3, #0]
 80027c0:	f422 62e0 	bic.w	r2, r2, #1792	@ 0x700
 80027c4:	605a      	str	r2, [r3, #4]
        hi2c->PreviousState = I2C_STATE_MASTER_BUSY_TX;
 80027c6:	687b      	ldr	r3, [r7, #4]
 80027c8:	2211      	movs	r2, #17
 80027ca:	631a      	str	r2, [r3, #48]	@ 0x30
        hi2c->Mode = HAL_I2C_MODE_NONE;
 80027cc:	687b      	ldr	r3, [r7, #4]
 80027ce:	2200      	movs	r2, #0
 80027d0:	f883 203e 	strb.w	r2, [r3, #62]	@ 0x3e
        hi2c->State = HAL_I2C_STATE_READY;
 80027d4:	687b      	ldr	r3, [r7, #4]
 80027d6:	2220      	movs	r2, #32
 80027d8:	f883 203d 	strb.w	r2, [r3, #61]	@ 0x3d
        HAL_I2C_MasterTxCpltCallback(hi2c);
 80027dc:	6878      	ldr	r0, [r7, #4]
 80027de:	f7ff fed3 	bl	8002588 <HAL_I2C_MasterTxCpltCallback>
}
 80027e2:	e02b      	b.n	800283c <I2C_MasterTransmit_BTF+0xe4>
        __HAL_I2C_DISABLE_IT(hi2c, I2C_IT_EVT | I2C_IT_BUF | I2C_IT_ERR);
 80027e4:	687b      	ldr	r3, [r7, #4]
 80027e6:	681b      	ldr	r3, [r3, #0]
 80027e8:	685a      	ldr	r2, [r3, #4]
 80027ea:	687b      	ldr	r3, [r7, #4]
 80027ec:	681b      	ldr	r3, [r3, #0]
 80027ee:	f422 62e0 	bic.w	r2, r2, #1792	@ 0x700
 80027f2:	605a      	str	r2, [r3, #4]
        SET_BIT(hi2c->Instance->CR1, I2C_CR1_STOP);
 80027f4:	687b      	ldr	r3, [r7, #4]
 80027f6:	681b      	ldr	r3, [r3, #0]
 80027f8:	681a      	ldr	r2, [r3, #0]
 80027fa:	687b      	ldr	r3, [r7, #4]
 80027fc:	681b      	ldr	r3, [r3, #0]
 80027fe:	f442 7200 	orr.w	r2, r2, #512	@ 0x200
 8002802:	601a      	str	r2, [r3, #0]
        hi2c->PreviousState = I2C_STATE_NONE;
 8002804:	687b      	ldr	r3, [r7, #4]
 8002806:	2200      	movs	r2, #0
 8002808:	631a      	str	r2, [r3, #48]	@ 0x30
        hi2c->State = HAL_I2C_STATE_READY;
 800280a:	687b      	ldr	r3, [r7, #4]
 800280c:	2220      	movs	r2, #32
 800280e:	f883 203d 	strb.w	r2, [r3, #61]	@ 0x3d
        if (hi2c->Mode == HAL_I2C_MODE_MEM)
 8002812:	687b      	ldr	r3, [r7, #4]
 8002814:	f893 303e 	ldrb.w	r3, [r3, #62]	@ 0x3e
 8002818:	b2db      	uxtb	r3, r3
 800281a:	2b40      	cmp	r3, #64	@ 0x40
 800281c:	d107      	bne.n	800282e <I2C_MasterTransmit_BTF+0xd6>
          hi2c->Mode = HAL_I2C_MODE_NONE;
 800281e:	687b      	ldr	r3, [r7, #4]
 8002820:	2200      	movs	r2, #0
 8002822:	f883 203e 	strb.w	r2, [r3, #62]	@ 0x3e
          HAL_I2C_MemTxCpltCallback(hi2c);
 8002826:	6878      	ldr	r0, [r7, #4]
 8002828:	f7ff fed6 	bl	80025d8 <HAL_I2C_MemTxCpltCallback>
}
 800282c:	e006      	b.n	800283c <I2C_MasterTransmit_BTF+0xe4>
          hi2c->Mode = HAL_I2C_MODE_NONE;
 800282e:	687b      	ldr	r3, [r7, #4]
 8002830:	2200      	movs	r2, #0
 8002832:	f883 203e 	strb.w	r2, [r3, #62]	@ 0x3e
          HAL_I2C_MasterTxCpltCallback(hi2c);
 8002836:	6878      	ldr	r0, [r7, #4]
 8002838:	f7ff fea6 	bl	8002588 <HAL_I2C_MasterTxCpltCallback>
}
 800283c:	bf00      	nop
 800283e:	3710      	adds	r7, #16
 8002840:	46bd      	mov	sp, r7
 8002842:	bd80      	pop	{r7, pc}

08002844 <I2C_MemoryTransmit_TXE_BTF>:
  * @param  hi2c Pointer to a I2C_HandleTypeDef structure that contains
  *         the configuration information for I2C module
  * @retval None
  */
static void I2C_MemoryTransmit_TXE_BTF(I2C_HandleTypeDef *hi2c)
{
 8002844:	b580      	push	{r7, lr}
 8002846:	b084      	sub	sp, #16
 8002848:	af00      	add	r7, sp, #0
 800284a:	6078      	str	r0, [r7, #4]
  /* Declaration of temporary variables to prevent undefined behavior of volatile usage */
  HAL_I2C_StateTypeDef CurrentState = hi2c->State;
 800284c:	687b      	ldr	r3, [r7, #4]
 800284e:	f893 303d 	ldrb.w	r3, [r3, #61]	@ 0x3d
 8002852:	73fb      	strb	r3, [r7, #15]

  if (hi2c->EventCount == 0U)
 8002854:	687b      	ldr	r3, [r7, #4]
 8002856:	6d1b      	ldr	r3, [r3, #80]	@ 0x50
 8002858:	2b00      	cmp	r3, #0
 800285a:	d11d      	bne.n	8002898 <I2C_MemoryTransmit_TXE_BTF+0x54>
  {
    /* If Memory address size is 8Bit */
    if (hi2c->MemaddSize == I2C_MEMADD_SIZE_8BIT)
 800285c:	687b      	ldr	r3, [r7, #4]
 800285e:	6cdb      	ldr	r3, [r3, #76]	@ 0x4c
 8002860:	2b01      	cmp	r3, #1
 8002862:	d10b      	bne.n	800287c <I2C_MemoryTransmit_TXE_BTF+0x38>
    {
      /* Send Memory Address */
      hi2c->Instance->DR = I2C_MEM_ADD_LSB(hi2c->Memaddress);
 8002864:	687b      	ldr	r3, [r7, #4]
 8002866:	6c9b      	ldr	r3, [r3, #72]	@ 0x48
 8002868:	b2da      	uxtb	r2, r3
 800286a:	687b      	ldr	r3, [r7, #4]
 800286c:	681b      	ldr	r3, [r3, #0]
 800286e:	611a      	str	r2, [r3, #16]

      hi2c->EventCount += 2U;
 8002870:	687b      	ldr	r3, [r7, #4]
 8002872:	6d1b      	ldr	r3, [r3, #80]	@ 0x50
 8002874:	1c9a      	adds	r2, r3, #2
 8002876:	687b      	ldr	r3, [r7, #4]
 8002878:	651a      	str	r2, [r3, #80]	@ 0x50
  else
  {
    /* Clear TXE and BTF flags */
    I2C_Flush_DR(hi2c);
  }
}
 800287a:	e077      	b.n	800296c <I2C_MemoryTransmit_TXE_BTF+0x128>
      hi2c->Instance->DR = I2C_MEM_ADD_MSB(hi2c->Memaddress);
 800287c:	687b      	ldr	r3, [r7, #4]
 800287e:	6c9b      	ldr	r3, [r3, #72]	@ 0x48
 8002880:	b29b      	uxth	r3, r3
 8002882:	121b      	asrs	r3, r3, #8
 8002884:	b2da      	uxtb	r2, r3
 8002886:	687b      	ldr	r3, [r7, #4]
 8002888:	681b      	ldr	r3, [r3, #0]
 800288a:	611a      	str	r2, [r3, #16]
      hi2c->EventCount++;
 800288c:	687b      	ldr	r3, [r7, #4]
 800288e:	6d1b      	ldr	r3, [r3, #80]	@ 0x50
 8002890:	1c5a      	adds	r2, r3, #1
 8002892:	687b      	ldr	r3, [r7, #4]
 8002894:	651a      	str	r2, [r3, #80]	@ 0x50
}
 8002896:	e069      	b.n	800296c <I2C_MemoryTransmit_TXE_BTF+0x128>
  else if (hi2c->EventCount == 1U)
 8002898:	687b      	ldr	r3, [r7, #4]
 800289a:	6d1b      	ldr	r3, [r3, #80]	@ 0x50
 800289c:	2b01      	cmp	r3, #1
 800289e:	d10b      	bne.n	80028b8 <I2C_MemoryTransmit_TXE_BTF+0x74>
    hi2c->Instance->DR = I2C_MEM_ADD_LSB(hi2c->Memaddress);
 80028a0:	687b      	ldr	r3, [r7, #4]
 80028a2:	6c9b      	ldr	r3, [r3, #72]	@ 0x48
 80028a4:	b2da      	uxtb	r2, r3
 80028a6:	687b      	ldr	r3, [r7, #4]
 80028a8:	681b      	ldr	r3, [r3, #0]
 80028aa:	611a      	str	r2, [r3, #16]
    hi2c->EventCount++;
 80028ac:	687b      	ldr	r3, [r7, #4]
 80028ae:	6d1b      	ldr	r3, [r3, #80]	@ 0x50
 80028b0:	1c5a      	adds	r2, r3, #1
 80028b2:	687b      	ldr	r3, [r7, #4]
 80028b4:	651a      	str	r2, [r3, #80]	@ 0x50
}
 80028b6:	e059      	b.n	800296c <I2C_MemoryTransmit_TXE_BTF+0x128>
  else if (hi2c->EventCount == 2U)
 80028b8:	687b      	ldr	r3, [r7, #4]
 80028ba:	6d1b      	ldr	r3, [r3, #80]	@ 0x50
 80028bc:	2b02      	cmp	r3, #2
 80028be:	d152      	bne.n	8002966 <I2C_MemoryTransmit_TXE_BTF+0x122>
    if (CurrentState == HAL_I2C_STATE_BUSY_RX)
 80028c0:	7bfb      	ldrb	r3, [r7, #15]
 80028c2:	2b22      	cmp	r3, #34	@ 0x22
 80028c4:	d10d      	bne.n	80028e2 <I2C_MemoryTransmit_TXE_BTF+0x9e>
      hi2c->Instance->CR1 |= I2C_CR1_START;
 80028c6:	687b      	ldr	r3, [r7, #4]
 80028c8:	681b      	ldr	r3, [r3, #0]
 80028ca:	681a      	ldr	r2, [r3, #0]
 80028cc:	687b      	ldr	r3, [r7, #4]
 80028ce:	681b      	ldr	r3, [r3, #0]
 80028d0:	f442 7280 	orr.w	r2, r2, #256	@ 0x100
 80028d4:	601a      	str	r2, [r3, #0]
      hi2c->EventCount++;
 80028d6:	687b      	ldr	r3, [r7, #4]
 80028d8:	6d1b      	ldr	r3, [r3, #80]	@ 0x50
 80028da:	1c5a      	adds	r2, r3, #1
 80028dc:	687b      	ldr	r3, [r7, #4]
 80028de:	651a      	str	r2, [r3, #80]	@ 0x50
}
 80028e0:	e044      	b.n	800296c <I2C_MemoryTransmit_TXE_BTF+0x128>
    else if ((hi2c->XferCount > 0U) && (CurrentState == HAL_I2C_STATE_BUSY_TX))
 80028e2:	687b      	ldr	r3, [r7, #4]
 80028e4:	8d5b      	ldrh	r3, [r3, #42]	@ 0x2a
 80028e6:	b29b      	uxth	r3, r3
 80028e8:	2b00      	cmp	r3, #0
 80028ea:	d015      	beq.n	8002918 <I2C_MemoryTransmit_TXE_BTF+0xd4>
 80028ec:	7bfb      	ldrb	r3, [r7, #15]
 80028ee:	2b21      	cmp	r3, #33	@ 0x21
 80028f0:	d112      	bne.n	8002918 <I2C_MemoryTransmit_TXE_BTF+0xd4>
      hi2c->Instance->DR = *hi2c->pBuffPtr;
 80028f2:	687b      	ldr	r3, [r7, #4]
 80028f4:	6a5b      	ldr	r3, [r3, #36]	@ 0x24
 80028f6:	781a      	ldrb	r2, [r3, #0]
 80028f8:	687b      	ldr	r3, [r7, #4]
 80028fa:	681b      	ldr	r3, [r3, #0]
 80028fc:	611a      	str	r2, [r3, #16]
      hi2c->pBuffPtr++;
 80028fe:	687b      	ldr	r3, [r7, #4]
 8002900:	6a5b      	ldr	r3, [r3, #36]	@ 0x24
 8002902:	1c5a      	adds	r2, r3, #1
 8002904:	687b      	ldr	r3, [r7, #4]
 8002906:	625a      	str	r2, [r3, #36]	@ 0x24
      hi2c->XferCount--;
 8002908:	687b      	ldr	r3, [r7, #4]
 800290a:	8d5b      	ldrh	r3, [r3, #42]	@ 0x2a
 800290c:	b29b      	uxth	r3, r3
 800290e:	3b01      	subs	r3, #1
 8002910:	b29a      	uxth	r2, r3
 8002912:	687b      	ldr	r3, [r7, #4]
 8002914:	855a      	strh	r2, [r3, #42]	@ 0x2a
}
 8002916:	e029      	b.n	800296c <I2C_MemoryTransmit_TXE_BTF+0x128>
    else if ((hi2c->XferCount == 0U) && (CurrentState == HAL_I2C_STATE_BUSY_TX))
 8002918:	687b      	ldr	r3, [r7, #4]
 800291a:	8d5b      	ldrh	r3, [r3, #42]	@ 0x2a
 800291c:	b29b      	uxth	r3, r3
 800291e:	2b00      	cmp	r3, #0
 8002920:	d124      	bne.n	800296c <I2C_MemoryTransmit_TXE_BTF+0x128>
 8002922:	7bfb      	ldrb	r3, [r7, #15]
 8002924:	2b21      	cmp	r3, #33	@ 0x21
 8002926:	d121      	bne.n	800296c <I2C_MemoryTransmit_TXE_BTF+0x128>
      __HAL_I2C_DISABLE_IT(hi2c, I2C_IT_EVT | I2C_IT_BUF | I2C_IT_ERR);
 8002928:	687b      	ldr	r3, [r7, #4]
 800292a:	681b      	ldr	r3, [r3, #0]
 800292c:	685a      	ldr	r2, [r3, #4]
 800292e:	687b      	ldr	r3, [r7, #4]
 8002930:	681b      	ldr	r3, [r3, #0]
 8002932:	f422 62e0 	bic.w	r2, r2, #1792	@ 0x700
 8002936:	605a      	str	r2, [r3, #4]
      SET_BIT(hi2c->Instance->CR1, I2C_CR1_STOP);
 8002938:	687b      	ldr	r3, [r7, #4]
 800293a:	681b      	ldr	r3, [r3, #0]
 800293c:	681a      	ldr	r2, [r3, #0]
 800293e:	687b      	ldr	r3, [r7, #4]
 8002940:	681b      	ldr	r3, [r3, #0]
 8002942:	f442 7200 	orr.w	r2, r2, #512	@ 0x200
 8002946:	601a      	str	r2, [r3, #0]
      hi2c->PreviousState = I2C_STATE_NONE;
 8002948:	687b      	ldr	r3, [r7, #4]
 800294a:	2200      	movs	r2, #0
 800294c:	631a      	str	r2, [r3, #48]	@ 0x30
      hi2c->State = HAL_I2C_STATE_READY;
 800294e:	687b      	ldr	r3, [r7, #4]
 8002950:	2220      	movs	r2, #32
 8002952:	f883 203d 	strb.w	r2, [r3, #61]	@ 0x3d
      hi2c->Mode = HAL_I2C_MODE_NONE;
 8002956:	687b      	ldr	r3, [r7, #4]
 8002958:	2200      	movs	r2, #0
 800295a:	f883 203e 	strb.w	r2, [r3, #62]	@ 0x3e
      HAL_I2C_MemTxCpltCallback(hi2c);
 800295e:	6878      	ldr	r0, [r7, #4]
 8002960:	f7ff fe3a 	bl	80025d8 <HAL_I2C_MemTxCpltCallback>
}
 8002964:	e002      	b.n	800296c <I2C_MemoryTransmit_TXE_BTF+0x128>
    I2C_Flush_DR(hi2c);
 8002966:	6878      	ldr	r0, [r7, #4]
 8002968:	f7ff fafd 	bl	8001f66 <I2C_Flush_DR>
}
 800296c:	bf00      	nop
 800296e:	3710      	adds	r7, #16
 8002970:	46bd      	mov	sp, r7
 8002972:	bd80      	pop	{r7, pc}

08002974 <I2C_MasterReceive_RXNE>:
  * @param  hi2c Pointer to a I2C_HandleTypeDef structure that contains
  *         the configuration information for I2C module
  * @retval None
  */
static void I2C_MasterReceive_RXNE(I2C_HandleTypeDef *hi2c)
{
 8002974:	b580      	push	{r7, lr}
 8002976:	b084      	sub	sp, #16
 8002978:	af00      	add	r7, sp, #0
 800297a:	6078      	str	r0, [r7, #4]
  if (hi2c->State == HAL_I2C_STATE_BUSY_RX)
 800297c:	687b      	ldr	r3, [r7, #4]
 800297e:	f893 303d 	ldrb.w	r3, [r3, #61]	@ 0x3d
 8002982:	b2db      	uxtb	r3, r3
 8002984:	2b22      	cmp	r3, #34	@ 0x22
 8002986:	f040 80b9 	bne.w	8002afc <I2C_MasterReceive_RXNE+0x188>
  {
    uint32_t tmp;
    uint32_t CurrentXferOptions;

    CurrentXferOptions = hi2c->XferOptions;
 800298a:	687b      	ldr	r3, [r7, #4]
 800298c:	6adb      	ldr	r3, [r3, #44]	@ 0x2c
 800298e:	60fb      	str	r3, [r7, #12]
    tmp = hi2c->XferCount;
 8002990:	687b      	ldr	r3, [r7, #4]
 8002992:	8d5b      	ldrh	r3, [r3, #42]	@ 0x2a
 8002994:	b29b      	uxth	r3, r3
 8002996:	60bb      	str	r3, [r7, #8]
    if (tmp > 3U)
 8002998:	68bb      	ldr	r3, [r7, #8]
 800299a:	2b03      	cmp	r3, #3
 800299c:	d921      	bls.n	80029e2 <I2C_MasterReceive_RXNE+0x6e>
    {
      /* Read data from DR */
      *hi2c->pBuffPtr = (uint8_t)hi2c->Instance->DR;
 800299e:	687b      	ldr	r3, [r7, #4]
 80029a0:	681b      	ldr	r3, [r3, #0]
 80029a2:	691a      	ldr	r2, [r3, #16]
 80029a4:	687b      	ldr	r3, [r7, #4]
 80029a6:	6a5b      	ldr	r3, [r3, #36]	@ 0x24
 80029a8:	b2d2      	uxtb	r2, r2
 80029aa:	701a      	strb	r2, [r3, #0]

      /* Increment Buffer pointer */
      hi2c->pBuffPtr++;
 80029ac:	687b      	ldr	r3, [r7, #4]
 80029ae:	6a5b      	ldr	r3, [r3, #36]	@ 0x24
 80029b0:	1c5a      	adds	r2, r3, #1
 80029b2:	687b      	ldr	r3, [r7, #4]
 80029b4:	625a      	str	r2, [r3, #36]	@ 0x24

      /* Update counter */
      hi2c->XferCount--;
 80029b6:	687b      	ldr	r3, [r7, #4]
 80029b8:	8d5b      	ldrh	r3, [r3, #42]	@ 0x2a
 80029ba:	b29b      	uxth	r3, r3
 80029bc:	3b01      	subs	r3, #1
 80029be:	b29a      	uxth	r2, r3
 80029c0:	687b      	ldr	r3, [r7, #4]
 80029c2:	855a      	strh	r2, [r3, #42]	@ 0x2a

      if (hi2c->XferCount == (uint16_t)3)
 80029c4:	687b      	ldr	r3, [r7, #4]
 80029c6:	8d5b      	ldrh	r3, [r3, #42]	@ 0x2a
 80029c8:	b29b      	uxth	r3, r3
 80029ca:	2b03      	cmp	r3, #3
 80029cc:	f040 8096 	bne.w	8002afc <I2C_MasterReceive_RXNE+0x188>
      {
        /* Disable BUF interrupt, this help to treat correctly the last 4 bytes
        on BTF subroutine */
        /* Disable BUF interrupt */
        __HAL_I2C_DISABLE_IT(hi2c, I2C_IT_BUF);
 80029d0:	687b      	ldr	r3, [r7, #4]
 80029d2:	681b      	ldr	r3, [r3, #0]
 80029d4:	685a      	ldr	r2, [r3, #4]
 80029d6:	687b      	ldr	r3, [r7, #4]
 80029d8:	681b      	ldr	r3, [r3, #0]
 80029da:	f422 6280 	bic.w	r2, r2, #1024	@ 0x400
 80029de:	605a      	str	r2, [r3, #4]
      /* Disable BUF interrupt, this help to treat correctly the last 2 bytes
         on BTF subroutine if there is a reception delay between N-1 and N byte */
      __HAL_I2C_DISABLE_IT(hi2c, I2C_IT_BUF);
    }
  }
}
 80029e0:	e08c      	b.n	8002afc <I2C_MasterReceive_RXNE+0x188>
    else if ((hi2c->XferOptions != I2C_FIRST_AND_NEXT_FRAME) && ((tmp == 1U) || (tmp == 0U)))
 80029e2:	687b      	ldr	r3, [r7, #4]
 80029e4:	6adb      	ldr	r3, [r3, #44]	@ 0x2c
 80029e6:	2b02      	cmp	r3, #2
 80029e8:	d07f      	beq.n	8002aea <I2C_MasterReceive_RXNE+0x176>
 80029ea:	68bb      	ldr	r3, [r7, #8]
 80029ec:	2b01      	cmp	r3, #1
 80029ee:	d002      	beq.n	80029f6 <I2C_MasterReceive_RXNE+0x82>
 80029f0:	68bb      	ldr	r3, [r7, #8]
 80029f2:	2b00      	cmp	r3, #0
 80029f4:	d179      	bne.n	8002aea <I2C_MasterReceive_RXNE+0x176>
      if (I2C_WaitOnSTOPRequestThroughIT(hi2c) == HAL_OK)
 80029f6:	6878      	ldr	r0, [r7, #4]
 80029f8:	f001 f842 	bl	8003a80 <I2C_WaitOnSTOPRequestThroughIT>
 80029fc:	4603      	mov	r3, r0
 80029fe:	2b00      	cmp	r3, #0
 8002a00:	d14c      	bne.n	8002a9c <I2C_MasterReceive_RXNE+0x128>
        CLEAR_BIT(hi2c->Instance->CR1, I2C_CR1_ACK);
 8002a02:	687b      	ldr	r3, [r7, #4]
 8002a04:	681b      	ldr	r3, [r3, #0]
 8002a06:	681a      	ldr	r2, [r3, #0]
 8002a08:	687b      	ldr	r3, [r7, #4]
 8002a0a:	681b      	ldr	r3, [r3, #0]
 8002a0c:	f422 6280 	bic.w	r2, r2, #1024	@ 0x400
 8002a10:	601a      	str	r2, [r3, #0]
        __HAL_I2C_DISABLE_IT(hi2c, I2C_IT_EVT | I2C_IT_BUF | I2C_IT_ERR);
 8002a12:	687b      	ldr	r3, [r7, #4]
 8002a14:	681b      	ldr	r3, [r3, #0]
 8002a16:	685a      	ldr	r2, [r3, #4]
 8002a18:	687b      	ldr	r3, [r7, #4]
 8002a1a:	681b      	ldr	r3, [r3, #0]
 8002a1c:	f422 62e0 	bic.w	r2, r2, #1792	@ 0x700
 8002a20:	605a      	str	r2, [r3, #4]
        *hi2c->pBuffPtr = (uint8_t)hi2c->Instance->DR;
 8002a22:	687b      	ldr	r3, [r7, #4]
 8002a24:	681b      	ldr	r3, [r3, #0]
 8002a26:	691a      	ldr	r2, [r3, #16]
 8002a28:	687b      	ldr	r3, [r7, #4]
 8002a2a:	6a5b      	ldr	r3, [r3, #36]	@ 0x24
 8002a2c:	b2d2      	uxtb	r2, r2
 8002a2e:	701a      	strb	r2, [r3, #0]
        hi2c->pBuffPtr++;
 8002a30:	687b      	ldr	r3, [r7, #4]
 8002a32:	6a5b      	ldr	r3, [r3, #36]	@ 0x24
 8002a34:	1c5a      	adds	r2, r3, #1
 8002a36:	687b      	ldr	r3, [r7, #4]
 8002a38:	625a      	str	r2, [r3, #36]	@ 0x24
        hi2c->XferCount--;
 8002a3a:	687b      	ldr	r3, [r7, #4]
 8002a3c:	8d5b      	ldrh	r3, [r3, #42]	@ 0x2a
 8002a3e:	b29b      	uxth	r3, r3
 8002a40:	3b01      	subs	r3, #1
 8002a42:	b29a      	uxth	r2, r3
 8002a44:	687b      	ldr	r3, [r7, #4]
 8002a46:	855a      	strh	r2, [r3, #42]	@ 0x2a
        hi2c->State = HAL_I2C_STATE_READY;
 8002a48:	687b      	ldr	r3, [r7, #4]
 8002a4a:	2220      	movs	r2, #32
 8002a4c:	f883 203d 	strb.w	r2, [r3, #61]	@ 0x3d
        if (hi2c->Mode == HAL_I2C_MODE_MEM)
 8002a50:	687b      	ldr	r3, [r7, #4]
 8002a52:	f893 303e 	ldrb.w	r3, [r3, #62]	@ 0x3e
 8002a56:	b2db      	uxtb	r3, r3
 8002a58:	2b40      	cmp	r3, #64	@ 0x40
 8002a5a:	d10a      	bne.n	8002a72 <I2C_MasterReceive_RXNE+0xfe>
          hi2c->Mode = HAL_I2C_MODE_NONE;
 8002a5c:	687b      	ldr	r3, [r7, #4]
 8002a5e:	2200      	movs	r2, #0
 8002a60:	f883 203e 	strb.w	r2, [r3, #62]	@ 0x3e
          hi2c->PreviousState = I2C_STATE_NONE;
 8002a64:	687b      	ldr	r3, [r7, #4]
 8002a66:	2200      	movs	r2, #0
 8002a68:	631a      	str	r2, [r3, #48]	@ 0x30
          HAL_I2C_MemRxCpltCallback(hi2c);
 8002a6a:	6878      	ldr	r0, [r7, #4]
 8002a6c:	f7ff fdbd 	bl	80025ea <HAL_I2C_MemRxCpltCallback>
      if (I2C_WaitOnSTOPRequestThroughIT(hi2c) == HAL_OK)
 8002a70:	e044      	b.n	8002afc <I2C_MasterReceive_RXNE+0x188>
          hi2c->Mode = HAL_I2C_MODE_NONE;
 8002a72:	687b      	ldr	r3, [r7, #4]
 8002a74:	2200      	movs	r2, #0
 8002a76:	f883 203e 	strb.w	r2, [r3, #62]	@ 0x3e
          if ((CurrentXferOptions == I2C_FIRST_AND_LAST_FRAME) || (CurrentXferOptions == I2C_LAST_FRAME))
 8002a7a:	68fb      	ldr	r3, [r7, #12]
 8002a7c:	2b08      	cmp	r3, #8
 8002a7e:	d002      	beq.n	8002a86 <I2C_MasterReceive_RXNE+0x112>
 8002a80:	68fb      	ldr	r3, [r7, #12]
 8002a82:	2b20      	cmp	r3, #32
 8002a84:	d103      	bne.n	8002a8e <I2C_MasterReceive_RXNE+0x11a>
            hi2c->PreviousState = I2C_STATE_NONE;
 8002a86:	687b      	ldr	r3, [r7, #4]
 8002a88:	2200      	movs	r2, #0
 8002a8a:	631a      	str	r2, [r3, #48]	@ 0x30
 8002a8c:	e002      	b.n	8002a94 <I2C_MasterReceive_RXNE+0x120>
            hi2c->PreviousState = I2C_STATE_MASTER_BUSY_RX;
 8002a8e:	687b      	ldr	r3, [r7, #4]
 8002a90:	2212      	movs	r2, #18
 8002a92:	631a      	str	r2, [r3, #48]	@ 0x30
          HAL_I2C_MasterRxCpltCallback(hi2c);
 8002a94:	6878      	ldr	r0, [r7, #4]
 8002a96:	f7ff fd80 	bl	800259a <HAL_I2C_MasterRxCpltCallback>
      if (I2C_WaitOnSTOPRequestThroughIT(hi2c) == HAL_OK)
 8002a9a:	e02f      	b.n	8002afc <I2C_MasterReceive_RXNE+0x188>
        __HAL_I2C_DISABLE_IT(hi2c, I2C_IT_EVT | I2C_IT_BUF | I2C_IT_ERR);
 8002a9c:	687b      	ldr	r3, [r7, #4]
 8002a9e:	681b      	ldr	r3, [r3, #0]
 8002aa0:	685a      	ldr	r2, [r3, #4]
 8002aa2:	687b      	ldr	r3, [r7, #4]
 8002aa4:	681b      	ldr	r3, [r3, #0]
 8002aa6:	f422 62e0 	bic.w	r2, r2, #1792	@ 0x700
 8002aaa:	605a      	str	r2, [r3, #4]
        *hi2c->pBuffPtr = (uint8_t)hi2c->Instance->DR;
 8002aac:	687b      	ldr	r3, [r7, #4]
 8002aae:	681b      	ldr	r3, [r3, #0]
 8002ab0:	691a      	ldr	r2, [r3, #16]
 8002ab2:	687b      	ldr	r3, [r7, #4]
 8002ab4:	6a5b      	ldr	r3, [r3, #36]	@ 0x24
 8002ab6:	b2d2      	uxtb	r2, r2
 8002ab8:	701a      	strb	r2, [r3, #0]
        hi2c->pBuffPtr++;
 8002aba:	687b      	ldr	r3, [r7, #4]
 8002abc:	6a5b      	ldr	r3, [r3, #36]	@ 0x24
 8002abe:	1c5a      	adds	r2, r3, #1
 8002ac0:	687b      	ldr	r3, [r7, #4]
 8002ac2:	625a      	str	r2, [r3, #36]	@ 0x24
        hi2c->XferCount--;
 8002ac4:	687b      	ldr	r3, [r7, #4]
 8002ac6:	8d5b      	ldrh	r3, [r3, #42]	@ 0x2a
 8002ac8:	b29b      	uxth	r3, r3
 8002aca:	3b01      	subs	r3, #1
 8002acc:	b29a      	uxth	r2, r3
 8002ace:	687b      	ldr	r3, [r7, #4]
 8002ad0:	855a      	strh	r2, [r3, #42]	@ 0x2a
        hi2c->State = HAL_I2C_STATE_READY;
 8002ad2:	687b      	ldr	r3, [r7, #4]
 8002ad4:	2220      	movs	r2, #32
 8002ad6:	f883 203d 	strb.w	r2, [r3, #61]	@ 0x3d
        hi2c->Mode = HAL_I2C_MODE_NONE;
 8002ada:	687b      	ldr	r3, [r7, #4]
 8002adc:	2200      	movs	r2, #0
 8002ade:	f883 203e 	strb.w	r2, [r3, #62]	@ 0x3e
        HAL_I2C_ErrorCallback(hi2c);
 8002ae2:	6878      	ldr	r0, [r7, #4]
 8002ae4:	f7ff fd8a 	bl	80025fc <HAL_I2C_ErrorCallback>
      if (I2C_WaitOnSTOPRequestThroughIT(hi2c) == HAL_OK)
 8002ae8:	e008      	b.n	8002afc <I2C_MasterReceive_RXNE+0x188>
      __HAL_I2C_DISABLE_IT(hi2c, I2C_IT_BUF);
 8002aea:	687b      	ldr	r3, [r7, #4]
 8002aec:	681b      	ldr	r3, [r3, #0]
 8002aee:	685a      	ldr	r2, [r3, #4]
 8002af0:	687b      	ldr	r3, [r7, #4]
 8002af2:	681b      	ldr	r3, [r3, #0]
 8002af4:	f422 6280 	bic.w	r2, r2, #1024	@ 0x400
 8002af8:	605a      	str	r2, [r3, #4]
}
 8002afa:	e7ff      	b.n	8002afc <I2C_MasterReceive_RXNE+0x188>
 8002afc:	bf00      	nop
 8002afe:	3710      	adds	r7, #16
 8002b00:	46bd      	mov	sp, r7
 8002b02:	bd80      	pop	{r7, pc}

08002b04 <I2C_MasterReceive_BTF>:
  * @param  hi2c Pointer to a I2C_HandleTypeDef structure that contains
  *         the configuration information for I2C module
  * @retval None
  */
static void I2C_MasterReceive_BTF(I2C_HandleTypeDef *hi2c)
{
 8002b04:	b580      	push	{r7, lr}
 8002b06:	b084      	sub	sp, #16
 8002b08:	af00      	add	r7, sp, #0
 8002b0a:	6078      	str	r0, [r7, #4]
  /* Declaration of temporary variables to prevent undefined behavior of volatile usage */
  uint32_t CurrentXferOptions = hi2c->XferOptions;
 8002b0c:	687b      	ldr	r3, [r7, #4]
 8002b0e:	6adb      	ldr	r3, [r3, #44]	@ 0x2c
 8002b10:	60fb      	str	r3, [r7, #12]

  if (hi2c->XferCount == 4U)
 8002b12:	687b      	ldr	r3, [r7, #4]
 8002b14:	8d5b      	ldrh	r3, [r3, #42]	@ 0x2a
 8002b16:	b29b      	uxth	r3, r3
 8002b18:	2b04      	cmp	r3, #4
 8002b1a:	d11b      	bne.n	8002b54 <I2C_MasterReceive_BTF+0x50>
  {
    /* Disable BUF interrupt, this help to treat correctly the last 2 bytes
       on BTF subroutine if there is a reception delay between N-1 and N byte */
    __HAL_I2C_DISABLE_IT(hi2c, I2C_IT_BUF);
 8002b1c:	687b      	ldr	r3, [r7, #4]
 8002b1e:	681b      	ldr	r3, [r3, #0]
 8002b20:	685a      	ldr	r2, [r3, #4]
 8002b22:	687b      	ldr	r3, [r7, #4]
 8002b24:	681b      	ldr	r3, [r3, #0]
 8002b26:	f422 6280 	bic.w	r2, r2, #1024	@ 0x400
 8002b2a:	605a      	str	r2, [r3, #4]

    /* Read data from DR */
    *hi2c->pBuffPtr = (uint8_t)hi2c->Instance->DR;
 8002b2c:	687b      	ldr	r3, [r7, #4]
 8002b2e:	681b      	ldr	r3, [r3, #0]
 8002b30:	691a      	ldr	r2, [r3, #16]
 8002b32:	687b      	ldr	r3, [r7, #4]
 8002b34:	6a5b      	ldr	r3, [r3, #36]	@ 0x24
 8002b36:	b2d2      	uxtb	r2, r2
 8002b38:	701a      	strb	r2, [r3, #0]

    /* Increment Buffer pointer */
    hi2c->pBuffPtr++;
 8002b3a:	687b      	ldr	r3, [r7, #4]
 8002b3c:	6a5b      	ldr	r3, [r3, #36]	@ 0x24
 8002b3e:	1c5a      	adds	r2, r3, #1
 8002b40:	687b      	ldr	r3, [r7, #4]
 8002b42:	625a      	str	r2, [r3, #36]	@ 0x24

    /* Update counter */
    hi2c->XferCount--;
 8002b44:	687b      	ldr	r3, [r7, #4]
 8002b46:	8d5b      	ldrh	r3, [r3, #42]	@ 0x2a
 8002b48:	b29b      	uxth	r3, r3
 8002b4a:	3b01      	subs	r3, #1
 8002b4c:	b29a      	uxth	r2, r3
 8002b4e:	687b      	ldr	r3, [r7, #4]
 8002b50:	855a      	strh	r2, [r3, #42]	@ 0x2a
    hi2c->pBuffPtr++;

    /* Update counter */
    hi2c->XferCount--;
  }
}
 8002b52:	e0c4      	b.n	8002cde <I2C_MasterReceive_BTF+0x1da>
  else if (hi2c->XferCount == 3U)
 8002b54:	687b      	ldr	r3, [r7, #4]
 8002b56:	8d5b      	ldrh	r3, [r3, #42]	@ 0x2a
 8002b58:	b29b      	uxth	r3, r3
 8002b5a:	2b03      	cmp	r3, #3
 8002b5c:	d129      	bne.n	8002bb2 <I2C_MasterReceive_BTF+0xae>
    __HAL_I2C_DISABLE_IT(hi2c, I2C_IT_BUF);
 8002b5e:	687b      	ldr	r3, [r7, #4]
 8002b60:	681b      	ldr	r3, [r3, #0]
 8002b62:	685a      	ldr	r2, [r3, #4]
 8002b64:	687b      	ldr	r3, [r7, #4]
 8002b66:	681b      	ldr	r3, [r3, #0]
 8002b68:	f422 6280 	bic.w	r2, r2, #1024	@ 0x400
 8002b6c:	605a      	str	r2, [r3, #4]
    if ((CurrentXferOptions != I2C_NEXT_FRAME) && (CurrentXferOptions != I2C_FIRST_AND_NEXT_FRAME))
 8002b6e:	68fb      	ldr	r3, [r7, #12]
 8002b70:	2b04      	cmp	r3, #4
 8002b72:	d00a      	beq.n	8002b8a <I2C_MasterReceive_BTF+0x86>
 8002b74:	68fb      	ldr	r3, [r7, #12]
 8002b76:	2b02      	cmp	r3, #2
 8002b78:	d007      	beq.n	8002b8a <I2C_MasterReceive_BTF+0x86>
      CLEAR_BIT(hi2c->Instance->CR1, I2C_CR1_ACK);
 8002b7a:	687b      	ldr	r3, [r7, #4]
 8002b7c:	681b      	ldr	r3, [r3, #0]
 8002b7e:	681a      	ldr	r2, [r3, #0]
 8002b80:	687b      	ldr	r3, [r7, #4]
 8002b82:	681b      	ldr	r3, [r3, #0]
 8002b84:	f422 6280 	bic.w	r2, r2, #1024	@ 0x400
 8002b88:	601a      	str	r2, [r3, #0]
    *hi2c->pBuffPtr = (uint8_t)hi2c->Instance->DR;
 8002b8a:	687b      	ldr	r3, [r7, #4]
 8002b8c:	681b      	ldr	r3, [r3, #0]
 8002b8e:	691a      	ldr	r2, [r3, #16]
 8002b90:	687b      	ldr	r3, [r7, #4]
 8002b92:	6a5b      	ldr	r3, [r3, #36]	@ 0x24
 8002b94:	b2d2      	uxtb	r2, r2
 8002b96:	701a      	strb	r2, [r3, #0]
    hi2c->pBuffPtr++;
 8002b98:	687b      	ldr	r3, [r7, #4]
 8002b9a:	6a5b      	ldr	r3, [r3, #36]	@ 0x24
 8002b9c:	1c5a      	adds	r2, r3, #1
 8002b9e:	687b      	ldr	r3, [r7, #4]
 8002ba0:	625a      	str	r2, [r3, #36]	@ 0x24
    hi2c->XferCount--;
 8002ba2:	687b      	ldr	r3, [r7, #4]
 8002ba4:	8d5b      	ldrh	r3, [r3, #42]	@ 0x2a
 8002ba6:	b29b      	uxth	r3, r3
 8002ba8:	3b01      	subs	r3, #1
 8002baa:	b29a      	uxth	r2, r3
 8002bac:	687b      	ldr	r3, [r7, #4]
 8002bae:	855a      	strh	r2, [r3, #42]	@ 0x2a
}
 8002bb0:	e095      	b.n	8002cde <I2C_MasterReceive_BTF+0x1da>
  else if (hi2c->XferCount == 2U)
 8002bb2:	687b      	ldr	r3, [r7, #4]
 8002bb4:	8d5b      	ldrh	r3, [r3, #42]	@ 0x2a
 8002bb6:	b29b      	uxth	r3, r3
 8002bb8:	2b02      	cmp	r3, #2
 8002bba:	d17d      	bne.n	8002cb8 <I2C_MasterReceive_BTF+0x1b4>
    if ((CurrentXferOptions == I2C_FIRST_FRAME) || (CurrentXferOptions == I2C_LAST_FRAME_NO_STOP))
 8002bbc:	68fb      	ldr	r3, [r7, #12]
 8002bbe:	2b01      	cmp	r3, #1
 8002bc0:	d002      	beq.n	8002bc8 <I2C_MasterReceive_BTF+0xc4>
 8002bc2:	68fb      	ldr	r3, [r7, #12]
 8002bc4:	2b10      	cmp	r3, #16
 8002bc6:	d108      	bne.n	8002bda <I2C_MasterReceive_BTF+0xd6>
      CLEAR_BIT(hi2c->Instance->CR1, I2C_CR1_ACK);
 8002bc8:	687b      	ldr	r3, [r7, #4]
 8002bca:	681b      	ldr	r3, [r3, #0]
 8002bcc:	681a      	ldr	r2, [r3, #0]
 8002bce:	687b      	ldr	r3, [r7, #4]
 8002bd0:	681b      	ldr	r3, [r3, #0]
 8002bd2:	f422 6280 	bic.w	r2, r2, #1024	@ 0x400
 8002bd6:	601a      	str	r2, [r3, #0]
 8002bd8:	e016      	b.n	8002c08 <I2C_MasterReceive_BTF+0x104>
    else if ((CurrentXferOptions == I2C_NEXT_FRAME) || (CurrentXferOptions == I2C_FIRST_AND_NEXT_FRAME))
 8002bda:	68fb      	ldr	r3, [r7, #12]
 8002bdc:	2b04      	cmp	r3, #4
 8002bde:	d002      	beq.n	8002be6 <I2C_MasterReceive_BTF+0xe2>
 8002be0:	68fb      	ldr	r3, [r7, #12]
 8002be2:	2b02      	cmp	r3, #2
 8002be4:	d108      	bne.n	8002bf8 <I2C_MasterReceive_BTF+0xf4>
      SET_BIT(hi2c->Instance->CR1, I2C_CR1_ACK);
 8002be6:	687b      	ldr	r3, [r7, #4]
 8002be8:	681b      	ldr	r3, [r3, #0]
 8002bea:	681a      	ldr	r2, [r3, #0]
 8002bec:	687b      	ldr	r3, [r7, #4]
 8002bee:	681b      	ldr	r3, [r3, #0]
 8002bf0:	f442 6280 	orr.w	r2, r2, #1024	@ 0x400
 8002bf4:	601a      	str	r2, [r3, #0]
 8002bf6:	e007      	b.n	8002c08 <I2C_MasterReceive_BTF+0x104>
      SET_BIT(hi2c->Instance->CR1, I2C_CR1_STOP);
 8002bf8:	687b      	ldr	r3, [r7, #4]
 8002bfa:	681b      	ldr	r3, [r3, #0]
 8002bfc:	681a      	ldr	r2, [r3, #0]
 8002bfe:	687b      	ldr	r3, [r7, #4]
 8002c00:	681b      	ldr	r3, [r3, #0]
 8002c02:	f442 7200 	orr.w	r2, r2, #512	@ 0x200
 8002c06:	601a      	str	r2, [r3, #0]
    *hi2c->pBuffPtr = (uint8_t)hi2c->Instance->DR;
 8002c08:	687b      	ldr	r3, [r7, #4]
 8002c0a:	681b      	ldr	r3, [r3, #0]
 8002c0c:	691a      	ldr	r2, [r3, #16]
 8002c0e:	687b      	ldr	r3, [r7, #4]
 8002c10:	6a5b      	ldr	r3, [r3, #36]	@ 0x24
 8002c12:	b2d2      	uxtb	r2, r2
 8002c14:	701a      	strb	r2, [r3, #0]
    hi2c->pBuffPtr++;
 8002c16:	687b      	ldr	r3, [r7, #4]
 8002c18:	6a5b      	ldr	r3, [r3, #36]	@ 0x24
 8002c1a:	1c5a      	adds	r2, r3, #1
 8002c1c:	687b      	ldr	r3, [r7, #4]
 8002c1e:	625a      	str	r2, [r3, #36]	@ 0x24
    hi2c->XferCount--;
 8002c20:	687b      	ldr	r3, [r7, #4]
 8002c22:	8d5b      	ldrh	r3, [r3, #42]	@ 0x2a
 8002c24:	b29b      	uxth	r3, r3
 8002c26:	3b01      	subs	r3, #1
 8002c28:	b29a      	uxth	r2, r3
 8002c2a:	687b      	ldr	r3, [r7, #4]
 8002c2c:	855a      	strh	r2, [r3, #42]	@ 0x2a
    *hi2c->pBuffPtr = (uint8_t)hi2c->Instance->DR;
 8002c2e:	687b      	ldr	r3, [r7, #4]
 8002c30:	681b      	ldr	r3, [r3, #0]
 8002c32:	691a      	ldr	r2, [r3, #16]
 8002c34:	687b      	ldr	r3, [r7, #4]
 8002c36:	6a5b      	ldr	r3, [r3, #36]	@ 0x24
 8002c38:	b2d2      	uxtb	r2, r2
 8002c3a:	701a      	strb	r2, [r3, #0]
    hi2c->pBuffPtr++;
 8002c3c:	687b      	ldr	r3, [r7, #4]
 8002c3e:	6a5b      	ldr	r3, [r3, #36]	@ 0x24
 8002c40:	1c5a      	adds	r2, r3, #1
 8002c42:	687b      	ldr	r3, [r7, #4]
 8002c44:	625a      	str	r2, [r3, #36]	@ 0x24
    hi2c->XferCount--;
 8002c46:	687b      	ldr	r3, [r7, #4]
 8002c48:	8d5b      	ldrh	r3, [r3, #42]	@ 0x2a
 8002c4a:	b29b      	uxth	r3, r3
 8002c4c:	3b01      	subs	r3, #1
 8002c4e:	b29a      	uxth	r2, r3
 8002c50:	687b      	ldr	r3, [r7, #4]
 8002c52:	855a      	strh	r2, [r3, #42]	@ 0x2a
    __HAL_I2C_DISABLE_IT(hi2c, I2C_IT_EVT | I2C_IT_ERR);
 8002c54:	687b      	ldr	r3, [r7, #4]
 8002c56:	681b      	ldr	r3, [r3, #0]
 8002c58:	685a      	ldr	r2, [r3, #4]
 8002c5a:	687b      	ldr	r3, [r7, #4]
 8002c5c:	681b      	ldr	r3, [r3, #0]
 8002c5e:	f422 7240 	bic.w	r2, r2, #768	@ 0x300
 8002c62:	605a      	str	r2, [r3, #4]
    hi2c->State = HAL_I2C_STATE_READY;
 8002c64:	687b      	ldr	r3, [r7, #4]
 8002c66:	2220      	movs	r2, #32
 8002c68:	f883 203d 	strb.w	r2, [r3, #61]	@ 0x3d
    if (hi2c->Mode == HAL_I2C_MODE_MEM)
 8002c6c:	687b      	ldr	r3, [r7, #4]
 8002c6e:	f893 303e 	ldrb.w	r3, [r3, #62]	@ 0x3e
 8002c72:	b2db      	uxtb	r3, r3
 8002c74:	2b40      	cmp	r3, #64	@ 0x40
 8002c76:	d10a      	bne.n	8002c8e <I2C_MasterReceive_BTF+0x18a>
      hi2c->Mode = HAL_I2C_MODE_NONE;
 8002c78:	687b      	ldr	r3, [r7, #4]
 8002c7a:	2200      	movs	r2, #0
 8002c7c:	f883 203e 	strb.w	r2, [r3, #62]	@ 0x3e
      hi2c->PreviousState = I2C_STATE_NONE;
 8002c80:	687b      	ldr	r3, [r7, #4]
 8002c82:	2200      	movs	r2, #0
 8002c84:	631a      	str	r2, [r3, #48]	@ 0x30
      HAL_I2C_MemRxCpltCallback(hi2c);
 8002c86:	6878      	ldr	r0, [r7, #4]
 8002c88:	f7ff fcaf 	bl	80025ea <HAL_I2C_MemRxCpltCallback>
}
 8002c8c:	e027      	b.n	8002cde <I2C_MasterReceive_BTF+0x1da>
      hi2c->Mode = HAL_I2C_MODE_NONE;
 8002c8e:	687b      	ldr	r3, [r7, #4]
 8002c90:	2200      	movs	r2, #0
 8002c92:	f883 203e 	strb.w	r2, [r3, #62]	@ 0x3e
      if ((CurrentXferOptions == I2C_FIRST_AND_LAST_FRAME) || (CurrentXferOptions == I2C_LAST_FRAME))
 8002c96:	68fb      	ldr	r3, [r7, #12]
 8002c98:	2b08      	cmp	r3, #8
 8002c9a:	d002      	beq.n	8002ca2 <I2C_MasterReceive_BTF+0x19e>
 8002c9c:	68fb      	ldr	r3, [r7, #12]
 8002c9e:	2b20      	cmp	r3, #32
 8002ca0:	d103      	bne.n	8002caa <I2C_MasterReceive_BTF+0x1a6>
        hi2c->PreviousState = I2C_STATE_NONE;
 8002ca2:	687b      	ldr	r3, [r7, #4]
 8002ca4:	2200      	movs	r2, #0
 8002ca6:	631a      	str	r2, [r3, #48]	@ 0x30
 8002ca8:	e002      	b.n	8002cb0 <I2C_MasterReceive_BTF+0x1ac>
        hi2c->PreviousState = I2C_STATE_MASTER_BUSY_RX;
 8002caa:	687b      	ldr	r3, [r7, #4]
 8002cac:	2212      	movs	r2, #18
 8002cae:	631a      	str	r2, [r3, #48]	@ 0x30
      HAL_I2C_MasterRxCpltCallback(hi2c);
 8002cb0:	6878      	ldr	r0, [r7, #4]
 8002cb2:	f7ff fc72 	bl	800259a <HAL_I2C_MasterRxCpltCallback>
}
 8002cb6:	e012      	b.n	8002cde <I2C_MasterReceive_BTF+0x1da>
    *hi2c->pBuffPtr = (uint8_t)hi2c->Instance->DR;
 8002cb8:	687b      	ldr	r3, [r7, #4]
 8002cba:	681b      	ldr	r3, [r3, #0]
 8002cbc:	691a      	ldr	r2, [r3, #16]
 8002cbe:	687b      	ldr	r3, [r7, #4]
 8002cc0:	6a5b      	ldr	r3, [r3, #36]	@ 0x24
 8002cc2:	b2d2      	uxtb	r2, r2
 8002cc4:	701a      	strb	r2, [r3, #0]
    hi2c->pBuffPtr++;
 8002cc6:	687b      	ldr	r3, [r7, #4]
 8002cc8:	6a5b      	ldr	r3, [r3, #36]	@ 0x24
 8002cca:	1c5a      	adds	r2, r3, #1
 8002ccc:	687b      	ldr	r3, [r7, #4]
 8002cce:	625a      	str	r2, [r3, #36]	@ 0x24
    hi2c->XferCount--;
 8002cd0:	687b      	ldr	r3, [r7, #4]
 8002cd2:	8d5b      	ldrh	r3, [r3, #42]	@ 0x2a
 8002cd4:	b29b      	uxth	r3, r3
 8002cd6:	3b01      	subs	r3, #1
 8002cd8:	b29a      	uxth	r2, r3
 8002cda:	687b      	ldr	r3, [r7, #4]
 8002cdc:	855a      	strh	r2, [r3, #42]	@ 0x2a
}
 8002cde:	bf00      	nop
 8002ce0:	3710      	adds	r7, #16
 8002ce2:	46bd      	mov	sp, r7
 8002ce4:	bd80      	pop	{r7, pc}

08002ce6 <I2C_Master_SB>:
  * @param  hi2c Pointer to a I2C_HandleTypeDef structure that contains
  *         the configuration information for I2C module
  * @retval None
  */
static void I2C_Master_SB(I2C_HandleTypeDef *hi2c)
{
 8002ce6:	b480      	push	{r7}
 8002ce8:	b083      	sub	sp, #12
 8002cea:	af00      	add	r7, sp, #0
 8002cec:	6078      	str	r0, [r7, #4]
  if (hi2c->Mode == HAL_I2C_MODE_MEM)
 8002cee:	687b      	ldr	r3, [r7, #4]
 8002cf0:	f893 303e 	ldrb.w	r3, [r3, #62]	@ 0x3e
 8002cf4:	b2db      	uxtb	r3, r3
 8002cf6:	2b40      	cmp	r3, #64	@ 0x40
 8002cf8:	d117      	bne.n	8002d2a <I2C_Master_SB+0x44>
  {
    if (hi2c->EventCount == 0U)
 8002cfa:	687b      	ldr	r3, [r7, #4]
 8002cfc:	6d1b      	ldr	r3, [r3, #80]	@ 0x50
 8002cfe:	2b00      	cmp	r3, #0
 8002d00:	d109      	bne.n	8002d16 <I2C_Master_SB+0x30>
    {
      /* Send slave address */
      hi2c->Instance->DR = I2C_7BIT_ADD_WRITE(hi2c->Devaddress);
 8002d02:	687b      	ldr	r3, [r7, #4]
 8002d04:	6c5b      	ldr	r3, [r3, #68]	@ 0x44
 8002d06:	b2db      	uxtb	r3, r3
 8002d08:	461a      	mov	r2, r3
 8002d0a:	687b      	ldr	r3, [r7, #4]
 8002d0c:	681b      	ldr	r3, [r3, #0]
 8002d0e:	f002 02fe 	and.w	r2, r2, #254	@ 0xfe
 8002d12:	611a      	str	r2, [r3, #16]
      {
        /* Do nothing */
      }
    }
  }
}
 8002d14:	e067      	b.n	8002de6 <I2C_Master_SB+0x100>
      hi2c->Instance->DR = I2C_7BIT_ADD_READ(hi2c->Devaddress);
 8002d16:	687b      	ldr	r3, [r7, #4]
 8002d18:	6c5b      	ldr	r3, [r3, #68]	@ 0x44
 8002d1a:	b2db      	uxtb	r3, r3
 8002d1c:	f043 0301 	orr.w	r3, r3, #1
 8002d20:	b2da      	uxtb	r2, r3
 8002d22:	687b      	ldr	r3, [r7, #4]
 8002d24:	681b      	ldr	r3, [r3, #0]
 8002d26:	611a      	str	r2, [r3, #16]
}
 8002d28:	e05d      	b.n	8002de6 <I2C_Master_SB+0x100>
    if (hi2c->Init.AddressingMode == I2C_ADDRESSINGMODE_7BIT)
 8002d2a:	687b      	ldr	r3, [r7, #4]
 8002d2c:	691b      	ldr	r3, [r3, #16]
 8002d2e:	f5b3 4f80 	cmp.w	r3, #16384	@ 0x4000
 8002d32:	d133      	bne.n	8002d9c <I2C_Master_SB+0xb6>
      if (hi2c->State == HAL_I2C_STATE_BUSY_TX)
 8002d34:	687b      	ldr	r3, [r7, #4]
 8002d36:	f893 303d 	ldrb.w	r3, [r3, #61]	@ 0x3d
 8002d3a:	b2db      	uxtb	r3, r3
 8002d3c:	2b21      	cmp	r3, #33	@ 0x21
 8002d3e:	d109      	bne.n	8002d54 <I2C_Master_SB+0x6e>
        hi2c->Instance->DR = I2C_7BIT_ADD_WRITE(hi2c->Devaddress);
 8002d40:	687b      	ldr	r3, [r7, #4]
 8002d42:	6c5b      	ldr	r3, [r3, #68]	@ 0x44
 8002d44:	b2db      	uxtb	r3, r3
 8002d46:	461a      	mov	r2, r3
 8002d48:	687b      	ldr	r3, [r7, #4]
 8002d4a:	681b      	ldr	r3, [r3, #0]
 8002d4c:	f002 02fe 	and.w	r2, r2, #254	@ 0xfe
 8002d50:	611a      	str	r2, [r3, #16]
 8002d52:	e008      	b.n	8002d66 <I2C_Master_SB+0x80>
        hi2c->Instance->DR = I2C_7BIT_ADD_READ(hi2c->Devaddress);
 8002d54:	687b      	ldr	r3, [r7, #4]
 8002d56:	6c5b      	ldr	r3, [r3, #68]	@ 0x44
 8002d58:	b2db      	uxtb	r3, r3
 8002d5a:	f043 0301 	orr.w	r3, r3, #1
 8002d5e:	b2da      	uxtb	r2, r3
 8002d60:	687b      	ldr	r3, [r7, #4]
 8002d62:	681b      	ldr	r3, [r3, #0]
 8002d64:	611a      	str	r2, [r3, #16]
      if (((hi2c->hdmatx != NULL) && (hi2c->hdmatx->XferCpltCallback != NULL))
 8002d66:	687b      	ldr	r3, [r7, #4]
 8002d68:	6b5b      	ldr	r3, [r3, #52]	@ 0x34
 8002d6a:	2b00      	cmp	r3, #0
 8002d6c:	d004      	beq.n	8002d78 <I2C_Master_SB+0x92>
 8002d6e:	687b      	ldr	r3, [r7, #4]
 8002d70:	6b5b      	ldr	r3, [r3, #52]	@ 0x34
 8002d72:	6a9b      	ldr	r3, [r3, #40]	@ 0x28
 8002d74:	2b00      	cmp	r3, #0
 8002d76:	d108      	bne.n	8002d8a <I2C_Master_SB+0xa4>
          || ((hi2c->hdmarx != NULL) && (hi2c->hdmarx->XferCpltCallback != NULL)))
 8002d78:	687b      	ldr	r3, [r7, #4]
 8002d7a:	6b9b      	ldr	r3, [r3, #56]	@ 0x38
 8002d7c:	2b00      	cmp	r3, #0
 8002d7e:	d032      	beq.n	8002de6 <I2C_Master_SB+0x100>
 8002d80:	687b      	ldr	r3, [r7, #4]
 8002d82:	6b9b      	ldr	r3, [r3, #56]	@ 0x38
 8002d84:	6a9b      	ldr	r3, [r3, #40]	@ 0x28
 8002d86:	2b00      	cmp	r3, #0
 8002d88:	d02d      	beq.n	8002de6 <I2C_Master_SB+0x100>
        SET_BIT(hi2c->Instance->CR2, I2C_CR2_DMAEN);
 8002d8a:	687b      	ldr	r3, [r7, #4]
 8002d8c:	681b      	ldr	r3, [r3, #0]
 8002d8e:	685a      	ldr	r2, [r3, #4]
 8002d90:	687b      	ldr	r3, [r7, #4]
 8002d92:	681b      	ldr	r3, [r3, #0]
 8002d94:	f442 6200 	orr.w	r2, r2, #2048	@ 0x800
 8002d98:	605a      	str	r2, [r3, #4]
}
 8002d9a:	e024      	b.n	8002de6 <I2C_Master_SB+0x100>
      if (hi2c->EventCount == 0U)
 8002d9c:	687b      	ldr	r3, [r7, #4]
 8002d9e:	6d1b      	ldr	r3, [r3, #80]	@ 0x50
 8002da0:	2b00      	cmp	r3, #0
 8002da2:	d10e      	bne.n	8002dc2 <I2C_Master_SB+0xdc>
        hi2c->Instance->DR = I2C_10BIT_HEADER_WRITE(hi2c->Devaddress);
 8002da4:	687b      	ldr	r3, [r7, #4]
 8002da6:	6c5b      	ldr	r3, [r3, #68]	@ 0x44
 8002da8:	b29b      	uxth	r3, r3
 8002daa:	11db      	asrs	r3, r3, #7
 8002dac:	b2db      	uxtb	r3, r3
 8002dae:	f003 0306 	and.w	r3, r3, #6
 8002db2:	b2db      	uxtb	r3, r3
 8002db4:	f063 030f 	orn	r3, r3, #15
 8002db8:	b2da      	uxtb	r2, r3
 8002dba:	687b      	ldr	r3, [r7, #4]
 8002dbc:	681b      	ldr	r3, [r3, #0]
 8002dbe:	611a      	str	r2, [r3, #16]
}
 8002dc0:	e011      	b.n	8002de6 <I2C_Master_SB+0x100>
      else if (hi2c->EventCount == 1U)
 8002dc2:	687b      	ldr	r3, [r7, #4]
 8002dc4:	6d1b      	ldr	r3, [r3, #80]	@ 0x50
 8002dc6:	2b01      	cmp	r3, #1
 8002dc8:	d10d      	bne.n	8002de6 <I2C_Master_SB+0x100>
        hi2c->Instance->DR = I2C_10BIT_HEADER_READ(hi2c->Devaddress);
 8002dca:	687b      	ldr	r3, [r7, #4]
 8002dcc:	6c5b      	ldr	r3, [r3, #68]	@ 0x44
 8002dce:	b29b      	uxth	r3, r3
 8002dd0:	11db      	asrs	r3, r3, #7
 8002dd2:	b2db      	uxtb	r3, r3
 8002dd4:	f003 0306 	and.w	r3, r3, #6
 8002dd8:	b2db      	uxtb	r3, r3
 8002dda:	f063 030e 	orn	r3, r3, #14
 8002dde:	b2da      	uxtb	r2, r3
 8002de0:	687b      	ldr	r3, [r7, #4]
 8002de2:	681b      	ldr	r3, [r3, #0]
 8002de4:	611a      	str	r2, [r3, #16]
}
 8002de6:	bf00      	nop
 8002de8:	370c      	adds	r7, #12
 8002dea:	46bd      	mov	sp, r7
 8002dec:	bc80      	pop	{r7}
 8002dee:	4770      	bx	lr

08002df0 <I2C_Master_ADD10>:
  * @param  hi2c Pointer to a I2C_HandleTypeDef structure that contains
  *         the configuration information for I2C module
  * @retval None
  */
static void I2C_Master_ADD10(I2C_HandleTypeDef *hi2c)
{
 8002df0:	b480      	push	{r7}
 8002df2:	b083      	sub	sp, #12
 8002df4:	af00      	add	r7, sp, #0
 8002df6:	6078      	str	r0, [r7, #4]
  /* Send slave address */
  hi2c->Instance->DR = I2C_10BIT_ADDRESS(hi2c->Devaddress);
 8002df8:	687b      	ldr	r3, [r7, #4]
 8002dfa:	6c5b      	ldr	r3, [r3, #68]	@ 0x44
 8002dfc:	b2da      	uxtb	r2, r3
 8002dfe:	687b      	ldr	r3, [r7, #4]
 8002e00:	681b      	ldr	r3, [r3, #0]
 8002e02:	611a      	str	r2, [r3, #16]

  if (((hi2c->hdmatx != NULL) && (hi2c->hdmatx->XferCpltCallback != NULL))
 8002e04:	687b      	ldr	r3, [r7, #4]
 8002e06:	6b5b      	ldr	r3, [r3, #52]	@ 0x34
 8002e08:	2b00      	cmp	r3, #0
 8002e0a:	d004      	beq.n	8002e16 <I2C_Master_ADD10+0x26>
 8002e0c:	687b      	ldr	r3, [r7, #4]
 8002e0e:	6b5b      	ldr	r3, [r3, #52]	@ 0x34
 8002e10:	6a9b      	ldr	r3, [r3, #40]	@ 0x28
 8002e12:	2b00      	cmp	r3, #0
 8002e14:	d108      	bne.n	8002e28 <I2C_Master_ADD10+0x38>
      || ((hi2c->hdmarx != NULL) && (hi2c->hdmarx->XferCpltCallback != NULL)))
 8002e16:	687b      	ldr	r3, [r7, #4]
 8002e18:	6b9b      	ldr	r3, [r3, #56]	@ 0x38
 8002e1a:	2b00      	cmp	r3, #0
 8002e1c:	d00c      	beq.n	8002e38 <I2C_Master_ADD10+0x48>
 8002e1e:	687b      	ldr	r3, [r7, #4]
 8002e20:	6b9b      	ldr	r3, [r3, #56]	@ 0x38
 8002e22:	6a9b      	ldr	r3, [r3, #40]	@ 0x28
 8002e24:	2b00      	cmp	r3, #0
 8002e26:	d007      	beq.n	8002e38 <I2C_Master_ADD10+0x48>
  {
    /* Enable DMA Request */
    SET_BIT(hi2c->Instance->CR2, I2C_CR2_DMAEN);
 8002e28:	687b      	ldr	r3, [r7, #4]
 8002e2a:	681b      	ldr	r3, [r3, #0]
 8002e2c:	685a      	ldr	r2, [r3, #4]
 8002e2e:	687b      	ldr	r3, [r7, #4]
 8002e30:	681b      	ldr	r3, [r3, #0]
 8002e32:	f442 6200 	orr.w	r2, r2, #2048	@ 0x800
 8002e36:	605a      	str	r2, [r3, #4]
  }
}
 8002e38:	bf00      	nop
 8002e3a:	370c      	adds	r7, #12
 8002e3c:	46bd      	mov	sp, r7
 8002e3e:	bc80      	pop	{r7}
 8002e40:	4770      	bx	lr

08002e42 <I2C_Master_ADDR>:
  * @param  hi2c Pointer to a I2C_HandleTypeDef structure that contains
  *         the configuration information for I2C module
  * @retval None
  */
static void I2C_Master_ADDR(I2C_HandleTypeDef *hi2c)
{
 8002e42:	b480      	push	{r7}
 8002e44:	b091      	sub	sp, #68	@ 0x44
 8002e46:	af00      	add	r7, sp, #0
 8002e48:	6078      	str	r0, [r7, #4]
  /* Declaration of temporary variable to prevent undefined behavior of volatile usage */
  HAL_I2C_ModeTypeDef CurrentMode       = hi2c->Mode;
 8002e4a:	687b      	ldr	r3, [r7, #4]
 8002e4c:	f893 303e 	ldrb.w	r3, [r3, #62]	@ 0x3e
 8002e50:	f887 303f 	strb.w	r3, [r7, #63]	@ 0x3f
  uint32_t CurrentXferOptions           = hi2c->XferOptions;
 8002e54:	687b      	ldr	r3, [r7, #4]
 8002e56:	6adb      	ldr	r3, [r3, #44]	@ 0x2c
 8002e58:	63bb      	str	r3, [r7, #56]	@ 0x38
  uint32_t Prev_State                   = hi2c->PreviousState;
 8002e5a:	687b      	ldr	r3, [r7, #4]
 8002e5c:	6b1b      	ldr	r3, [r3, #48]	@ 0x30
 8002e5e:	637b      	str	r3, [r7, #52]	@ 0x34

  if (hi2c->State == HAL_I2C_STATE_BUSY_RX)
 8002e60:	687b      	ldr	r3, [r7, #4]
 8002e62:	f893 303d 	ldrb.w	r3, [r3, #61]	@ 0x3d
 8002e66:	b2db      	uxtb	r3, r3
 8002e68:	2b22      	cmp	r3, #34	@ 0x22
 8002e6a:	f040 8174 	bne.w	8003156 <I2C_Master_ADDR+0x314>
  {
    if ((hi2c->EventCount == 0U) && (CurrentMode == HAL_I2C_MODE_MEM))
 8002e6e:	687b      	ldr	r3, [r7, #4]
 8002e70:	6d1b      	ldr	r3, [r3, #80]	@ 0x50
 8002e72:	2b00      	cmp	r3, #0
 8002e74:	d10f      	bne.n	8002e96 <I2C_Master_ADDR+0x54>
 8002e76:	f897 303f 	ldrb.w	r3, [r7, #63]	@ 0x3f
 8002e7a:	2b40      	cmp	r3, #64	@ 0x40
 8002e7c:	d10b      	bne.n	8002e96 <I2C_Master_ADDR+0x54>
    {
      /* Clear ADDR flag */
      __HAL_I2C_CLEAR_ADDRFLAG(hi2c);
 8002e7e:	2300      	movs	r3, #0
 8002e80:	633b      	str	r3, [r7, #48]	@ 0x30
 8002e82:	687b      	ldr	r3, [r7, #4]
 8002e84:	681b      	ldr	r3, [r3, #0]
 8002e86:	695b      	ldr	r3, [r3, #20]
 8002e88:	633b      	str	r3, [r7, #48]	@ 0x30
 8002e8a:	687b      	ldr	r3, [r7, #4]
 8002e8c:	681b      	ldr	r3, [r3, #0]
 8002e8e:	699b      	ldr	r3, [r3, #24]
 8002e90:	633b      	str	r3, [r7, #48]	@ 0x30
 8002e92:	6b3b      	ldr	r3, [r7, #48]	@ 0x30
 8002e94:	e16b      	b.n	800316e <I2C_Master_ADDR+0x32c>
    }
    else if ((hi2c->EventCount == 0U) && (hi2c->Init.AddressingMode == I2C_ADDRESSINGMODE_10BIT))
 8002e96:	687b      	ldr	r3, [r7, #4]
 8002e98:	6d1b      	ldr	r3, [r3, #80]	@ 0x50
 8002e9a:	2b00      	cmp	r3, #0
 8002e9c:	d11d      	bne.n	8002eda <I2C_Master_ADDR+0x98>
 8002e9e:	687b      	ldr	r3, [r7, #4]
 8002ea0:	691b      	ldr	r3, [r3, #16]
 8002ea2:	f5b3 4f40 	cmp.w	r3, #49152	@ 0xc000
 8002ea6:	d118      	bne.n	8002eda <I2C_Master_ADDR+0x98>
    {
      /* Clear ADDR flag */
      __HAL_I2C_CLEAR_ADDRFLAG(hi2c);
 8002ea8:	2300      	movs	r3, #0
 8002eaa:	62fb      	str	r3, [r7, #44]	@ 0x2c
 8002eac:	687b      	ldr	r3, [r7, #4]
 8002eae:	681b      	ldr	r3, [r3, #0]
 8002eb0:	695b      	ldr	r3, [r3, #20]
 8002eb2:	62fb      	str	r3, [r7, #44]	@ 0x2c
 8002eb4:	687b      	ldr	r3, [r7, #4]
 8002eb6:	681b      	ldr	r3, [r3, #0]
 8002eb8:	699b      	ldr	r3, [r3, #24]
 8002eba:	62fb      	str	r3, [r7, #44]	@ 0x2c
 8002ebc:	6afb      	ldr	r3, [r7, #44]	@ 0x2c

      /* Generate Restart */
      SET_BIT(hi2c->Instance->CR1, I2C_CR1_START);
 8002ebe:	687b      	ldr	r3, [r7, #4]
 8002ec0:	681b      	ldr	r3, [r3, #0]
 8002ec2:	681a      	ldr	r2, [r3, #0]
 8002ec4:	687b      	ldr	r3, [r7, #4]
 8002ec6:	681b      	ldr	r3, [r3, #0]
 8002ec8:	f442 7280 	orr.w	r2, r2, #256	@ 0x100
 8002ecc:	601a      	str	r2, [r3, #0]

      hi2c->EventCount++;
 8002ece:	687b      	ldr	r3, [r7, #4]
 8002ed0:	6d1b      	ldr	r3, [r3, #80]	@ 0x50
 8002ed2:	1c5a      	adds	r2, r3, #1
 8002ed4:	687b      	ldr	r3, [r7, #4]
 8002ed6:	651a      	str	r2, [r3, #80]	@ 0x50
 8002ed8:	e149      	b.n	800316e <I2C_Master_ADDR+0x32c>
    }
    else
    {
      if (hi2c->XferCount == 0U)
 8002eda:	687b      	ldr	r3, [r7, #4]
 8002edc:	8d5b      	ldrh	r3, [r3, #42]	@ 0x2a
 8002ede:	b29b      	uxth	r3, r3
 8002ee0:	2b00      	cmp	r3, #0
 8002ee2:	d113      	bne.n	8002f0c <I2C_Master_ADDR+0xca>
      {
        /* Clear ADDR flag */
        __HAL_I2C_CLEAR_ADDRFLAG(hi2c);
 8002ee4:	2300      	movs	r3, #0
 8002ee6:	62bb      	str	r3, [r7, #40]	@ 0x28
 8002ee8:	687b      	ldr	r3, [r7, #4]
 8002eea:	681b      	ldr	r3, [r3, #0]
 8002eec:	695b      	ldr	r3, [r3, #20]
 8002eee:	62bb      	str	r3, [r7, #40]	@ 0x28
 8002ef0:	687b      	ldr	r3, [r7, #4]
 8002ef2:	681b      	ldr	r3, [r3, #0]
 8002ef4:	699b      	ldr	r3, [r3, #24]
 8002ef6:	62bb      	str	r3, [r7, #40]	@ 0x28
 8002ef8:	6abb      	ldr	r3, [r7, #40]	@ 0x28

        /* Generate Stop */
        SET_BIT(hi2c->Instance->CR1, I2C_CR1_STOP);
 8002efa:	687b      	ldr	r3, [r7, #4]
 8002efc:	681b      	ldr	r3, [r3, #0]
 8002efe:	681a      	ldr	r2, [r3, #0]
 8002f00:	687b      	ldr	r3, [r7, #4]
 8002f02:	681b      	ldr	r3, [r3, #0]
 8002f04:	f442 7200 	orr.w	r2, r2, #512	@ 0x200
 8002f08:	601a      	str	r2, [r3, #0]
 8002f0a:	e120      	b.n	800314e <I2C_Master_ADDR+0x30c>
      }
      else if (hi2c->XferCount == 1U)
 8002f0c:	687b      	ldr	r3, [r7, #4]
 8002f0e:	8d5b      	ldrh	r3, [r3, #42]	@ 0x2a
 8002f10:	b29b      	uxth	r3, r3
 8002f12:	2b01      	cmp	r3, #1
 8002f14:	f040 808a 	bne.w	800302c <I2C_Master_ADDR+0x1ea>
      {
        if (CurrentXferOptions == I2C_NO_OPTION_FRAME)
 8002f18:	6bbb      	ldr	r3, [r7, #56]	@ 0x38
 8002f1a:	f513 3f80 	cmn.w	r3, #65536	@ 0x10000
 8002f1e:	d137      	bne.n	8002f90 <I2C_Master_ADDR+0x14e>
        {
          /* Disable Acknowledge */
          CLEAR_BIT(hi2c->Instance->CR1, I2C_CR1_ACK);
 8002f20:	687b      	ldr	r3, [r7, #4]
 8002f22:	681b      	ldr	r3, [r3, #0]
 8002f24:	681a      	ldr	r2, [r3, #0]
 8002f26:	687b      	ldr	r3, [r7, #4]
 8002f28:	681b      	ldr	r3, [r3, #0]
 8002f2a:	f422 6280 	bic.w	r2, r2, #1024	@ 0x400
 8002f2e:	601a      	str	r2, [r3, #0]

          if ((hi2c->Instance->CR2 & I2C_CR2_DMAEN) == I2C_CR2_DMAEN)
 8002f30:	687b      	ldr	r3, [r7, #4]
 8002f32:	681b      	ldr	r3, [r3, #0]
 8002f34:	685b      	ldr	r3, [r3, #4]
 8002f36:	f403 6300 	and.w	r3, r3, #2048	@ 0x800
 8002f3a:	f5b3 6f00 	cmp.w	r3, #2048	@ 0x800
 8002f3e:	d113      	bne.n	8002f68 <I2C_Master_ADDR+0x126>
          {
            /* Disable Acknowledge */
            CLEAR_BIT(hi2c->Instance->CR1, I2C_CR1_ACK);
 8002f40:	687b      	ldr	r3, [r7, #4]
 8002f42:	681b      	ldr	r3, [r3, #0]
 8002f44:	681a      	ldr	r2, [r3, #0]
 8002f46:	687b      	ldr	r3, [r7, #4]
 8002f48:	681b      	ldr	r3, [r3, #0]
 8002f4a:	f422 6280 	bic.w	r2, r2, #1024	@ 0x400
 8002f4e:	601a      	str	r2, [r3, #0]

            /* Clear ADDR flag */
            __HAL_I2C_CLEAR_ADDRFLAG(hi2c);
 8002f50:	2300      	movs	r3, #0
 8002f52:	627b      	str	r3, [r7, #36]	@ 0x24
 8002f54:	687b      	ldr	r3, [r7, #4]
 8002f56:	681b      	ldr	r3, [r3, #0]
 8002f58:	695b      	ldr	r3, [r3, #20]
 8002f5a:	627b      	str	r3, [r7, #36]	@ 0x24
 8002f5c:	687b      	ldr	r3, [r7, #4]
 8002f5e:	681b      	ldr	r3, [r3, #0]
 8002f60:	699b      	ldr	r3, [r3, #24]
 8002f62:	627b      	str	r3, [r7, #36]	@ 0x24
 8002f64:	6a7b      	ldr	r3, [r7, #36]	@ 0x24
 8002f66:	e0f2      	b.n	800314e <I2C_Master_ADDR+0x30c>
          }
          else
          {
            /* Clear ADDR flag */
            __HAL_I2C_CLEAR_ADDRFLAG(hi2c);
 8002f68:	2300      	movs	r3, #0
 8002f6a:	623b      	str	r3, [r7, #32]
 8002f6c:	687b      	ldr	r3, [r7, #4]
 8002f6e:	681b      	ldr	r3, [r3, #0]
 8002f70:	695b      	ldr	r3, [r3, #20]
 8002f72:	623b      	str	r3, [r7, #32]
 8002f74:	687b      	ldr	r3, [r7, #4]
 8002f76:	681b      	ldr	r3, [r3, #0]
 8002f78:	699b      	ldr	r3, [r3, #24]
 8002f7a:	623b      	str	r3, [r7, #32]
 8002f7c:	6a3b      	ldr	r3, [r7, #32]

            /* Generate Stop */
            SET_BIT(hi2c->Instance->CR1, I2C_CR1_STOP);
 8002f7e:	687b      	ldr	r3, [r7, #4]
 8002f80:	681b      	ldr	r3, [r3, #0]
 8002f82:	681a      	ldr	r2, [r3, #0]
 8002f84:	687b      	ldr	r3, [r7, #4]
 8002f86:	681b      	ldr	r3, [r3, #0]
 8002f88:	f442 7200 	orr.w	r2, r2, #512	@ 0x200
 8002f8c:	601a      	str	r2, [r3, #0]
 8002f8e:	e0de      	b.n	800314e <I2C_Master_ADDR+0x30c>
          }
        }
        /* Prepare next transfer or stop current transfer */
        else if ((CurrentXferOptions != I2C_FIRST_AND_LAST_FRAME) && (CurrentXferOptions != I2C_LAST_FRAME) \
 8002f90:	6bbb      	ldr	r3, [r7, #56]	@ 0x38
 8002f92:	2b08      	cmp	r3, #8
 8002f94:	d02e      	beq.n	8002ff4 <I2C_Master_ADDR+0x1b2>
 8002f96:	6bbb      	ldr	r3, [r7, #56]	@ 0x38
 8002f98:	2b20      	cmp	r3, #32
 8002f9a:	d02b      	beq.n	8002ff4 <I2C_Master_ADDR+0x1b2>
                 && ((Prev_State != I2C_STATE_MASTER_BUSY_RX) || (CurrentXferOptions == I2C_FIRST_FRAME)))
 8002f9c:	6b7b      	ldr	r3, [r7, #52]	@ 0x34
 8002f9e:	2b12      	cmp	r3, #18
 8002fa0:	d102      	bne.n	8002fa8 <I2C_Master_ADDR+0x166>
 8002fa2:	6bbb      	ldr	r3, [r7, #56]	@ 0x38
 8002fa4:	2b01      	cmp	r3, #1
 8002fa6:	d125      	bne.n	8002ff4 <I2C_Master_ADDR+0x1b2>
        {
          if ((CurrentXferOptions != I2C_NEXT_FRAME) && (CurrentXferOptions != I2C_FIRST_AND_NEXT_FRAME) && (CurrentXferOptions != I2C_LAST_FRAME_NO_STOP))
 8002fa8:	6bbb      	ldr	r3, [r7, #56]	@ 0x38
 8002faa:	2b04      	cmp	r3, #4
 8002fac:	d00e      	beq.n	8002fcc <I2C_Master_ADDR+0x18a>
 8002fae:	6bbb      	ldr	r3, [r7, #56]	@ 0x38
 8002fb0:	2b02      	cmp	r3, #2
 8002fb2:	d00b      	beq.n	8002fcc <I2C_Master_ADDR+0x18a>
 8002fb4:	6bbb      	ldr	r3, [r7, #56]	@ 0x38
 8002fb6:	2b10      	cmp	r3, #16
 8002fb8:	d008      	beq.n	8002fcc <I2C_Master_ADDR+0x18a>
          {
            /* Disable Acknowledge */
            CLEAR_BIT(hi2c->Instance->CR1, I2C_CR1_ACK);
 8002fba:	687b      	ldr	r3, [r7, #4]
 8002fbc:	681b      	ldr	r3, [r3, #0]
 8002fbe:	681a      	ldr	r2, [r3, #0]
 8002fc0:	687b      	ldr	r3, [r7, #4]
 8002fc2:	681b      	ldr	r3, [r3, #0]
 8002fc4:	f422 6280 	bic.w	r2, r2, #1024	@ 0x400
 8002fc8:	601a      	str	r2, [r3, #0]
 8002fca:	e007      	b.n	8002fdc <I2C_Master_ADDR+0x19a>
          }
          else
          {
            /* Enable Acknowledge */
            SET_BIT(hi2c->Instance->CR1, I2C_CR1_ACK);
 8002fcc:	687b      	ldr	r3, [r7, #4]
 8002fce:	681b      	ldr	r3, [r3, #0]
 8002fd0:	681a      	ldr	r2, [r3, #0]
 8002fd2:	687b      	ldr	r3, [r7, #4]
 8002fd4:	681b      	ldr	r3, [r3, #0]
 8002fd6:	f442 6280 	orr.w	r2, r2, #1024	@ 0x400
 8002fda:	601a      	str	r2, [r3, #0]
          }

          /* Clear ADDR flag */
          __HAL_I2C_CLEAR_ADDRFLAG(hi2c);
 8002fdc:	2300      	movs	r3, #0
 8002fde:	61fb      	str	r3, [r7, #28]
 8002fe0:	687b      	ldr	r3, [r7, #4]
 8002fe2:	681b      	ldr	r3, [r3, #0]
 8002fe4:	695b      	ldr	r3, [r3, #20]
 8002fe6:	61fb      	str	r3, [r7, #28]
 8002fe8:	687b      	ldr	r3, [r7, #4]
 8002fea:	681b      	ldr	r3, [r3, #0]
 8002fec:	699b      	ldr	r3, [r3, #24]
 8002fee:	61fb      	str	r3, [r7, #28]
 8002ff0:	69fb      	ldr	r3, [r7, #28]
 8002ff2:	e0ac      	b.n	800314e <I2C_Master_ADDR+0x30c>
        }
        else
        {
          /* Disable Acknowledge */
          CLEAR_BIT(hi2c->Instance->CR1, I2C_CR1_ACK);
 8002ff4:	687b      	ldr	r3, [r7, #4]
 8002ff6:	681b      	ldr	r3, [r3, #0]
 8002ff8:	681a      	ldr	r2, [r3, #0]
 8002ffa:	687b      	ldr	r3, [r7, #4]
 8002ffc:	681b      	ldr	r3, [r3, #0]
 8002ffe:	f422 6280 	bic.w	r2, r2, #1024	@ 0x400
 8003002:	601a      	str	r2, [r3, #0]

          /* Clear ADDR flag */
          __HAL_I2C_CLEAR_ADDRFLAG(hi2c);
 8003004:	2300      	movs	r3, #0
 8003006:	61bb      	str	r3, [r7, #24]
 8003008:	687b      	ldr	r3, [r7, #4]
 800300a:	681b      	ldr	r3, [r3, #0]
 800300c:	695b      	ldr	r3, [r3, #20]
 800300e:	61bb      	str	r3, [r7, #24]
 8003010:	687b      	ldr	r3, [r7, #4]
 8003012:	681b      	ldr	r3, [r3, #0]
 8003014:	699b      	ldr	r3, [r3, #24]
 8003016:	61bb      	str	r3, [r7, #24]
 8003018:	69bb      	ldr	r3, [r7, #24]

          /* Generate Stop */
          SET_BIT(hi2c->Instance->CR1, I2C_CR1_STOP);
 800301a:	687b      	ldr	r3, [r7, #4]
 800301c:	681b      	ldr	r3, [r3, #0]
 800301e:	681a      	ldr	r2, [r3, #0]
 8003020:	687b      	ldr	r3, [r7, #4]
 8003022:	681b      	ldr	r3, [r3, #0]
 8003024:	f442 7200 	orr.w	r2, r2, #512	@ 0x200
 8003028:	601a      	str	r2, [r3, #0]
 800302a:	e090      	b.n	800314e <I2C_Master_ADDR+0x30c>
        }
      }
      else if (hi2c->XferCount == 2U)
 800302c:	687b      	ldr	r3, [r7, #4]
 800302e:	8d5b      	ldrh	r3, [r3, #42]	@ 0x2a
 8003030:	b29b      	uxth	r3, r3
 8003032:	2b02      	cmp	r3, #2
 8003034:	d158      	bne.n	80030e8 <I2C_Master_ADDR+0x2a6>
      {
        if ((CurrentXferOptions != I2C_NEXT_FRAME) && (CurrentXferOptions != I2C_FIRST_AND_NEXT_FRAME) && (CurrentXferOptions != I2C_LAST_FRAME_NO_STOP))
 8003036:	6bbb      	ldr	r3, [r7, #56]	@ 0x38
 8003038:	2b04      	cmp	r3, #4
 800303a:	d021      	beq.n	8003080 <I2C_Master_ADDR+0x23e>
 800303c:	6bbb      	ldr	r3, [r7, #56]	@ 0x38
 800303e:	2b02      	cmp	r3, #2
 8003040:	d01e      	beq.n	8003080 <I2C_Master_ADDR+0x23e>
 8003042:	6bbb      	ldr	r3, [r7, #56]	@ 0x38
 8003044:	2b10      	cmp	r3, #16
 8003046:	d01b      	beq.n	8003080 <I2C_Master_ADDR+0x23e>
        {
          /* Enable Pos */
          SET_BIT(hi2c->Instance->CR1, I2C_CR1_POS);
 8003048:	687b      	ldr	r3, [r7, #4]
 800304a:	681b      	ldr	r3, [r3, #0]
 800304c:	681a      	ldr	r2, [r3, #0]
 800304e:	687b      	ldr	r3, [r7, #4]
 8003050:	681b      	ldr	r3, [r3, #0]
 8003052:	f442 6200 	orr.w	r2, r2, #2048	@ 0x800
 8003056:	601a      	str	r2, [r3, #0]

          /* Clear ADDR flag */
          __HAL_I2C_CLEAR_ADDRFLAG(hi2c);
 8003058:	2300      	movs	r3, #0
 800305a:	617b      	str	r3, [r7, #20]
 800305c:	687b      	ldr	r3, [r7, #4]
 800305e:	681b      	ldr	r3, [r3, #0]
 8003060:	695b      	ldr	r3, [r3, #20]
 8003062:	617b      	str	r3, [r7, #20]
 8003064:	687b      	ldr	r3, [r7, #4]
 8003066:	681b      	ldr	r3, [r3, #0]
 8003068:	699b      	ldr	r3, [r3, #24]
 800306a:	617b      	str	r3, [r7, #20]
 800306c:	697b      	ldr	r3, [r7, #20]

          /* Disable Acknowledge */
          CLEAR_BIT(hi2c->Instance->CR1, I2C_CR1_ACK);
 800306e:	687b      	ldr	r3, [r7, #4]
 8003070:	681b      	ldr	r3, [r3, #0]
 8003072:	681a      	ldr	r2, [r3, #0]
 8003074:	687b      	ldr	r3, [r7, #4]
 8003076:	681b      	ldr	r3, [r3, #0]
 8003078:	f422 6280 	bic.w	r2, r2, #1024	@ 0x400
 800307c:	601a      	str	r2, [r3, #0]
 800307e:	e012      	b.n	80030a6 <I2C_Master_ADDR+0x264>
        }
        else
        {
          /* Enable Acknowledge */
          SET_BIT(hi2c->Instance->CR1, I2C_CR1_ACK);
 8003080:	687b      	ldr	r3, [r7, #4]
 8003082:	681b      	ldr	r3, [r3, #0]
 8003084:	681a      	ldr	r2, [r3, #0]
 8003086:	687b      	ldr	r3, [r7, #4]
 8003088:	681b      	ldr	r3, [r3, #0]
 800308a:	f442 6280 	orr.w	r2, r2, #1024	@ 0x400
 800308e:	601a      	str	r2, [r3, #0]

          /* Clear ADDR flag */
          __HAL_I2C_CLEAR_ADDRFLAG(hi2c);
 8003090:	2300      	movs	r3, #0
 8003092:	613b      	str	r3, [r7, #16]
 8003094:	687b      	ldr	r3, [r7, #4]
 8003096:	681b      	ldr	r3, [r3, #0]
 8003098:	695b      	ldr	r3, [r3, #20]
 800309a:	613b      	str	r3, [r7, #16]
 800309c:	687b      	ldr	r3, [r7, #4]
 800309e:	681b      	ldr	r3, [r3, #0]
 80030a0:	699b      	ldr	r3, [r3, #24]
 80030a2:	613b      	str	r3, [r7, #16]
 80030a4:	693b      	ldr	r3, [r7, #16]
        }

        if (((hi2c->Instance->CR2 & I2C_CR2_DMAEN) == I2C_CR2_DMAEN) && ((CurrentXferOptions == I2C_NO_OPTION_FRAME) || (CurrentXferOptions == I2C_FIRST_FRAME) || (CurrentXferOptions == I2C_FIRST_AND_LAST_FRAME) || (CurrentXferOptions == I2C_LAST_FRAME_NO_STOP) || (CurrentXferOptions == I2C_LAST_FRAME)))
 80030a6:	687b      	ldr	r3, [r7, #4]
 80030a8:	681b      	ldr	r3, [r3, #0]
 80030aa:	685b      	ldr	r3, [r3, #4]
 80030ac:	f403 6300 	and.w	r3, r3, #2048	@ 0x800
 80030b0:	f5b3 6f00 	cmp.w	r3, #2048	@ 0x800
 80030b4:	d14b      	bne.n	800314e <I2C_Master_ADDR+0x30c>
 80030b6:	6bbb      	ldr	r3, [r7, #56]	@ 0x38
 80030b8:	f513 3f80 	cmn.w	r3, #65536	@ 0x10000
 80030bc:	d00b      	beq.n	80030d6 <I2C_Master_ADDR+0x294>
 80030be:	6bbb      	ldr	r3, [r7, #56]	@ 0x38
 80030c0:	2b01      	cmp	r3, #1
 80030c2:	d008      	beq.n	80030d6 <I2C_Master_ADDR+0x294>
 80030c4:	6bbb      	ldr	r3, [r7, #56]	@ 0x38
 80030c6:	2b08      	cmp	r3, #8
 80030c8:	d005      	beq.n	80030d6 <I2C_Master_ADDR+0x294>
 80030ca:	6bbb      	ldr	r3, [r7, #56]	@ 0x38
 80030cc:	2b10      	cmp	r3, #16
 80030ce:	d002      	beq.n	80030d6 <I2C_Master_ADDR+0x294>
 80030d0:	6bbb      	ldr	r3, [r7, #56]	@ 0x38
 80030d2:	2b20      	cmp	r3, #32
 80030d4:	d13b      	bne.n	800314e <I2C_Master_ADDR+0x30c>
        {
          /* Enable Last DMA bit */
          SET_BIT(hi2c->Instance->CR2, I2C_CR2_LAST);
 80030d6:	687b      	ldr	r3, [r7, #4]
 80030d8:	681b      	ldr	r3, [r3, #0]
 80030da:	685a      	ldr	r2, [r3, #4]
 80030dc:	687b      	ldr	r3, [r7, #4]
 80030de:	681b      	ldr	r3, [r3, #0]
 80030e0:	f442 5280 	orr.w	r2, r2, #4096	@ 0x1000
 80030e4:	605a      	str	r2, [r3, #4]
 80030e6:	e032      	b.n	800314e <I2C_Master_ADDR+0x30c>
        }
      }
      else
      {
        /* Enable Acknowledge */
        SET_BIT(hi2c->Instance->CR1, I2C_CR1_ACK);
 80030e8:	687b      	ldr	r3, [r7, #4]
 80030ea:	681b      	ldr	r3, [r3, #0]
 80030ec:	681a      	ldr	r2, [r3, #0]
 80030ee:	687b      	ldr	r3, [r7, #4]
 80030f0:	681b      	ldr	r3, [r3, #0]
 80030f2:	f442 6280 	orr.w	r2, r2, #1024	@ 0x400
 80030f6:	601a      	str	r2, [r3, #0]

        if (((hi2c->Instance->CR2 & I2C_CR2_DMAEN) == I2C_CR2_DMAEN) && ((CurrentXferOptions == I2C_NO_OPTION_FRAME) || (CurrentXferOptions == I2C_FIRST_FRAME) || (CurrentXferOptions == I2C_FIRST_AND_LAST_FRAME) || (CurrentXferOptions == I2C_LAST_FRAME_NO_STOP) || (CurrentXferOptions == I2C_LAST_FRAME)))
 80030f8:	687b      	ldr	r3, [r7, #4]
 80030fa:	681b      	ldr	r3, [r3, #0]
 80030fc:	685b      	ldr	r3, [r3, #4]
 80030fe:	f403 6300 	and.w	r3, r3, #2048	@ 0x800
 8003102:	f5b3 6f00 	cmp.w	r3, #2048	@ 0x800
 8003106:	d117      	bne.n	8003138 <I2C_Master_ADDR+0x2f6>
 8003108:	6bbb      	ldr	r3, [r7, #56]	@ 0x38
 800310a:	f513 3f80 	cmn.w	r3, #65536	@ 0x10000
 800310e:	d00b      	beq.n	8003128 <I2C_Master_ADDR+0x2e6>
 8003110:	6bbb      	ldr	r3, [r7, #56]	@ 0x38
 8003112:	2b01      	cmp	r3, #1
 8003114:	d008      	beq.n	8003128 <I2C_Master_ADDR+0x2e6>
 8003116:	6bbb      	ldr	r3, [r7, #56]	@ 0x38
 8003118:	2b08      	cmp	r3, #8
 800311a:	d005      	beq.n	8003128 <I2C_Master_ADDR+0x2e6>
 800311c:	6bbb      	ldr	r3, [r7, #56]	@ 0x38
 800311e:	2b10      	cmp	r3, #16
 8003120:	d002      	beq.n	8003128 <I2C_Master_ADDR+0x2e6>
 8003122:	6bbb      	ldr	r3, [r7, #56]	@ 0x38
 8003124:	2b20      	cmp	r3, #32
 8003126:	d107      	bne.n	8003138 <I2C_Master_ADDR+0x2f6>
        {
          /* Enable Last DMA bit */
          SET_BIT(hi2c->Instance->CR2, I2C_CR2_LAST);
 8003128:	687b      	ldr	r3, [r7, #4]
 800312a:	681b      	ldr	r3, [r3, #0]
 800312c:	685a      	ldr	r2, [r3, #4]
 800312e:	687b      	ldr	r3, [r7, #4]
 8003130:	681b      	ldr	r3, [r3, #0]
 8003132:	f442 5280 	orr.w	r2, r2, #4096	@ 0x1000
 8003136:	605a      	str	r2, [r3, #4]
        }

        /* Clear ADDR flag */
        __HAL_I2C_CLEAR_ADDRFLAG(hi2c);
 8003138:	2300      	movs	r3, #0
 800313a:	60fb      	str	r3, [r7, #12]
 800313c:	687b      	ldr	r3, [r7, #4]
 800313e:	681b      	ldr	r3, [r3, #0]
 8003140:	695b      	ldr	r3, [r3, #20]
 8003142:	60fb      	str	r3, [r7, #12]
 8003144:	687b      	ldr	r3, [r7, #4]
 8003146:	681b      	ldr	r3, [r3, #0]
 8003148:	699b      	ldr	r3, [r3, #24]
 800314a:	60fb      	str	r3, [r7, #12]
 800314c:	68fb      	ldr	r3, [r7, #12]
      }

      /* Reset Event counter  */
      hi2c->EventCount = 0U;
 800314e:	687b      	ldr	r3, [r7, #4]
 8003150:	2200      	movs	r2, #0
 8003152:	651a      	str	r2, [r3, #80]	@ 0x50
  else
  {
    /* Clear ADDR flag */
    __HAL_I2C_CLEAR_ADDRFLAG(hi2c);
  }
}
 8003154:	e00b      	b.n	800316e <I2C_Master_ADDR+0x32c>
    __HAL_I2C_CLEAR_ADDRFLAG(hi2c);
 8003156:	2300      	movs	r3, #0
 8003158:	60bb      	str	r3, [r7, #8]
 800315a:	687b      	ldr	r3, [r7, #4]
 800315c:	681b      	ldr	r3, [r3, #0]
 800315e:	695b      	ldr	r3, [r3, #20]
 8003160:	60bb      	str	r3, [r7, #8]
 8003162:	687b      	ldr	r3, [r7, #4]
 8003164:	681b      	ldr	r3, [r3, #0]
 8003166:	699b      	ldr	r3, [r3, #24]
 8003168:	60bb      	str	r3, [r7, #8]
 800316a:	68bb      	ldr	r3, [r7, #8]
}
 800316c:	e7ff      	b.n	800316e <I2C_Master_ADDR+0x32c>
 800316e:	bf00      	nop
 8003170:	3744      	adds	r7, #68	@ 0x44
 8003172:	46bd      	mov	sp, r7
 8003174:	bc80      	pop	{r7}
 8003176:	4770      	bx	lr

08003178 <I2C_SlaveTransmit_TXE>:
  * @param  hi2c Pointer to a I2C_HandleTypeDef structure that contains
  *         the configuration information for I2C module
  * @retval None
  */
static void I2C_SlaveTransmit_TXE(I2C_HandleTypeDef *hi2c)
{
 8003178:	b580      	push	{r7, lr}
 800317a:	b084      	sub	sp, #16
 800317c:	af00      	add	r7, sp, #0
 800317e:	6078      	str	r0, [r7, #4]
  /* Declaration of temporary variables to prevent undefined behavior of volatile usage */
  HAL_I2C_StateTypeDef CurrentState = hi2c->State;
 8003180:	687b      	ldr	r3, [r7, #4]
 8003182:	f893 303d 	ldrb.w	r3, [r3, #61]	@ 0x3d
 8003186:	73fb      	strb	r3, [r7, #15]

  if (hi2c->XferCount != 0U)
 8003188:	687b      	ldr	r3, [r7, #4]
 800318a:	8d5b      	ldrh	r3, [r3, #42]	@ 0x2a
 800318c:	b29b      	uxth	r3, r3
 800318e:	2b00      	cmp	r3, #0
 8003190:	d02b      	beq.n	80031ea <I2C_SlaveTransmit_TXE+0x72>
  {
    /* Write data to DR */
    hi2c->Instance->DR = *hi2c->pBuffPtr;
 8003192:	687b      	ldr	r3, [r7, #4]
 8003194:	6a5b      	ldr	r3, [r3, #36]	@ 0x24
 8003196:	781a      	ldrb	r2, [r3, #0]
 8003198:	687b      	ldr	r3, [r7, #4]
 800319a:	681b      	ldr	r3, [r3, #0]
 800319c:	611a      	str	r2, [r3, #16]

    /* Increment Buffer pointer */
    hi2c->pBuffPtr++;
 800319e:	687b      	ldr	r3, [r7, #4]
 80031a0:	6a5b      	ldr	r3, [r3, #36]	@ 0x24
 80031a2:	1c5a      	adds	r2, r3, #1
 80031a4:	687b      	ldr	r3, [r7, #4]
 80031a6:	625a      	str	r2, [r3, #36]	@ 0x24

    /* Update counter */
    hi2c->XferCount--;
 80031a8:	687b      	ldr	r3, [r7, #4]
 80031aa:	8d5b      	ldrh	r3, [r3, #42]	@ 0x2a
 80031ac:	b29b      	uxth	r3, r3
 80031ae:	3b01      	subs	r3, #1
 80031b0:	b29a      	uxth	r2, r3
 80031b2:	687b      	ldr	r3, [r7, #4]
 80031b4:	855a      	strh	r2, [r3, #42]	@ 0x2a

    if ((hi2c->XferCount == 0U) && (CurrentState == HAL_I2C_STATE_BUSY_TX_LISTEN))
 80031b6:	687b      	ldr	r3, [r7, #4]
 80031b8:	8d5b      	ldrh	r3, [r3, #42]	@ 0x2a
 80031ba:	b29b      	uxth	r3, r3
 80031bc:	2b00      	cmp	r3, #0
 80031be:	d114      	bne.n	80031ea <I2C_SlaveTransmit_TXE+0x72>
 80031c0:	7bfb      	ldrb	r3, [r7, #15]
 80031c2:	2b29      	cmp	r3, #41	@ 0x29
 80031c4:	d111      	bne.n	80031ea <I2C_SlaveTransmit_TXE+0x72>
    {
      /* Last Byte is received, disable Interrupt */
      __HAL_I2C_DISABLE_IT(hi2c, I2C_IT_BUF);
 80031c6:	687b      	ldr	r3, [r7, #4]
 80031c8:	681b      	ldr	r3, [r3, #0]
 80031ca:	685a      	ldr	r2, [r3, #4]
 80031cc:	687b      	ldr	r3, [r7, #4]
 80031ce:	681b      	ldr	r3, [r3, #0]
 80031d0:	f422 6280 	bic.w	r2, r2, #1024	@ 0x400
 80031d4:	605a      	str	r2, [r3, #4]

      /* Set state at HAL_I2C_STATE_LISTEN */
      hi2c->PreviousState = I2C_STATE_SLAVE_BUSY_TX;
 80031d6:	687b      	ldr	r3, [r7, #4]
 80031d8:	2221      	movs	r2, #33	@ 0x21
 80031da:	631a      	str	r2, [r3, #48]	@ 0x30
      hi2c->State = HAL_I2C_STATE_LISTEN;
 80031dc:	687b      	ldr	r3, [r7, #4]
 80031de:	2228      	movs	r2, #40	@ 0x28
 80031e0:	f883 203d 	strb.w	r2, [r3, #61]	@ 0x3d

      /* Call the corresponding callback to inform upper layer of End of Transfer */
#if (USE_HAL_I2C_REGISTER_CALLBACKS == 1)
      hi2c->SlaveTxCpltCallback(hi2c);
#else
      HAL_I2C_SlaveTxCpltCallback(hi2c);
 80031e4:	6878      	ldr	r0, [r7, #4]
 80031e6:	f7fd fe51 	bl	8000e8c <HAL_I2C_SlaveTxCpltCallback>
#endif /* USE_HAL_I2C_REGISTER_CALLBACKS */
    }
  }
}
 80031ea:	bf00      	nop
 80031ec:	3710      	adds	r7, #16
 80031ee:	46bd      	mov	sp, r7
 80031f0:	bd80      	pop	{r7, pc}

080031f2 <I2C_SlaveTransmit_BTF>:
  * @param  hi2c Pointer to a I2C_HandleTypeDef structure that contains
  *         the configuration information for I2C module
  * @retval None
  */
static void I2C_SlaveTransmit_BTF(I2C_HandleTypeDef *hi2c)
{
 80031f2:	b480      	push	{r7}
 80031f4:	b083      	sub	sp, #12
 80031f6:	af00      	add	r7, sp, #0
 80031f8:	6078      	str	r0, [r7, #4]
  if (hi2c->XferCount != 0U)
 80031fa:	687b      	ldr	r3, [r7, #4]
 80031fc:	8d5b      	ldrh	r3, [r3, #42]	@ 0x2a
 80031fe:	b29b      	uxth	r3, r3
 8003200:	2b00      	cmp	r3, #0
 8003202:	d011      	beq.n	8003228 <I2C_SlaveTransmit_BTF+0x36>
  {
    /* Write data to DR */
    hi2c->Instance->DR = *hi2c->pBuffPtr;
 8003204:	687b      	ldr	r3, [r7, #4]
 8003206:	6a5b      	ldr	r3, [r3, #36]	@ 0x24
 8003208:	781a      	ldrb	r2, [r3, #0]
 800320a:	687b      	ldr	r3, [r7, #4]
 800320c:	681b      	ldr	r3, [r3, #0]
 800320e:	611a      	str	r2, [r3, #16]

    /* Increment Buffer pointer */
    hi2c->pBuffPtr++;
 8003210:	687b      	ldr	r3, [r7, #4]
 8003212:	6a5b      	ldr	r3, [r3, #36]	@ 0x24
 8003214:	1c5a      	adds	r2, r3, #1
 8003216:	687b      	ldr	r3, [r7, #4]
 8003218:	625a      	str	r2, [r3, #36]	@ 0x24

    /* Update counter */
    hi2c->XferCount--;
 800321a:	687b      	ldr	r3, [r7, #4]
 800321c:	8d5b      	ldrh	r3, [r3, #42]	@ 0x2a
 800321e:	b29b      	uxth	r3, r3
 8003220:	3b01      	subs	r3, #1
 8003222:	b29a      	uxth	r2, r3
 8003224:	687b      	ldr	r3, [r7, #4]
 8003226:	855a      	strh	r2, [r3, #42]	@ 0x2a
  }
}
 8003228:	bf00      	nop
 800322a:	370c      	adds	r7, #12
 800322c:	46bd      	mov	sp, r7
 800322e:	bc80      	pop	{r7}
 8003230:	4770      	bx	lr

08003232 <I2C_SlaveReceive_RXNE>:
  * @param  hi2c Pointer to a I2C_HandleTypeDef structure that contains
  *         the configuration information for I2C module
  * @retval None
  */
static void I2C_SlaveReceive_RXNE(I2C_HandleTypeDef *hi2c)
{
 8003232:	b580      	push	{r7, lr}
 8003234:	b084      	sub	sp, #16
 8003236:	af00      	add	r7, sp, #0
 8003238:	6078      	str	r0, [r7, #4]
  /* Declaration of temporary variables to prevent undefined behavior of volatile usage */
  HAL_I2C_StateTypeDef CurrentState = hi2c->State;
 800323a:	687b      	ldr	r3, [r7, #4]
 800323c:	f893 303d 	ldrb.w	r3, [r3, #61]	@ 0x3d
 8003240:	73fb      	strb	r3, [r7, #15]

  if (hi2c->XferCount != 0U)
 8003242:	687b      	ldr	r3, [r7, #4]
 8003244:	8d5b      	ldrh	r3, [r3, #42]	@ 0x2a
 8003246:	b29b      	uxth	r3, r3
 8003248:	2b00      	cmp	r3, #0
 800324a:	d02c      	beq.n	80032a6 <I2C_SlaveReceive_RXNE+0x74>
  {
    /* Read data from DR */
    *hi2c->pBuffPtr = (uint8_t)hi2c->Instance->DR;
 800324c:	687b      	ldr	r3, [r7, #4]
 800324e:	681b      	ldr	r3, [r3, #0]
 8003250:	691a      	ldr	r2, [r3, #16]
 8003252:	687b      	ldr	r3, [r7, #4]
 8003254:	6a5b      	ldr	r3, [r3, #36]	@ 0x24
 8003256:	b2d2      	uxtb	r2, r2
 8003258:	701a      	strb	r2, [r3, #0]

    /* Increment Buffer pointer */
    hi2c->pBuffPtr++;
 800325a:	687b      	ldr	r3, [r7, #4]
 800325c:	6a5b      	ldr	r3, [r3, #36]	@ 0x24
 800325e:	1c5a      	adds	r2, r3, #1
 8003260:	687b      	ldr	r3, [r7, #4]
 8003262:	625a      	str	r2, [r3, #36]	@ 0x24

    /* Update counter */
    hi2c->XferCount--;
 8003264:	687b      	ldr	r3, [r7, #4]
 8003266:	8d5b      	ldrh	r3, [r3, #42]	@ 0x2a
 8003268:	b29b      	uxth	r3, r3
 800326a:	3b01      	subs	r3, #1
 800326c:	b29a      	uxth	r2, r3
 800326e:	687b      	ldr	r3, [r7, #4]
 8003270:	855a      	strh	r2, [r3, #42]	@ 0x2a

    if ((hi2c->XferCount == 0U) && (CurrentState == HAL_I2C_STATE_BUSY_RX_LISTEN))
 8003272:	687b      	ldr	r3, [r7, #4]
 8003274:	8d5b      	ldrh	r3, [r3, #42]	@ 0x2a
 8003276:	b29b      	uxth	r3, r3
 8003278:	2b00      	cmp	r3, #0
 800327a:	d114      	bne.n	80032a6 <I2C_SlaveReceive_RXNE+0x74>
 800327c:	7bfb      	ldrb	r3, [r7, #15]
 800327e:	2b2a      	cmp	r3, #42	@ 0x2a
 8003280:	d111      	bne.n	80032a6 <I2C_SlaveReceive_RXNE+0x74>
    {
      /* Last Byte is received, disable Interrupt */
      __HAL_I2C_DISABLE_IT(hi2c, I2C_IT_BUF);
 8003282:	687b      	ldr	r3, [r7, #4]
 8003284:	681b      	ldr	r3, [r3, #0]
 8003286:	685a      	ldr	r2, [r3, #4]
 8003288:	687b      	ldr	r3, [r7, #4]
 800328a:	681b      	ldr	r3, [r3, #0]
 800328c:	f422 6280 	bic.w	r2, r2, #1024	@ 0x400
 8003290:	605a      	str	r2, [r3, #4]

      /* Set state at HAL_I2C_STATE_LISTEN */
      hi2c->PreviousState = I2C_STATE_SLAVE_BUSY_RX;
 8003292:	687b      	ldr	r3, [r7, #4]
 8003294:	2222      	movs	r2, #34	@ 0x22
 8003296:	631a      	str	r2, [r3, #48]	@ 0x30
      hi2c->State = HAL_I2C_STATE_LISTEN;
 8003298:	687b      	ldr	r3, [r7, #4]
 800329a:	2228      	movs	r2, #40	@ 0x28
 800329c:	f883 203d 	strb.w	r2, [r3, #61]	@ 0x3d

      /* Call the corresponding callback to inform upper layer of End of Transfer */
#if (USE_HAL_I2C_REGISTER_CALLBACKS == 1)
      hi2c->SlaveRxCpltCallback(hi2c);
#else
      HAL_I2C_SlaveRxCpltCallback(hi2c);
 80032a0:	6878      	ldr	r0, [r7, #4]
 80032a2:	f7fd fe07 	bl	8000eb4 <HAL_I2C_SlaveRxCpltCallback>
#endif /* USE_HAL_I2C_REGISTER_CALLBACKS */
    }
  }
}
 80032a6:	bf00      	nop
 80032a8:	3710      	adds	r7, #16
 80032aa:	46bd      	mov	sp, r7
 80032ac:	bd80      	pop	{r7, pc}

080032ae <I2C_SlaveReceive_BTF>:
  * @param  hi2c Pointer to a I2C_HandleTypeDef structure that contains
  *         the configuration information for I2C module
  * @retval None
  */
static void I2C_SlaveReceive_BTF(I2C_HandleTypeDef *hi2c)
{
 80032ae:	b480      	push	{r7}
 80032b0:	b083      	sub	sp, #12
 80032b2:	af00      	add	r7, sp, #0
 80032b4:	6078      	str	r0, [r7, #4]
  if (hi2c->XferCount != 0U)
 80032b6:	687b      	ldr	r3, [r7, #4]
 80032b8:	8d5b      	ldrh	r3, [r3, #42]	@ 0x2a
 80032ba:	b29b      	uxth	r3, r3
 80032bc:	2b00      	cmp	r3, #0
 80032be:	d012      	beq.n	80032e6 <I2C_SlaveReceive_BTF+0x38>
  {
    /* Read data from DR */
    *hi2c->pBuffPtr = (uint8_t)hi2c->Instance->DR;
 80032c0:	687b      	ldr	r3, [r7, #4]
 80032c2:	681b      	ldr	r3, [r3, #0]
 80032c4:	691a      	ldr	r2, [r3, #16]
 80032c6:	687b      	ldr	r3, [r7, #4]
 80032c8:	6a5b      	ldr	r3, [r3, #36]	@ 0x24
 80032ca:	b2d2      	uxtb	r2, r2
 80032cc:	701a      	strb	r2, [r3, #0]

    /* Increment Buffer pointer */
    hi2c->pBuffPtr++;
 80032ce:	687b      	ldr	r3, [r7, #4]
 80032d0:	6a5b      	ldr	r3, [r3, #36]	@ 0x24
 80032d2:	1c5a      	adds	r2, r3, #1
 80032d4:	687b      	ldr	r3, [r7, #4]
 80032d6:	625a      	str	r2, [r3, #36]	@ 0x24

    /* Update counter */
    hi2c->XferCount--;
 80032d8:	687b      	ldr	r3, [r7, #4]
 80032da:	8d5b      	ldrh	r3, [r3, #42]	@ 0x2a
 80032dc:	b29b      	uxth	r3, r3
 80032de:	3b01      	subs	r3, #1
 80032e0:	b29a      	uxth	r2, r3
 80032e2:	687b      	ldr	r3, [r7, #4]
 80032e4:	855a      	strh	r2, [r3, #42]	@ 0x2a
  }
}
 80032e6:	bf00      	nop
 80032e8:	370c      	adds	r7, #12
 80032ea:	46bd      	mov	sp, r7
 80032ec:	bc80      	pop	{r7}
 80032ee:	4770      	bx	lr

080032f0 <I2C_Slave_ADDR>:
  *         the configuration information for I2C module
  * @param  IT2Flags Interrupt2 flags to handle.
  * @retval None
  */
static void I2C_Slave_ADDR(I2C_HandleTypeDef *hi2c, uint32_t IT2Flags)
{
 80032f0:	b580      	push	{r7, lr}
 80032f2:	b084      	sub	sp, #16
 80032f4:	af00      	add	r7, sp, #0
 80032f6:	6078      	str	r0, [r7, #4]
 80032f8:	6039      	str	r1, [r7, #0]
  uint8_t TransferDirection = I2C_DIRECTION_RECEIVE;
 80032fa:	2300      	movs	r3, #0
 80032fc:	73fb      	strb	r3, [r7, #15]
  uint16_t SlaveAddrCode;

  if (((uint32_t)hi2c->State & (uint32_t)HAL_I2C_STATE_LISTEN) == (uint32_t)HAL_I2C_STATE_LISTEN)
 80032fe:	687b      	ldr	r3, [r7, #4]
 8003300:	f893 303d 	ldrb.w	r3, [r3, #61]	@ 0x3d
 8003304:	b2db      	uxtb	r3, r3
 8003306:	f003 0328 	and.w	r3, r3, #40	@ 0x28
 800330a:	2b28      	cmp	r3, #40	@ 0x28
 800330c:	d127      	bne.n	800335e <I2C_Slave_ADDR+0x6e>
  {
    /* Disable BUF interrupt, BUF enabling is manage through slave specific interface */
    __HAL_I2C_DISABLE_IT(hi2c, (I2C_IT_BUF));
 800330e:	687b      	ldr	r3, [r7, #4]
 8003310:	681b      	ldr	r3, [r3, #0]
 8003312:	685a      	ldr	r2, [r3, #4]
 8003314:	687b      	ldr	r3, [r7, #4]
 8003316:	681b      	ldr	r3, [r3, #0]
 8003318:	f422 6280 	bic.w	r2, r2, #1024	@ 0x400
 800331c:	605a      	str	r2, [r3, #4]

    /* Transfer Direction requested by Master */
    if (I2C_CHECK_FLAG(IT2Flags, I2C_FLAG_TRA) == RESET)
 800331e:	683b      	ldr	r3, [r7, #0]
 8003320:	089b      	lsrs	r3, r3, #2
 8003322:	f003 0301 	and.w	r3, r3, #1
 8003326:	2b00      	cmp	r3, #0
 8003328:	d101      	bne.n	800332e <I2C_Slave_ADDR+0x3e>
    {
      TransferDirection = I2C_DIRECTION_TRANSMIT;
 800332a:	2301      	movs	r3, #1
 800332c:	73fb      	strb	r3, [r7, #15]
    }

    if (I2C_CHECK_FLAG(IT2Flags, I2C_FLAG_DUALF) == RESET)
 800332e:	683b      	ldr	r3, [r7, #0]
 8003330:	09db      	lsrs	r3, r3, #7
 8003332:	f003 0301 	and.w	r3, r3, #1
 8003336:	2b00      	cmp	r3, #0
 8003338:	d103      	bne.n	8003342 <I2C_Slave_ADDR+0x52>
    {
      SlaveAddrCode = (uint16_t)hi2c->Init.OwnAddress1;
 800333a:	687b      	ldr	r3, [r7, #4]
 800333c:	68db      	ldr	r3, [r3, #12]
 800333e:	81bb      	strh	r3, [r7, #12]
 8003340:	e002      	b.n	8003348 <I2C_Slave_ADDR+0x58>
    }
    else
    {
      SlaveAddrCode = (uint16_t)hi2c->Init.OwnAddress2;
 8003342:	687b      	ldr	r3, [r7, #4]
 8003344:	699b      	ldr	r3, [r3, #24]
 8003346:	81bb      	strh	r3, [r7, #12]
    }

    /* Process Unlocked */
    __HAL_UNLOCK(hi2c);
 8003348:	687b      	ldr	r3, [r7, #4]
 800334a:	2200      	movs	r2, #0
 800334c:	f883 203c 	strb.w	r2, [r3, #60]	@ 0x3c

    /* Call Slave Addr callback */
#if (USE_HAL_I2C_REGISTER_CALLBACKS == 1)
    hi2c->AddrCallback(hi2c, TransferDirection, SlaveAddrCode);
#else
    HAL_I2C_AddrCallback(hi2c, TransferDirection, SlaveAddrCode);
 8003350:	89ba      	ldrh	r2, [r7, #12]
 8003352:	7bfb      	ldrb	r3, [r7, #15]
 8003354:	4619      	mov	r1, r3
 8003356:	6878      	ldr	r0, [r7, #4]
 8003358:	f7ff f928 	bl	80025ac <HAL_I2C_AddrCallback>
    __HAL_I2C_CLEAR_ADDRFLAG(hi2c);

    /* Process Unlocked */
    __HAL_UNLOCK(hi2c);
  }
}
 800335c:	e00e      	b.n	800337c <I2C_Slave_ADDR+0x8c>
    __HAL_I2C_CLEAR_ADDRFLAG(hi2c);
 800335e:	2300      	movs	r3, #0
 8003360:	60bb      	str	r3, [r7, #8]
 8003362:	687b      	ldr	r3, [r7, #4]
 8003364:	681b      	ldr	r3, [r3, #0]
 8003366:	695b      	ldr	r3, [r3, #20]
 8003368:	60bb      	str	r3, [r7, #8]
 800336a:	687b      	ldr	r3, [r7, #4]
 800336c:	681b      	ldr	r3, [r3, #0]
 800336e:	699b      	ldr	r3, [r3, #24]
 8003370:	60bb      	str	r3, [r7, #8]
 8003372:	68bb      	ldr	r3, [r7, #8]
    __HAL_UNLOCK(hi2c);
 8003374:	687b      	ldr	r3, [r7, #4]
 8003376:	2200      	movs	r2, #0
 8003378:	f883 203c 	strb.w	r2, [r3, #60]	@ 0x3c
}
 800337c:	bf00      	nop
 800337e:	3710      	adds	r7, #16
 8003380:	46bd      	mov	sp, r7
 8003382:	bd80      	pop	{r7, pc}

08003384 <I2C_Slave_STOPF>:
  * @param  hi2c Pointer to a I2C_HandleTypeDef structure that contains
  *         the configuration information for I2C module
  * @retval None
  */
static void I2C_Slave_STOPF(I2C_HandleTypeDef *hi2c)
{
 8003384:	b580      	push	{r7, lr}
 8003386:	b084      	sub	sp, #16
 8003388:	af00      	add	r7, sp, #0
 800338a:	6078      	str	r0, [r7, #4]
  /* Declaration of temporary variable to prevent undefined behavior of volatile usage */
  HAL_I2C_StateTypeDef CurrentState = hi2c->State;
 800338c:	687b      	ldr	r3, [r7, #4]
 800338e:	f893 303d 	ldrb.w	r3, [r3, #61]	@ 0x3d
 8003392:	73fb      	strb	r3, [r7, #15]

  /* Disable EVT, BUF and ERR interrupt */
  __HAL_I2C_DISABLE_IT(hi2c, I2C_IT_EVT | I2C_IT_BUF | I2C_IT_ERR);
 8003394:	687b      	ldr	r3, [r7, #4]
 8003396:	681b      	ldr	r3, [r3, #0]
 8003398:	685a      	ldr	r2, [r3, #4]
 800339a:	687b      	ldr	r3, [r7, #4]
 800339c:	681b      	ldr	r3, [r3, #0]
 800339e:	f422 62e0 	bic.w	r2, r2, #1792	@ 0x700
 80033a2:	605a      	str	r2, [r3, #4]

  /* Clear STOPF flag */
  __HAL_I2C_CLEAR_STOPFLAG(hi2c);
 80033a4:	2300      	movs	r3, #0
 80033a6:	60bb      	str	r3, [r7, #8]
 80033a8:	687b      	ldr	r3, [r7, #4]
 80033aa:	681b      	ldr	r3, [r3, #0]
 80033ac:	695b      	ldr	r3, [r3, #20]
 80033ae:	60bb      	str	r3, [r7, #8]
 80033b0:	687b      	ldr	r3, [r7, #4]
 80033b2:	681b      	ldr	r3, [r3, #0]
 80033b4:	681a      	ldr	r2, [r3, #0]
 80033b6:	687b      	ldr	r3, [r7, #4]
 80033b8:	681b      	ldr	r3, [r3, #0]
 80033ba:	f042 0201 	orr.w	r2, r2, #1
 80033be:	601a      	str	r2, [r3, #0]
 80033c0:	68bb      	ldr	r3, [r7, #8]

  /* Disable Acknowledge */
  CLEAR_BIT(hi2c->Instance->CR1, I2C_CR1_ACK);
 80033c2:	687b      	ldr	r3, [r7, #4]
 80033c4:	681b      	ldr	r3, [r3, #0]
 80033c6:	681a      	ldr	r2, [r3, #0]
 80033c8:	687b      	ldr	r3, [r7, #4]
 80033ca:	681b      	ldr	r3, [r3, #0]
 80033cc:	f422 6280 	bic.w	r2, r2, #1024	@ 0x400
 80033d0:	601a      	str	r2, [r3, #0]

  /* If a DMA is ongoing, Update handle size context */
  if ((hi2c->Instance->CR2 & I2C_CR2_DMAEN) == I2C_CR2_DMAEN)
 80033d2:	687b      	ldr	r3, [r7, #4]
 80033d4:	681b      	ldr	r3, [r3, #0]
 80033d6:	685b      	ldr	r3, [r3, #4]
 80033d8:	f403 6300 	and.w	r3, r3, #2048	@ 0x800
 80033dc:	f5b3 6f00 	cmp.w	r3, #2048	@ 0x800
 80033e0:	d172      	bne.n	80034c8 <I2C_Slave_STOPF+0x144>
  {
    if ((CurrentState == HAL_I2C_STATE_BUSY_RX) || (CurrentState == HAL_I2C_STATE_BUSY_RX_LISTEN))
 80033e2:	7bfb      	ldrb	r3, [r7, #15]
 80033e4:	2b22      	cmp	r3, #34	@ 0x22
 80033e6:	d002      	beq.n	80033ee <I2C_Slave_STOPF+0x6a>
 80033e8:	7bfb      	ldrb	r3, [r7, #15]
 80033ea:	2b2a      	cmp	r3, #42	@ 0x2a
 80033ec:	d135      	bne.n	800345a <I2C_Slave_STOPF+0xd6>
    {
      hi2c->XferCount = (uint16_t)(I2C_GET_DMA_REMAIN_DATA(hi2c->hdmarx));
 80033ee:	687b      	ldr	r3, [r7, #4]
 80033f0:	6b9b      	ldr	r3, [r3, #56]	@ 0x38
 80033f2:	681b      	ldr	r3, [r3, #0]
 80033f4:	685b      	ldr	r3, [r3, #4]
 80033f6:	b29a      	uxth	r2, r3
 80033f8:	687b      	ldr	r3, [r7, #4]
 80033fa:	855a      	strh	r2, [r3, #42]	@ 0x2a

      if (hi2c->XferCount != 0U)
 80033fc:	687b      	ldr	r3, [r7, #4]
 80033fe:	8d5b      	ldrh	r3, [r3, #42]	@ 0x2a
 8003400:	b29b      	uxth	r3, r3
 8003402:	2b00      	cmp	r3, #0
 8003404:	d005      	beq.n	8003412 <I2C_Slave_STOPF+0x8e>
      {
        /* Set ErrorCode corresponding to a Non-Acknowledge */
        hi2c->ErrorCode |= HAL_I2C_ERROR_AF;
 8003406:	687b      	ldr	r3, [r7, #4]
 8003408:	6c1b      	ldr	r3, [r3, #64]	@ 0x40
 800340a:	f043 0204 	orr.w	r2, r3, #4
 800340e:	687b      	ldr	r3, [r7, #4]
 8003410:	641a      	str	r2, [r3, #64]	@ 0x40
      }

      /* Disable, stop the current DMA */
      CLEAR_BIT(hi2c->Instance->CR2, I2C_CR2_DMAEN);
 8003412:	687b      	ldr	r3, [r7, #4]
 8003414:	681b      	ldr	r3, [r3, #0]
 8003416:	685a      	ldr	r2, [r3, #4]
 8003418:	687b      	ldr	r3, [r7, #4]
 800341a:	681b      	ldr	r3, [r3, #0]
 800341c:	f422 6200 	bic.w	r2, r2, #2048	@ 0x800
 8003420:	605a      	str	r2, [r3, #4]

      /* Abort DMA Xfer if any */
      if (HAL_DMA_GetState(hi2c->hdmarx) != HAL_DMA_STATE_READY)
 8003422:	687b      	ldr	r3, [r7, #4]
 8003424:	6b9b      	ldr	r3, [r3, #56]	@ 0x38
 8003426:	4618      	mov	r0, r3
 8003428:	f7fe f992 	bl	8001750 <HAL_DMA_GetState>
 800342c:	4603      	mov	r3, r0
 800342e:	2b01      	cmp	r3, #1
 8003430:	d049      	beq.n	80034c6 <I2C_Slave_STOPF+0x142>
      {
        /* Set the I2C DMA Abort callback :
        will lead to call HAL_I2C_ErrorCallback() at end of DMA abort procedure */
        hi2c->hdmarx->XferAbortCallback = I2C_DMAAbort;
 8003432:	687b      	ldr	r3, [r7, #4]
 8003434:	6b9b      	ldr	r3, [r3, #56]	@ 0x38
 8003436:	4a69      	ldr	r2, [pc, #420]	@ (80035dc <I2C_Slave_STOPF+0x258>)
 8003438:	635a      	str	r2, [r3, #52]	@ 0x34

        /* Abort DMA RX */
        if (HAL_DMA_Abort_IT(hi2c->hdmarx) != HAL_OK)
 800343a:	687b      	ldr	r3, [r7, #4]
 800343c:	6b9b      	ldr	r3, [r3, #56]	@ 0x38
 800343e:	4618      	mov	r0, r3
 8003440:	f7fe f90e 	bl	8001660 <HAL_DMA_Abort_IT>
 8003444:	4603      	mov	r3, r0
 8003446:	2b00      	cmp	r3, #0
 8003448:	d03d      	beq.n	80034c6 <I2C_Slave_STOPF+0x142>
        {
          /* Call Directly XferAbortCallback function in case of error */
          hi2c->hdmarx->XferAbortCallback(hi2c->hdmarx);
 800344a:	687b      	ldr	r3, [r7, #4]
 800344c:	6b9b      	ldr	r3, [r3, #56]	@ 0x38
 800344e:	6b5b      	ldr	r3, [r3, #52]	@ 0x34
 8003450:	687a      	ldr	r2, [r7, #4]
 8003452:	6b92      	ldr	r2, [r2, #56]	@ 0x38
 8003454:	4610      	mov	r0, r2
 8003456:	4798      	blx	r3
      if (HAL_DMA_GetState(hi2c->hdmarx) != HAL_DMA_STATE_READY)
 8003458:	e035      	b.n	80034c6 <I2C_Slave_STOPF+0x142>
        }
      }
    }
    else
    {
      hi2c->XferCount = (uint16_t)(I2C_GET_DMA_REMAIN_DATA(hi2c->hdmatx));
 800345a:	687b      	ldr	r3, [r7, #4]
 800345c:	6b5b      	ldr	r3, [r3, #52]	@ 0x34
 800345e:	681b      	ldr	r3, [r3, #0]
 8003460:	685b      	ldr	r3, [r3, #4]
 8003462:	b29a      	uxth	r2, r3
 8003464:	687b      	ldr	r3, [r7, #4]
 8003466:	855a      	strh	r2, [r3, #42]	@ 0x2a

      if (hi2c->XferCount != 0U)
 8003468:	687b      	ldr	r3, [r7, #4]
 800346a:	8d5b      	ldrh	r3, [r3, #42]	@ 0x2a
 800346c:	b29b      	uxth	r3, r3
 800346e:	2b00      	cmp	r3, #0
 8003470:	d005      	beq.n	800347e <I2C_Slave_STOPF+0xfa>
      {
        /* Set ErrorCode corresponding to a Non-Acknowledge */
        hi2c->ErrorCode |= HAL_I2C_ERROR_AF;
 8003472:	687b      	ldr	r3, [r7, #4]
 8003474:	6c1b      	ldr	r3, [r3, #64]	@ 0x40
 8003476:	f043 0204 	orr.w	r2, r3, #4
 800347a:	687b      	ldr	r3, [r7, #4]
 800347c:	641a      	str	r2, [r3, #64]	@ 0x40
      }

      /* Disable, stop the current DMA */
      CLEAR_BIT(hi2c->Instance->CR2, I2C_CR2_DMAEN);
 800347e:	687b      	ldr	r3, [r7, #4]
 8003480:	681b      	ldr	r3, [r3, #0]
 8003482:	685a      	ldr	r2, [r3, #4]
 8003484:	687b      	ldr	r3, [r7, #4]
 8003486:	681b      	ldr	r3, [r3, #0]
 8003488:	f422 6200 	bic.w	r2, r2, #2048	@ 0x800
 800348c:	605a      	str	r2, [r3, #4]

      /* Abort DMA Xfer if any */
      if (HAL_DMA_GetState(hi2c->hdmatx) != HAL_DMA_STATE_READY)
 800348e:	687b      	ldr	r3, [r7, #4]
 8003490:	6b5b      	ldr	r3, [r3, #52]	@ 0x34
 8003492:	4618      	mov	r0, r3
 8003494:	f7fe f95c 	bl	8001750 <HAL_DMA_GetState>
 8003498:	4603      	mov	r3, r0
 800349a:	2b01      	cmp	r3, #1
 800349c:	d014      	beq.n	80034c8 <I2C_Slave_STOPF+0x144>
      {
        /* Set the I2C DMA Abort callback :
        will lead to call HAL_I2C_ErrorCallback() at end of DMA abort procedure */
        hi2c->hdmatx->XferAbortCallback = I2C_DMAAbort;
 800349e:	687b      	ldr	r3, [r7, #4]
 80034a0:	6b5b      	ldr	r3, [r3, #52]	@ 0x34
 80034a2:	4a4e      	ldr	r2, [pc, #312]	@ (80035dc <I2C_Slave_STOPF+0x258>)
 80034a4:	635a      	str	r2, [r3, #52]	@ 0x34

        /* Abort DMA TX */
        if (HAL_DMA_Abort_IT(hi2c->hdmatx) != HAL_OK)
 80034a6:	687b      	ldr	r3, [r7, #4]
 80034a8:	6b5b      	ldr	r3, [r3, #52]	@ 0x34
 80034aa:	4618      	mov	r0, r3
 80034ac:	f7fe f8d8 	bl	8001660 <HAL_DMA_Abort_IT>
 80034b0:	4603      	mov	r3, r0
 80034b2:	2b00      	cmp	r3, #0
 80034b4:	d008      	beq.n	80034c8 <I2C_Slave_STOPF+0x144>
        {
          /* Call Directly XferAbortCallback function in case of error */
          hi2c->hdmatx->XferAbortCallback(hi2c->hdmatx);
 80034b6:	687b      	ldr	r3, [r7, #4]
 80034b8:	6b5b      	ldr	r3, [r3, #52]	@ 0x34
 80034ba:	6b5b      	ldr	r3, [r3, #52]	@ 0x34
 80034bc:	687a      	ldr	r2, [r7, #4]
 80034be:	6b52      	ldr	r2, [r2, #52]	@ 0x34
 80034c0:	4610      	mov	r0, r2
 80034c2:	4798      	blx	r3
 80034c4:	e000      	b.n	80034c8 <I2C_Slave_STOPF+0x144>
      if (HAL_DMA_GetState(hi2c->hdmarx) != HAL_DMA_STATE_READY)
 80034c6:	bf00      	nop
      }
    }
  }

  /* All data are not transferred, so set error code accordingly */
  if (hi2c->XferCount != 0U)
 80034c8:	687b      	ldr	r3, [r7, #4]
 80034ca:	8d5b      	ldrh	r3, [r3, #42]	@ 0x2a
 80034cc:	b29b      	uxth	r3, r3
 80034ce:	2b00      	cmp	r3, #0
 80034d0:	d03e      	beq.n	8003550 <I2C_Slave_STOPF+0x1cc>
  {
    /* Store Last receive data if any */
    if (__HAL_I2C_GET_FLAG(hi2c, I2C_FLAG_BTF) == SET)
 80034d2:	687b      	ldr	r3, [r7, #4]
 80034d4:	681b      	ldr	r3, [r3, #0]
 80034d6:	695b      	ldr	r3, [r3, #20]
 80034d8:	f003 0304 	and.w	r3, r3, #4
 80034dc:	2b04      	cmp	r3, #4
 80034de:	d112      	bne.n	8003506 <I2C_Slave_STOPF+0x182>
    {
      /* Read data from DR */
      *hi2c->pBuffPtr = (uint8_t)hi2c->Instance->DR;
 80034e0:	687b      	ldr	r3, [r7, #4]
 80034e2:	681b      	ldr	r3, [r3, #0]
 80034e4:	691a      	ldr	r2, [r3, #16]
 80034e6:	687b      	ldr	r3, [r7, #4]
 80034e8:	6a5b      	ldr	r3, [r3, #36]	@ 0x24
 80034ea:	b2d2      	uxtb	r2, r2
 80034ec:	701a      	strb	r2, [r3, #0]

      /* Increment Buffer pointer */
      hi2c->pBuffPtr++;
 80034ee:	687b      	ldr	r3, [r7, #4]
 80034f0:	6a5b      	ldr	r3, [r3, #36]	@ 0x24
 80034f2:	1c5a      	adds	r2, r3, #1
 80034f4:	687b      	ldr	r3, [r7, #4]
 80034f6:	625a      	str	r2, [r3, #36]	@ 0x24

      /* Update counter */
      hi2c->XferCount--;
 80034f8:	687b      	ldr	r3, [r7, #4]
 80034fa:	8d5b      	ldrh	r3, [r3, #42]	@ 0x2a
 80034fc:	b29b      	uxth	r3, r3
 80034fe:	3b01      	subs	r3, #1
 8003500:	b29a      	uxth	r2, r3
 8003502:	687b      	ldr	r3, [r7, #4]
 8003504:	855a      	strh	r2, [r3, #42]	@ 0x2a
    }

    /* Store Last receive data if any */
    if (__HAL_I2C_GET_FLAG(hi2c, I2C_FLAG_RXNE) == SET)
 8003506:	687b      	ldr	r3, [r7, #4]
 8003508:	681b      	ldr	r3, [r3, #0]
 800350a:	695b      	ldr	r3, [r3, #20]
 800350c:	f003 0340 	and.w	r3, r3, #64	@ 0x40
 8003510:	2b40      	cmp	r3, #64	@ 0x40
 8003512:	d112      	bne.n	800353a <I2C_Slave_STOPF+0x1b6>
    {
      /* Read data from DR */
      *hi2c->pBuffPtr = (uint8_t)hi2c->Instance->DR;
 8003514:	687b      	ldr	r3, [r7, #4]
 8003516:	681b      	ldr	r3, [r3, #0]
 8003518:	691a      	ldr	r2, [r3, #16]
 800351a:	687b      	ldr	r3, [r7, #4]
 800351c:	6a5b      	ldr	r3, [r3, #36]	@ 0x24
 800351e:	b2d2      	uxtb	r2, r2
 8003520:	701a      	strb	r2, [r3, #0]

      /* Increment Buffer pointer */
      hi2c->pBuffPtr++;
 8003522:	687b      	ldr	r3, [r7, #4]
 8003524:	6a5b      	ldr	r3, [r3, #36]	@ 0x24
 8003526:	1c5a      	adds	r2, r3, #1
 8003528:	687b      	ldr	r3, [r7, #4]
 800352a:	625a      	str	r2, [r3, #36]	@ 0x24

      /* Update counter */
      hi2c->XferCount--;
 800352c:	687b      	ldr	r3, [r7, #4]
 800352e:	8d5b      	ldrh	r3, [r3, #42]	@ 0x2a
 8003530:	b29b      	uxth	r3, r3
 8003532:	3b01      	subs	r3, #1
 8003534:	b29a      	uxth	r2, r3
 8003536:	687b      	ldr	r3, [r7, #4]
 8003538:	855a      	strh	r2, [r3, #42]	@ 0x2a
    }

    if (hi2c->XferCount != 0U)
 800353a:	687b      	ldr	r3, [r7, #4]
 800353c:	8d5b      	ldrh	r3, [r3, #42]	@ 0x2a
 800353e:	b29b      	uxth	r3, r3
 8003540:	2b00      	cmp	r3, #0
 8003542:	d005      	beq.n	8003550 <I2C_Slave_STOPF+0x1cc>
    {
      /* Set ErrorCode corresponding to a Non-Acknowledge */
      hi2c->ErrorCode |= HAL_I2C_ERROR_AF;
 8003544:	687b      	ldr	r3, [r7, #4]
 8003546:	6c1b      	ldr	r3, [r3, #64]	@ 0x40
 8003548:	f043 0204 	orr.w	r2, r3, #4
 800354c:	687b      	ldr	r3, [r7, #4]
 800354e:	641a      	str	r2, [r3, #64]	@ 0x40
    }
  }

  if (hi2c->ErrorCode != HAL_I2C_ERROR_NONE)
 8003550:	687b      	ldr	r3, [r7, #4]
 8003552:	6c1b      	ldr	r3, [r3, #64]	@ 0x40
 8003554:	2b00      	cmp	r3, #0
 8003556:	d003      	beq.n	8003560 <I2C_Slave_STOPF+0x1dc>
  {
    /* Call the corresponding callback to inform upper layer of End of Transfer */
    I2C_ITError(hi2c);
 8003558:	6878      	ldr	r0, [r7, #4]
 800355a:	f000 f8b7 	bl	80036cc <I2C_ITError>
        HAL_I2C_SlaveRxCpltCallback(hi2c);
#endif /* USE_HAL_I2C_REGISTER_CALLBACKS */
      }
    }
  }
}
 800355e:	e039      	b.n	80035d4 <I2C_Slave_STOPF+0x250>
    if (CurrentState == HAL_I2C_STATE_BUSY_RX_LISTEN)
 8003560:	7bfb      	ldrb	r3, [r7, #15]
 8003562:	2b2a      	cmp	r3, #42	@ 0x2a
 8003564:	d109      	bne.n	800357a <I2C_Slave_STOPF+0x1f6>
      hi2c->PreviousState = I2C_STATE_NONE;
 8003566:	687b      	ldr	r3, [r7, #4]
 8003568:	2200      	movs	r2, #0
 800356a:	631a      	str	r2, [r3, #48]	@ 0x30
      hi2c->State = HAL_I2C_STATE_LISTEN;
 800356c:	687b      	ldr	r3, [r7, #4]
 800356e:	2228      	movs	r2, #40	@ 0x28
 8003570:	f883 203d 	strb.w	r2, [r3, #61]	@ 0x3d
      HAL_I2C_SlaveRxCpltCallback(hi2c);
 8003574:	6878      	ldr	r0, [r7, #4]
 8003576:	f7fd fc9d 	bl	8000eb4 <HAL_I2C_SlaveRxCpltCallback>
    if (hi2c->State == HAL_I2C_STATE_LISTEN)
 800357a:	687b      	ldr	r3, [r7, #4]
 800357c:	f893 303d 	ldrb.w	r3, [r3, #61]	@ 0x3d
 8003580:	b2db      	uxtb	r3, r3
 8003582:	2b28      	cmp	r3, #40	@ 0x28
 8003584:	d111      	bne.n	80035aa <I2C_Slave_STOPF+0x226>
      hi2c->XferOptions = I2C_NO_OPTION_FRAME;
 8003586:	687b      	ldr	r3, [r7, #4]
 8003588:	4a15      	ldr	r2, [pc, #84]	@ (80035e0 <I2C_Slave_STOPF+0x25c>)
 800358a:	62da      	str	r2, [r3, #44]	@ 0x2c
      hi2c->PreviousState = I2C_STATE_NONE;
 800358c:	687b      	ldr	r3, [r7, #4]
 800358e:	2200      	movs	r2, #0
 8003590:	631a      	str	r2, [r3, #48]	@ 0x30
      hi2c->State = HAL_I2C_STATE_READY;
 8003592:	687b      	ldr	r3, [r7, #4]
 8003594:	2220      	movs	r2, #32
 8003596:	f883 203d 	strb.w	r2, [r3, #61]	@ 0x3d
      hi2c->Mode = HAL_I2C_MODE_NONE;
 800359a:	687b      	ldr	r3, [r7, #4]
 800359c:	2200      	movs	r2, #0
 800359e:	f883 203e 	strb.w	r2, [r3, #62]	@ 0x3e
      HAL_I2C_ListenCpltCallback(hi2c);
 80035a2:	6878      	ldr	r0, [r7, #4]
 80035a4:	f7ff f80f 	bl	80025c6 <HAL_I2C_ListenCpltCallback>
}
 80035a8:	e014      	b.n	80035d4 <I2C_Slave_STOPF+0x250>
      if ((hi2c->PreviousState  == I2C_STATE_SLAVE_BUSY_RX) || (CurrentState == HAL_I2C_STATE_BUSY_RX))
 80035aa:	687b      	ldr	r3, [r7, #4]
 80035ac:	6b1b      	ldr	r3, [r3, #48]	@ 0x30
 80035ae:	2b22      	cmp	r3, #34	@ 0x22
 80035b0:	d002      	beq.n	80035b8 <I2C_Slave_STOPF+0x234>
 80035b2:	7bfb      	ldrb	r3, [r7, #15]
 80035b4:	2b22      	cmp	r3, #34	@ 0x22
 80035b6:	d10d      	bne.n	80035d4 <I2C_Slave_STOPF+0x250>
        hi2c->PreviousState = I2C_STATE_NONE;
 80035b8:	687b      	ldr	r3, [r7, #4]
 80035ba:	2200      	movs	r2, #0
 80035bc:	631a      	str	r2, [r3, #48]	@ 0x30
        hi2c->State = HAL_I2C_STATE_READY;
 80035be:	687b      	ldr	r3, [r7, #4]
 80035c0:	2220      	movs	r2, #32
 80035c2:	f883 203d 	strb.w	r2, [r3, #61]	@ 0x3d
        hi2c->Mode = HAL_I2C_MODE_NONE;
 80035c6:	687b      	ldr	r3, [r7, #4]
 80035c8:	2200      	movs	r2, #0
 80035ca:	f883 203e 	strb.w	r2, [r3, #62]	@ 0x3e
        HAL_I2C_SlaveRxCpltCallback(hi2c);
 80035ce:	6878      	ldr	r0, [r7, #4]
 80035d0:	f7fd fc70 	bl	8000eb4 <HAL_I2C_SlaveRxCpltCallback>
}
 80035d4:	bf00      	nop
 80035d6:	3710      	adds	r7, #16
 80035d8:	46bd      	mov	sp, r7
 80035da:	bd80      	pop	{r7, pc}
 80035dc:	08003931 	.word	0x08003931
 80035e0:	ffff0000 	.word	0xffff0000

080035e4 <I2C_Slave_AF>:
  * @param  hi2c Pointer to a I2C_HandleTypeDef structure that contains
  *         the configuration information for I2C module
  * @retval None
  */
static void I2C_Slave_AF(I2C_HandleTypeDef *hi2c)
{
 80035e4:	b580      	push	{r7, lr}
 80035e6:	b084      	sub	sp, #16
 80035e8:	af00      	add	r7, sp, #0
 80035ea:	6078      	str	r0, [r7, #4]
  /* Declaration of temporary variables to prevent undefined behavior of volatile usage */
  HAL_I2C_StateTypeDef CurrentState = hi2c->State;
 80035ec:	687b      	ldr	r3, [r7, #4]
 80035ee:	f893 303d 	ldrb.w	r3, [r3, #61]	@ 0x3d
 80035f2:	73fb      	strb	r3, [r7, #15]
  uint32_t CurrentXferOptions       = hi2c->XferOptions;
 80035f4:	687b      	ldr	r3, [r7, #4]
 80035f6:	6adb      	ldr	r3, [r3, #44]	@ 0x2c
 80035f8:	60bb      	str	r3, [r7, #8]

  if (((CurrentXferOptions ==  I2C_FIRST_AND_LAST_FRAME) || (CurrentXferOptions == I2C_LAST_FRAME)) && \
 80035fa:	68bb      	ldr	r3, [r7, #8]
 80035fc:	2b08      	cmp	r3, #8
 80035fe:	d002      	beq.n	8003606 <I2C_Slave_AF+0x22>
 8003600:	68bb      	ldr	r3, [r7, #8]
 8003602:	2b20      	cmp	r3, #32
 8003604:	d129      	bne.n	800365a <I2C_Slave_AF+0x76>
 8003606:	7bfb      	ldrb	r3, [r7, #15]
 8003608:	2b28      	cmp	r3, #40	@ 0x28
 800360a:	d126      	bne.n	800365a <I2C_Slave_AF+0x76>
      (CurrentState == HAL_I2C_STATE_LISTEN))
  {
    hi2c->XferOptions = I2C_NO_OPTION_FRAME;
 800360c:	687b      	ldr	r3, [r7, #4]
 800360e:	4a2e      	ldr	r2, [pc, #184]	@ (80036c8 <I2C_Slave_AF+0xe4>)
 8003610:	62da      	str	r2, [r3, #44]	@ 0x2c

    /* Disable EVT, BUF and ERR interrupt */
    __HAL_I2C_DISABLE_IT(hi2c, I2C_IT_EVT | I2C_IT_BUF | I2C_IT_ERR);
 8003612:	687b      	ldr	r3, [r7, #4]
 8003614:	681b      	ldr	r3, [r3, #0]
 8003616:	685a      	ldr	r2, [r3, #4]
 8003618:	687b      	ldr	r3, [r7, #4]
 800361a:	681b      	ldr	r3, [r3, #0]
 800361c:	f422 62e0 	bic.w	r2, r2, #1792	@ 0x700
 8003620:	605a      	str	r2, [r3, #4]

    /* Clear AF flag */
    __HAL_I2C_CLEAR_FLAG(hi2c, I2C_FLAG_AF);
 8003622:	687b      	ldr	r3, [r7, #4]
 8003624:	681b      	ldr	r3, [r3, #0]
 8003626:	f46f 6280 	mvn.w	r2, #1024	@ 0x400
 800362a:	615a      	str	r2, [r3, #20]

    /* Disable Acknowledge */
    CLEAR_BIT(hi2c->Instance->CR1, I2C_CR1_ACK);
 800362c:	687b      	ldr	r3, [r7, #4]
 800362e:	681b      	ldr	r3, [r3, #0]
 8003630:	681a      	ldr	r2, [r3, #0]
 8003632:	687b      	ldr	r3, [r7, #4]
 8003634:	681b      	ldr	r3, [r3, #0]
 8003636:	f422 6280 	bic.w	r2, r2, #1024	@ 0x400
 800363a:	601a      	str	r2, [r3, #0]

    hi2c->PreviousState = I2C_STATE_NONE;
 800363c:	687b      	ldr	r3, [r7, #4]
 800363e:	2200      	movs	r2, #0
 8003640:	631a      	str	r2, [r3, #48]	@ 0x30
    hi2c->State         = HAL_I2C_STATE_READY;
 8003642:	687b      	ldr	r3, [r7, #4]
 8003644:	2220      	movs	r2, #32
 8003646:	f883 203d 	strb.w	r2, [r3, #61]	@ 0x3d
    hi2c->Mode          = HAL_I2C_MODE_NONE;
 800364a:	687b      	ldr	r3, [r7, #4]
 800364c:	2200      	movs	r2, #0
 800364e:	f883 203e 	strb.w	r2, [r3, #62]	@ 0x3e

    /* Call the Listen Complete callback, to inform upper layer of the end of Listen usecase */
#if (USE_HAL_I2C_REGISTER_CALLBACKS == 1)
    hi2c->ListenCpltCallback(hi2c);
#else
    HAL_I2C_ListenCpltCallback(hi2c);
 8003652:	6878      	ldr	r0, [r7, #4]
 8003654:	f7fe ffb7 	bl	80025c6 <HAL_I2C_ListenCpltCallback>
  {
    /* Clear AF flag only */
    /* State Listen, but XferOptions == FIRST or NEXT */
    __HAL_I2C_CLEAR_FLAG(hi2c, I2C_FLAG_AF);
  }
}
 8003658:	e031      	b.n	80036be <I2C_Slave_AF+0xda>
  else if (CurrentState == HAL_I2C_STATE_BUSY_TX)
 800365a:	7bfb      	ldrb	r3, [r7, #15]
 800365c:	2b21      	cmp	r3, #33	@ 0x21
 800365e:	d129      	bne.n	80036b4 <I2C_Slave_AF+0xd0>
    hi2c->XferOptions   = I2C_NO_OPTION_FRAME;
 8003660:	687b      	ldr	r3, [r7, #4]
 8003662:	4a19      	ldr	r2, [pc, #100]	@ (80036c8 <I2C_Slave_AF+0xe4>)
 8003664:	62da      	str	r2, [r3, #44]	@ 0x2c
    hi2c->PreviousState = I2C_STATE_SLAVE_BUSY_TX;
 8003666:	687b      	ldr	r3, [r7, #4]
 8003668:	2221      	movs	r2, #33	@ 0x21
 800366a:	631a      	str	r2, [r3, #48]	@ 0x30
    hi2c->State         = HAL_I2C_STATE_READY;
 800366c:	687b      	ldr	r3, [r7, #4]
 800366e:	2220      	movs	r2, #32
 8003670:	f883 203d 	strb.w	r2, [r3, #61]	@ 0x3d
    hi2c->Mode          = HAL_I2C_MODE_NONE;
 8003674:	687b      	ldr	r3, [r7, #4]
 8003676:	2200      	movs	r2, #0
 8003678:	f883 203e 	strb.w	r2, [r3, #62]	@ 0x3e
    __HAL_I2C_DISABLE_IT(hi2c, I2C_IT_EVT | I2C_IT_BUF | I2C_IT_ERR);
 800367c:	687b      	ldr	r3, [r7, #4]
 800367e:	681b      	ldr	r3, [r3, #0]
 8003680:	685a      	ldr	r2, [r3, #4]
 8003682:	687b      	ldr	r3, [r7, #4]
 8003684:	681b      	ldr	r3, [r3, #0]
 8003686:	f422 62e0 	bic.w	r2, r2, #1792	@ 0x700
 800368a:	605a      	str	r2, [r3, #4]
    __HAL_I2C_CLEAR_FLAG(hi2c, I2C_FLAG_AF);
 800368c:	687b      	ldr	r3, [r7, #4]
 800368e:	681b      	ldr	r3, [r3, #0]
 8003690:	f46f 6280 	mvn.w	r2, #1024	@ 0x400
 8003694:	615a      	str	r2, [r3, #20]
    CLEAR_BIT(hi2c->Instance->CR1, I2C_CR1_ACK);
 8003696:	687b      	ldr	r3, [r7, #4]
 8003698:	681b      	ldr	r3, [r3, #0]
 800369a:	681a      	ldr	r2, [r3, #0]
 800369c:	687b      	ldr	r3, [r7, #4]
 800369e:	681b      	ldr	r3, [r3, #0]
 80036a0:	f422 6280 	bic.w	r2, r2, #1024	@ 0x400
 80036a4:	601a      	str	r2, [r3, #0]
    I2C_Flush_DR(hi2c);
 80036a6:	6878      	ldr	r0, [r7, #4]
 80036a8:	f7fe fc5d 	bl	8001f66 <I2C_Flush_DR>
    HAL_I2C_SlaveTxCpltCallback(hi2c);
 80036ac:	6878      	ldr	r0, [r7, #4]
 80036ae:	f7fd fbed 	bl	8000e8c <HAL_I2C_SlaveTxCpltCallback>
}
 80036b2:	e004      	b.n	80036be <I2C_Slave_AF+0xda>
    __HAL_I2C_CLEAR_FLAG(hi2c, I2C_FLAG_AF);
 80036b4:	687b      	ldr	r3, [r7, #4]
 80036b6:	681b      	ldr	r3, [r3, #0]
 80036b8:	f46f 6280 	mvn.w	r2, #1024	@ 0x400
 80036bc:	615a      	str	r2, [r3, #20]
}
 80036be:	bf00      	nop
 80036c0:	3710      	adds	r7, #16
 80036c2:	46bd      	mov	sp, r7
 80036c4:	bd80      	pop	{r7, pc}
 80036c6:	bf00      	nop
 80036c8:	ffff0000 	.word	0xffff0000

080036cc <I2C_ITError>:
  * @brief  I2C interrupts error process
  * @param  hi2c I2C handle.
  * @retval None
  */
static void I2C_ITError(I2C_HandleTypeDef *hi2c)
{
 80036cc:	b580      	push	{r7, lr}
 80036ce:	b084      	sub	sp, #16
 80036d0:	af00      	add	r7, sp, #0
 80036d2:	6078      	str	r0, [r7, #4]
  /* Declaration of temporary variable to prevent undefined behavior of volatile usage */
  HAL_I2C_StateTypeDef CurrentState = hi2c->State;
 80036d4:	687b      	ldr	r3, [r7, #4]
 80036d6:	f893 303d 	ldrb.w	r3, [r3, #61]	@ 0x3d
 80036da:	73fb      	strb	r3, [r7, #15]
  HAL_I2C_ModeTypeDef CurrentMode = hi2c->Mode;
 80036dc:	687b      	ldr	r3, [r7, #4]
 80036de:	f893 303e 	ldrb.w	r3, [r3, #62]	@ 0x3e
 80036e2:	73bb      	strb	r3, [r7, #14]
  uint32_t CurrentError;

  if (((CurrentMode == HAL_I2C_MODE_MASTER) || (CurrentMode == HAL_I2C_MODE_MEM)) && (CurrentState == HAL_I2C_STATE_BUSY_RX))
 80036e4:	7bbb      	ldrb	r3, [r7, #14]
 80036e6:	2b10      	cmp	r3, #16
 80036e8:	d002      	beq.n	80036f0 <I2C_ITError+0x24>
 80036ea:	7bbb      	ldrb	r3, [r7, #14]
 80036ec:	2b40      	cmp	r3, #64	@ 0x40
 80036ee:	d10a      	bne.n	8003706 <I2C_ITError+0x3a>
 80036f0:	7bfb      	ldrb	r3, [r7, #15]
 80036f2:	2b22      	cmp	r3, #34	@ 0x22
 80036f4:	d107      	bne.n	8003706 <I2C_ITError+0x3a>
  {
    /* Disable Pos bit in I2C CR1 when error occurred in Master/Mem Receive IT Process */
    hi2c->Instance->CR1 &= ~I2C_CR1_POS;
 80036f6:	687b      	ldr	r3, [r7, #4]
 80036f8:	681b      	ldr	r3, [r3, #0]
 80036fa:	681a      	ldr	r2, [r3, #0]
 80036fc:	687b      	ldr	r3, [r7, #4]
 80036fe:	681b      	ldr	r3, [r3, #0]
 8003700:	f422 6200 	bic.w	r2, r2, #2048	@ 0x800
 8003704:	601a      	str	r2, [r3, #0]
  }

  if (((uint32_t)CurrentState & (uint32_t)HAL_I2C_STATE_LISTEN) == (uint32_t)HAL_I2C_STATE_LISTEN)
 8003706:	7bfb      	ldrb	r3, [r7, #15]
 8003708:	f003 0328 	and.w	r3, r3, #40	@ 0x28
 800370c:	2b28      	cmp	r3, #40	@ 0x28
 800370e:	d107      	bne.n	8003720 <I2C_ITError+0x54>
  {
    /* keep HAL_I2C_STATE_LISTEN */
    hi2c->PreviousState = I2C_STATE_NONE;
 8003710:	687b      	ldr	r3, [r7, #4]
 8003712:	2200      	movs	r2, #0
 8003714:	631a      	str	r2, [r3, #48]	@ 0x30
    hi2c->State = HAL_I2C_STATE_LISTEN;
 8003716:	687b      	ldr	r3, [r7, #4]
 8003718:	2228      	movs	r2, #40	@ 0x28
 800371a:	f883 203d 	strb.w	r2, [r3, #61]	@ 0x3d
 800371e:	e015      	b.n	800374c <I2C_ITError+0x80>
  }
  else
  {
    /* If state is an abort treatment on going, don't change state */
    /* This change will be do later */
    if ((READ_BIT(hi2c->Instance->CR2, I2C_CR2_DMAEN) != I2C_CR2_DMAEN) && (CurrentState != HAL_I2C_STATE_ABORT))
 8003720:	687b      	ldr	r3, [r7, #4]
 8003722:	681b      	ldr	r3, [r3, #0]
 8003724:	685b      	ldr	r3, [r3, #4]
 8003726:	f403 6300 	and.w	r3, r3, #2048	@ 0x800
 800372a:	f5b3 6f00 	cmp.w	r3, #2048	@ 0x800
 800372e:	d00a      	beq.n	8003746 <I2C_ITError+0x7a>
 8003730:	7bfb      	ldrb	r3, [r7, #15]
 8003732:	2b60      	cmp	r3, #96	@ 0x60
 8003734:	d007      	beq.n	8003746 <I2C_ITError+0x7a>
    {
      hi2c->State = HAL_I2C_STATE_READY;
 8003736:	687b      	ldr	r3, [r7, #4]
 8003738:	2220      	movs	r2, #32
 800373a:	f883 203d 	strb.w	r2, [r3, #61]	@ 0x3d
      hi2c->Mode = HAL_I2C_MODE_NONE;
 800373e:	687b      	ldr	r3, [r7, #4]
 8003740:	2200      	movs	r2, #0
 8003742:	f883 203e 	strb.w	r2, [r3, #62]	@ 0x3e
    }
    hi2c->PreviousState = I2C_STATE_NONE;
 8003746:	687b      	ldr	r3, [r7, #4]
 8003748:	2200      	movs	r2, #0
 800374a:	631a      	str	r2, [r3, #48]	@ 0x30
  }

  /* Abort DMA transfer */
  if (READ_BIT(hi2c->Instance->CR2, I2C_CR2_DMAEN) == I2C_CR2_DMAEN)
 800374c:	687b      	ldr	r3, [r7, #4]
 800374e:	681b      	ldr	r3, [r3, #0]
 8003750:	685b      	ldr	r3, [r3, #4]
 8003752:	f403 6300 	and.w	r3, r3, #2048	@ 0x800
 8003756:	f5b3 6f00 	cmp.w	r3, #2048	@ 0x800
 800375a:	d162      	bne.n	8003822 <I2C_ITError+0x156>
  {
    hi2c->Instance->CR2 &= ~I2C_CR2_DMAEN;
 800375c:	687b      	ldr	r3, [r7, #4]
 800375e:	681b      	ldr	r3, [r3, #0]
 8003760:	685a      	ldr	r2, [r3, #4]
 8003762:	687b      	ldr	r3, [r7, #4]
 8003764:	681b      	ldr	r3, [r3, #0]
 8003766:	f422 6200 	bic.w	r2, r2, #2048	@ 0x800
 800376a:	605a      	str	r2, [r3, #4]

    if (hi2c->hdmatx->State != HAL_DMA_STATE_READY)
 800376c:	687b      	ldr	r3, [r7, #4]
 800376e:	6b5b      	ldr	r3, [r3, #52]	@ 0x34
 8003770:	f893 3021 	ldrb.w	r3, [r3, #33]	@ 0x21
 8003774:	b2db      	uxtb	r3, r3
 8003776:	2b01      	cmp	r3, #1
 8003778:	d020      	beq.n	80037bc <I2C_ITError+0xf0>
    {
      /* Set the DMA Abort callback :
      will lead to call HAL_I2C_ErrorCallback() at end of DMA abort procedure */
      hi2c->hdmatx->XferAbortCallback = I2C_DMAAbort;
 800377a:	687b      	ldr	r3, [r7, #4]
 800377c:	6b5b      	ldr	r3, [r3, #52]	@ 0x34
 800377e:	4a6a      	ldr	r2, [pc, #424]	@ (8003928 <I2C_ITError+0x25c>)
 8003780:	635a      	str	r2, [r3, #52]	@ 0x34

      if (HAL_DMA_Abort_IT(hi2c->hdmatx) != HAL_OK)
 8003782:	687b      	ldr	r3, [r7, #4]
 8003784:	6b5b      	ldr	r3, [r3, #52]	@ 0x34
 8003786:	4618      	mov	r0, r3
 8003788:	f7fd ff6a 	bl	8001660 <HAL_DMA_Abort_IT>
 800378c:	4603      	mov	r3, r0
 800378e:	2b00      	cmp	r3, #0
 8003790:	f000 8089 	beq.w	80038a6 <I2C_ITError+0x1da>
      {
        /* Disable I2C peripheral to prevent dummy data in buffer */
        __HAL_I2C_DISABLE(hi2c);
 8003794:	687b      	ldr	r3, [r7, #4]
 8003796:	681b      	ldr	r3, [r3, #0]
 8003798:	681a      	ldr	r2, [r3, #0]
 800379a:	687b      	ldr	r3, [r7, #4]
 800379c:	681b      	ldr	r3, [r3, #0]
 800379e:	f022 0201 	bic.w	r2, r2, #1
 80037a2:	601a      	str	r2, [r3, #0]

        hi2c->State = HAL_I2C_STATE_READY;
 80037a4:	687b      	ldr	r3, [r7, #4]
 80037a6:	2220      	movs	r2, #32
 80037a8:	f883 203d 	strb.w	r2, [r3, #61]	@ 0x3d

        /* Call Directly XferAbortCallback function in case of error */
        hi2c->hdmatx->XferAbortCallback(hi2c->hdmatx);
 80037ac:	687b      	ldr	r3, [r7, #4]
 80037ae:	6b5b      	ldr	r3, [r3, #52]	@ 0x34
 80037b0:	6b5b      	ldr	r3, [r3, #52]	@ 0x34
 80037b2:	687a      	ldr	r2, [r7, #4]
 80037b4:	6b52      	ldr	r2, [r2, #52]	@ 0x34
 80037b6:	4610      	mov	r0, r2
 80037b8:	4798      	blx	r3
 80037ba:	e074      	b.n	80038a6 <I2C_ITError+0x1da>
    }
    else
    {
      /* Set the DMA Abort callback :
      will lead to call HAL_I2C_ErrorCallback() at end of DMA abort procedure */
      hi2c->hdmarx->XferAbortCallback = I2C_DMAAbort;
 80037bc:	687b      	ldr	r3, [r7, #4]
 80037be:	6b9b      	ldr	r3, [r3, #56]	@ 0x38
 80037c0:	4a59      	ldr	r2, [pc, #356]	@ (8003928 <I2C_ITError+0x25c>)
 80037c2:	635a      	str	r2, [r3, #52]	@ 0x34

      if (HAL_DMA_Abort_IT(hi2c->hdmarx) != HAL_OK)
 80037c4:	687b      	ldr	r3, [r7, #4]
 80037c6:	6b9b      	ldr	r3, [r3, #56]	@ 0x38
 80037c8:	4618      	mov	r0, r3
 80037ca:	f7fd ff49 	bl	8001660 <HAL_DMA_Abort_IT>
 80037ce:	4603      	mov	r3, r0
 80037d0:	2b00      	cmp	r3, #0
 80037d2:	d068      	beq.n	80038a6 <I2C_ITError+0x1da>
      {
        /* Store Last receive data if any */
        if (__HAL_I2C_GET_FLAG(hi2c, I2C_FLAG_RXNE) == SET)
 80037d4:	687b      	ldr	r3, [r7, #4]
 80037d6:	681b      	ldr	r3, [r3, #0]
 80037d8:	695b      	ldr	r3, [r3, #20]
 80037da:	f003 0340 	and.w	r3, r3, #64	@ 0x40
 80037de:	2b40      	cmp	r3, #64	@ 0x40
 80037e0:	d10b      	bne.n	80037fa <I2C_ITError+0x12e>
        {
          /* Read data from DR */
          *hi2c->pBuffPtr = (uint8_t)hi2c->Instance->DR;
 80037e2:	687b      	ldr	r3, [r7, #4]
 80037e4:	681b      	ldr	r3, [r3, #0]
 80037e6:	691a      	ldr	r2, [r3, #16]
 80037e8:	687b      	ldr	r3, [r7, #4]
 80037ea:	6a5b      	ldr	r3, [r3, #36]	@ 0x24
 80037ec:	b2d2      	uxtb	r2, r2
 80037ee:	701a      	strb	r2, [r3, #0]

          /* Increment Buffer pointer */
          hi2c->pBuffPtr++;
 80037f0:	687b      	ldr	r3, [r7, #4]
 80037f2:	6a5b      	ldr	r3, [r3, #36]	@ 0x24
 80037f4:	1c5a      	adds	r2, r3, #1
 80037f6:	687b      	ldr	r3, [r7, #4]
 80037f8:	625a      	str	r2, [r3, #36]	@ 0x24
        }

        /* Disable I2C peripheral to prevent dummy data in buffer */
        __HAL_I2C_DISABLE(hi2c);
 80037fa:	687b      	ldr	r3, [r7, #4]
 80037fc:	681b      	ldr	r3, [r3, #0]
 80037fe:	681a      	ldr	r2, [r3, #0]
 8003800:	687b      	ldr	r3, [r7, #4]
 8003802:	681b      	ldr	r3, [r3, #0]
 8003804:	f022 0201 	bic.w	r2, r2, #1
 8003808:	601a      	str	r2, [r3, #0]

        hi2c->State = HAL_I2C_STATE_READY;
 800380a:	687b      	ldr	r3, [r7, #4]
 800380c:	2220      	movs	r2, #32
 800380e:	f883 203d 	strb.w	r2, [r3, #61]	@ 0x3d

        /* Call Directly hi2c->hdmarx->XferAbortCallback function in case of error */
        hi2c->hdmarx->XferAbortCallback(hi2c->hdmarx);
 8003812:	687b      	ldr	r3, [r7, #4]
 8003814:	6b9b      	ldr	r3, [r3, #56]	@ 0x38
 8003816:	6b5b      	ldr	r3, [r3, #52]	@ 0x34
 8003818:	687a      	ldr	r2, [r7, #4]
 800381a:	6b92      	ldr	r2, [r2, #56]	@ 0x38
 800381c:	4610      	mov	r0, r2
 800381e:	4798      	blx	r3
 8003820:	e041      	b.n	80038a6 <I2C_ITError+0x1da>
      }
    }
  }
  else if (hi2c->State == HAL_I2C_STATE_ABORT)
 8003822:	687b      	ldr	r3, [r7, #4]
 8003824:	f893 303d 	ldrb.w	r3, [r3, #61]	@ 0x3d
 8003828:	b2db      	uxtb	r3, r3
 800382a:	2b60      	cmp	r3, #96	@ 0x60
 800382c:	d125      	bne.n	800387a <I2C_ITError+0x1ae>
  {
    hi2c->State = HAL_I2C_STATE_READY;
 800382e:	687b      	ldr	r3, [r7, #4]
 8003830:	2220      	movs	r2, #32
 8003832:	f883 203d 	strb.w	r2, [r3, #61]	@ 0x3d
    hi2c->ErrorCode = HAL_I2C_ERROR_NONE;
 8003836:	687b      	ldr	r3, [r7, #4]
 8003838:	2200      	movs	r2, #0
 800383a:	641a      	str	r2, [r3, #64]	@ 0x40

    /* Store Last receive data if any */
    if (__HAL_I2C_GET_FLAG(hi2c, I2C_FLAG_RXNE) == SET)
 800383c:	687b      	ldr	r3, [r7, #4]
 800383e:	681b      	ldr	r3, [r3, #0]
 8003840:	695b      	ldr	r3, [r3, #20]
 8003842:	f003 0340 	and.w	r3, r3, #64	@ 0x40
 8003846:	2b40      	cmp	r3, #64	@ 0x40
 8003848:	d10b      	bne.n	8003862 <I2C_ITError+0x196>
    {
      /* Read data from DR */
      *hi2c->pBuffPtr = (uint8_t)hi2c->Instance->DR;
 800384a:	687b      	ldr	r3, [r7, #4]
 800384c:	681b      	ldr	r3, [r3, #0]
 800384e:	691a      	ldr	r2, [r3, #16]
 8003850:	687b      	ldr	r3, [r7, #4]
 8003852:	6a5b      	ldr	r3, [r3, #36]	@ 0x24
 8003854:	b2d2      	uxtb	r2, r2
 8003856:	701a      	strb	r2, [r3, #0]

      /* Increment Buffer pointer */
      hi2c->pBuffPtr++;
 8003858:	687b      	ldr	r3, [r7, #4]
 800385a:	6a5b      	ldr	r3, [r3, #36]	@ 0x24
 800385c:	1c5a      	adds	r2, r3, #1
 800385e:	687b      	ldr	r3, [r7, #4]
 8003860:	625a      	str	r2, [r3, #36]	@ 0x24
    }

    /* Disable I2C peripheral to prevent dummy data in buffer */
    __HAL_I2C_DISABLE(hi2c);
 8003862:	687b      	ldr	r3, [r7, #4]
 8003864:	681b      	ldr	r3, [r3, #0]
 8003866:	681a      	ldr	r2, [r3, #0]
 8003868:	687b      	ldr	r3, [r7, #4]
 800386a:	681b      	ldr	r3, [r3, #0]
 800386c:	f022 0201 	bic.w	r2, r2, #1
 8003870:	601a      	str	r2, [r3, #0]

    /* Call the corresponding callback to inform upper layer of End of Transfer */
#if (USE_HAL_I2C_REGISTER_CALLBACKS == 1)
    hi2c->AbortCpltCallback(hi2c);
#else
    HAL_I2C_AbortCpltCallback(hi2c);
 8003872:	6878      	ldr	r0, [r7, #4]
 8003874:	f7fe fecb 	bl	800260e <HAL_I2C_AbortCpltCallback>
 8003878:	e015      	b.n	80038a6 <I2C_ITError+0x1da>
#endif /* USE_HAL_I2C_REGISTER_CALLBACKS */
  }
  else
  {
    /* Store Last receive data if any */
    if (__HAL_I2C_GET_FLAG(hi2c, I2C_FLAG_RXNE) == SET)
 800387a:	687b      	ldr	r3, [r7, #4]
 800387c:	681b      	ldr	r3, [r3, #0]
 800387e:	695b      	ldr	r3, [r3, #20]
 8003880:	f003 0340 	and.w	r3, r3, #64	@ 0x40
 8003884:	2b40      	cmp	r3, #64	@ 0x40
 8003886:	d10b      	bne.n	80038a0 <I2C_ITError+0x1d4>
    {
      /* Read data from DR */
      *hi2c->pBuffPtr = (uint8_t)hi2c->Instance->DR;
 8003888:	687b      	ldr	r3, [r7, #4]
 800388a:	681b      	ldr	r3, [r3, #0]
 800388c:	691a      	ldr	r2, [r3, #16]
 800388e:	687b      	ldr	r3, [r7, #4]
 8003890:	6a5b      	ldr	r3, [r3, #36]	@ 0x24
 8003892:	b2d2      	uxtb	r2, r2
 8003894:	701a      	strb	r2, [r3, #0]

      /* Increment Buffer pointer */
      hi2c->pBuffPtr++;
 8003896:	687b      	ldr	r3, [r7, #4]
 8003898:	6a5b      	ldr	r3, [r3, #36]	@ 0x24
 800389a:	1c5a      	adds	r2, r3, #1
 800389c:	687b      	ldr	r3, [r7, #4]
 800389e:	625a      	str	r2, [r3, #36]	@ 0x24

    /* Call user error callback */
#if (USE_HAL_I2C_REGISTER_CALLBACKS == 1)
    hi2c->ErrorCallback(hi2c);
#else
    HAL_I2C_ErrorCallback(hi2c);
 80038a0:	6878      	ldr	r0, [r7, #4]
 80038a2:	f7fe feab 	bl	80025fc <HAL_I2C_ErrorCallback>
#endif /* USE_HAL_I2C_REGISTER_CALLBACKS */
  }

  /* STOP Flag is not set after a NACK reception, BusError, ArbitrationLost, OverRun */
  CurrentError = hi2c->ErrorCode;
 80038a6:	687b      	ldr	r3, [r7, #4]
 80038a8:	6c1b      	ldr	r3, [r3, #64]	@ 0x40
 80038aa:	60bb      	str	r3, [r7, #8]

  if (((CurrentError & HAL_I2C_ERROR_BERR) == HAL_I2C_ERROR_BERR) || \
 80038ac:	68bb      	ldr	r3, [r7, #8]
 80038ae:	f003 0301 	and.w	r3, r3, #1
 80038b2:	2b00      	cmp	r3, #0
 80038b4:	d10e      	bne.n	80038d4 <I2C_ITError+0x208>
      ((CurrentError & HAL_I2C_ERROR_ARLO) == HAL_I2C_ERROR_ARLO) || \
 80038b6:	68bb      	ldr	r3, [r7, #8]
 80038b8:	f003 0302 	and.w	r3, r3, #2
  if (((CurrentError & HAL_I2C_ERROR_BERR) == HAL_I2C_ERROR_BERR) || \
 80038bc:	2b00      	cmp	r3, #0
 80038be:	d109      	bne.n	80038d4 <I2C_ITError+0x208>
      ((CurrentError & HAL_I2C_ERROR_AF) == HAL_I2C_ERROR_AF)     || \
 80038c0:	68bb      	ldr	r3, [r7, #8]
 80038c2:	f003 0304 	and.w	r3, r3, #4
      ((CurrentError & HAL_I2C_ERROR_ARLO) == HAL_I2C_ERROR_ARLO) || \
 80038c6:	2b00      	cmp	r3, #0
 80038c8:	d104      	bne.n	80038d4 <I2C_ITError+0x208>
      ((CurrentError & HAL_I2C_ERROR_OVR) == HAL_I2C_ERROR_OVR))
 80038ca:	68bb      	ldr	r3, [r7, #8]
 80038cc:	f003 0308 	and.w	r3, r3, #8
      ((CurrentError & HAL_I2C_ERROR_AF) == HAL_I2C_ERROR_AF)     || \
 80038d0:	2b00      	cmp	r3, #0
 80038d2:	d007      	beq.n	80038e4 <I2C_ITError+0x218>
  {
    /* Disable EVT, BUF and ERR interrupt */
    __HAL_I2C_DISABLE_IT(hi2c, I2C_IT_EVT | I2C_IT_BUF | I2C_IT_ERR);
 80038d4:	687b      	ldr	r3, [r7, #4]
 80038d6:	681b      	ldr	r3, [r3, #0]
 80038d8:	685a      	ldr	r2, [r3, #4]
 80038da:	687b      	ldr	r3, [r7, #4]
 80038dc:	681b      	ldr	r3, [r3, #0]
 80038de:	f422 62e0 	bic.w	r2, r2, #1792	@ 0x700
 80038e2:	605a      	str	r2, [r3, #4]
  }

  /* So may inform upper layer that listen phase is stopped */
  /* during NACK error treatment */
  CurrentState = hi2c->State;
 80038e4:	687b      	ldr	r3, [r7, #4]
 80038e6:	f893 303d 	ldrb.w	r3, [r3, #61]	@ 0x3d
 80038ea:	73fb      	strb	r3, [r7, #15]
  if (((hi2c->ErrorCode & HAL_I2C_ERROR_AF) == HAL_I2C_ERROR_AF) && (CurrentState == HAL_I2C_STATE_LISTEN))
 80038ec:	687b      	ldr	r3, [r7, #4]
 80038ee:	6c1b      	ldr	r3, [r3, #64]	@ 0x40
 80038f0:	f003 0304 	and.w	r3, r3, #4
 80038f4:	2b04      	cmp	r3, #4
 80038f6:	d113      	bne.n	8003920 <I2C_ITError+0x254>
 80038f8:	7bfb      	ldrb	r3, [r7, #15]
 80038fa:	2b28      	cmp	r3, #40	@ 0x28
 80038fc:	d110      	bne.n	8003920 <I2C_ITError+0x254>
  {
    hi2c->XferOptions   = I2C_NO_OPTION_FRAME;
 80038fe:	687b      	ldr	r3, [r7, #4]
 8003900:	4a0a      	ldr	r2, [pc, #40]	@ (800392c <I2C_ITError+0x260>)
 8003902:	62da      	str	r2, [r3, #44]	@ 0x2c
    hi2c->PreviousState = I2C_STATE_NONE;
 8003904:	687b      	ldr	r3, [r7, #4]
 8003906:	2200      	movs	r2, #0
 8003908:	631a      	str	r2, [r3, #48]	@ 0x30
    hi2c->State         = HAL_I2C_STATE_READY;
 800390a:	687b      	ldr	r3, [r7, #4]
 800390c:	2220      	movs	r2, #32
 800390e:	f883 203d 	strb.w	r2, [r3, #61]	@ 0x3d
    hi2c->Mode          = HAL_I2C_MODE_NONE;
 8003912:	687b      	ldr	r3, [r7, #4]
 8003914:	2200      	movs	r2, #0
 8003916:	f883 203e 	strb.w	r2, [r3, #62]	@ 0x3e

    /* Call the Listen Complete callback, to inform upper layer of the end of Listen usecase */
#if (USE_HAL_I2C_REGISTER_CALLBACKS == 1)
    hi2c->ListenCpltCallback(hi2c);
#else
    HAL_I2C_ListenCpltCallback(hi2c);
 800391a:	6878      	ldr	r0, [r7, #4]
 800391c:	f7fe fe53 	bl	80025c6 <HAL_I2C_ListenCpltCallback>
#endif /* USE_HAL_I2C_REGISTER_CALLBACKS */
  }
}
 8003920:	bf00      	nop
 8003922:	3710      	adds	r7, #16
 8003924:	46bd      	mov	sp, r7
 8003926:	bd80      	pop	{r7, pc}
 8003928:	08003931 	.word	0x08003931
 800392c:	ffff0000 	.word	0xffff0000

08003930 <I2C_DMAAbort>:
  *        (To be called at end of DMA Abort procedure).
  * @param hdma DMA handle.
  * @retval None
  */
static void I2C_DMAAbort(DMA_HandleTypeDef *hdma)
{
 8003930:	b580      	push	{r7, lr}
 8003932:	b086      	sub	sp, #24
 8003934:	af00      	add	r7, sp, #0
 8003936:	6078      	str	r0, [r7, #4]
  __IO uint32_t count = 0U;
 8003938:	2300      	movs	r3, #0
 800393a:	60fb      	str	r3, [r7, #12]
  I2C_HandleTypeDef *hi2c = (I2C_HandleTypeDef *)((DMA_HandleTypeDef *)hdma)->Parent; /* Derogation MISRAC2012-Rule-11.5 */
 800393c:	687b      	ldr	r3, [r7, #4]
 800393e:	6a5b      	ldr	r3, [r3, #36]	@ 0x24
 8003940:	617b      	str	r3, [r7, #20]

  /* Declaration of temporary variable to prevent undefined behavior of volatile usage */
  HAL_I2C_StateTypeDef CurrentState = hi2c->State;
 8003942:	697b      	ldr	r3, [r7, #20]
 8003944:	f893 303d 	ldrb.w	r3, [r3, #61]	@ 0x3d
 8003948:	74fb      	strb	r3, [r7, #19]

  /* During abort treatment, check that there is no pending STOP request */
  /* Wait until STOP flag is reset */
  count = I2C_TIMEOUT_FLAG * (SystemCoreClock / 25U / 1000U);
 800394a:	4b4b      	ldr	r3, [pc, #300]	@ (8003a78 <I2C_DMAAbort+0x148>)
 800394c:	681b      	ldr	r3, [r3, #0]
 800394e:	08db      	lsrs	r3, r3, #3
 8003950:	4a4a      	ldr	r2, [pc, #296]	@ (8003a7c <I2C_DMAAbort+0x14c>)
 8003952:	fba2 2303 	umull	r2, r3, r2, r3
 8003956:	0a1a      	lsrs	r2, r3, #8
 8003958:	4613      	mov	r3, r2
 800395a:	009b      	lsls	r3, r3, #2
 800395c:	4413      	add	r3, r2
 800395e:	00da      	lsls	r2, r3, #3
 8003960:	1ad3      	subs	r3, r2, r3
 8003962:	60fb      	str	r3, [r7, #12]
  do
  {
    if (count == 0U)
 8003964:	68fb      	ldr	r3, [r7, #12]
 8003966:	2b00      	cmp	r3, #0
 8003968:	d106      	bne.n	8003978 <I2C_DMAAbort+0x48>
    {
      hi2c->ErrorCode |= HAL_I2C_ERROR_TIMEOUT;
 800396a:	697b      	ldr	r3, [r7, #20]
 800396c:	6c1b      	ldr	r3, [r3, #64]	@ 0x40
 800396e:	f043 0220 	orr.w	r2, r3, #32
 8003972:	697b      	ldr	r3, [r7, #20]
 8003974:	641a      	str	r2, [r3, #64]	@ 0x40
      break;
 8003976:	e00a      	b.n	800398e <I2C_DMAAbort+0x5e>
    }
    count--;
 8003978:	68fb      	ldr	r3, [r7, #12]
 800397a:	3b01      	subs	r3, #1
 800397c:	60fb      	str	r3, [r7, #12]
  }
  while (READ_BIT(hi2c->Instance->CR1, I2C_CR1_STOP) == I2C_CR1_STOP);
 800397e:	697b      	ldr	r3, [r7, #20]
 8003980:	681b      	ldr	r3, [r3, #0]
 8003982:	681b      	ldr	r3, [r3, #0]
 8003984:	f403 7300 	and.w	r3, r3, #512	@ 0x200
 8003988:	f5b3 7f00 	cmp.w	r3, #512	@ 0x200
 800398c:	d0ea      	beq.n	8003964 <I2C_DMAAbort+0x34>

  /* Clear Complete callback */
  if (hi2c->hdmatx != NULL)
 800398e:	697b      	ldr	r3, [r7, #20]
 8003990:	6b5b      	ldr	r3, [r3, #52]	@ 0x34
 8003992:	2b00      	cmp	r3, #0
 8003994:	d003      	beq.n	800399e <I2C_DMAAbort+0x6e>
  {
    hi2c->hdmatx->XferCpltCallback = NULL;
 8003996:	697b      	ldr	r3, [r7, #20]
 8003998:	6b5b      	ldr	r3, [r3, #52]	@ 0x34
 800399a:	2200      	movs	r2, #0
 800399c:	629a      	str	r2, [r3, #40]	@ 0x28
  }
  if (hi2c->hdmarx != NULL)
 800399e:	697b      	ldr	r3, [r7, #20]
 80039a0:	6b9b      	ldr	r3, [r3, #56]	@ 0x38
 80039a2:	2b00      	cmp	r3, #0
 80039a4:	d003      	beq.n	80039ae <I2C_DMAAbort+0x7e>
  {
    hi2c->hdmarx->XferCpltCallback = NULL;
 80039a6:	697b      	ldr	r3, [r7, #20]
 80039a8:	6b9b      	ldr	r3, [r3, #56]	@ 0x38
 80039aa:	2200      	movs	r2, #0
 80039ac:	629a      	str	r2, [r3, #40]	@ 0x28
  }

  /* Disable Acknowledge */
  CLEAR_BIT(hi2c->Instance->CR1, I2C_CR1_ACK);
 80039ae:	697b      	ldr	r3, [r7, #20]
 80039b0:	681b      	ldr	r3, [r3, #0]
 80039b2:	681a      	ldr	r2, [r3, #0]
 80039b4:	697b      	ldr	r3, [r7, #20]
 80039b6:	681b      	ldr	r3, [r3, #0]
 80039b8:	f422 6280 	bic.w	r2, r2, #1024	@ 0x400
 80039bc:	601a      	str	r2, [r3, #0]

  hi2c->XferCount = 0U;
 80039be:	697b      	ldr	r3, [r7, #20]
 80039c0:	2200      	movs	r2, #0
 80039c2:	855a      	strh	r2, [r3, #42]	@ 0x2a

  /* Reset XferAbortCallback */
  if (hi2c->hdmatx != NULL)
 80039c4:	697b      	ldr	r3, [r7, #20]
 80039c6:	6b5b      	ldr	r3, [r3, #52]	@ 0x34
 80039c8:	2b00      	cmp	r3, #0
 80039ca:	d003      	beq.n	80039d4 <I2C_DMAAbort+0xa4>
  {
    hi2c->hdmatx->XferAbortCallback = NULL;
 80039cc:	697b      	ldr	r3, [r7, #20]
 80039ce:	6b5b      	ldr	r3, [r3, #52]	@ 0x34
 80039d0:	2200      	movs	r2, #0
 80039d2:	635a      	str	r2, [r3, #52]	@ 0x34
  }
  if (hi2c->hdmarx != NULL)
 80039d4:	697b      	ldr	r3, [r7, #20]
 80039d6:	6b9b      	ldr	r3, [r3, #56]	@ 0x38
 80039d8:	2b00      	cmp	r3, #0
 80039da:	d003      	beq.n	80039e4 <I2C_DMAAbort+0xb4>
  {
    hi2c->hdmarx->XferAbortCallback = NULL;
 80039dc:	697b      	ldr	r3, [r7, #20]
 80039de:	6b9b      	ldr	r3, [r3, #56]	@ 0x38
 80039e0:	2200      	movs	r2, #0
 80039e2:	635a      	str	r2, [r3, #52]	@ 0x34
  }

  /* Disable I2C peripheral to prevent dummy data in buffer */
  __HAL_I2C_DISABLE(hi2c);
 80039e4:	697b      	ldr	r3, [r7, #20]
 80039e6:	681b      	ldr	r3, [r3, #0]
 80039e8:	681a      	ldr	r2, [r3, #0]
 80039ea:	697b      	ldr	r3, [r7, #20]
 80039ec:	681b      	ldr	r3, [r3, #0]
 80039ee:	f022 0201 	bic.w	r2, r2, #1
 80039f2:	601a      	str	r2, [r3, #0]

  /* Check if come from abort from user */
  if (hi2c->State == HAL_I2C_STATE_ABORT)
 80039f4:	697b      	ldr	r3, [r7, #20]
 80039f6:	f893 303d 	ldrb.w	r3, [r3, #61]	@ 0x3d
 80039fa:	b2db      	uxtb	r3, r3
 80039fc:	2b60      	cmp	r3, #96	@ 0x60
 80039fe:	d10e      	bne.n	8003a1e <I2C_DMAAbort+0xee>
  {
    hi2c->State         = HAL_I2C_STATE_READY;
 8003a00:	697b      	ldr	r3, [r7, #20]
 8003a02:	2220      	movs	r2, #32
 8003a04:	f883 203d 	strb.w	r2, [r3, #61]	@ 0x3d
    hi2c->Mode          = HAL_I2C_MODE_NONE;
 8003a08:	697b      	ldr	r3, [r7, #20]
 8003a0a:	2200      	movs	r2, #0
 8003a0c:	f883 203e 	strb.w	r2, [r3, #62]	@ 0x3e
    hi2c->ErrorCode     = HAL_I2C_ERROR_NONE;
 8003a10:	697b      	ldr	r3, [r7, #20]
 8003a12:	2200      	movs	r2, #0
 8003a14:	641a      	str	r2, [r3, #64]	@ 0x40

    /* Call the corresponding callback to inform upper layer of End of Transfer */
#if (USE_HAL_I2C_REGISTER_CALLBACKS == 1)
    hi2c->AbortCpltCallback(hi2c);
#else
    HAL_I2C_AbortCpltCallback(hi2c);
 8003a16:	6978      	ldr	r0, [r7, #20]
 8003a18:	f7fe fdf9 	bl	800260e <HAL_I2C_AbortCpltCallback>
    hi2c->ErrorCallback(hi2c);
#else
    HAL_I2C_ErrorCallback(hi2c);
#endif /* USE_HAL_I2C_REGISTER_CALLBACKS */
  }
}
 8003a1c:	e027      	b.n	8003a6e <I2C_DMAAbort+0x13e>
    if (((uint32_t)CurrentState & (uint32_t)HAL_I2C_STATE_LISTEN) == (uint32_t)HAL_I2C_STATE_LISTEN)
 8003a1e:	7cfb      	ldrb	r3, [r7, #19]
 8003a20:	f003 0328 	and.w	r3, r3, #40	@ 0x28
 8003a24:	2b28      	cmp	r3, #40	@ 0x28
 8003a26:	d117      	bne.n	8003a58 <I2C_DMAAbort+0x128>
      __HAL_I2C_ENABLE(hi2c);
 8003a28:	697b      	ldr	r3, [r7, #20]
 8003a2a:	681b      	ldr	r3, [r3, #0]
 8003a2c:	681a      	ldr	r2, [r3, #0]
 8003a2e:	697b      	ldr	r3, [r7, #20]
 8003a30:	681b      	ldr	r3, [r3, #0]
 8003a32:	f042 0201 	orr.w	r2, r2, #1
 8003a36:	601a      	str	r2, [r3, #0]
      SET_BIT(hi2c->Instance->CR1, I2C_CR1_ACK);
 8003a38:	697b      	ldr	r3, [r7, #20]
 8003a3a:	681b      	ldr	r3, [r3, #0]
 8003a3c:	681a      	ldr	r2, [r3, #0]
 8003a3e:	697b      	ldr	r3, [r7, #20]
 8003a40:	681b      	ldr	r3, [r3, #0]
 8003a42:	f442 6280 	orr.w	r2, r2, #1024	@ 0x400
 8003a46:	601a      	str	r2, [r3, #0]
      hi2c->PreviousState = I2C_STATE_NONE;
 8003a48:	697b      	ldr	r3, [r7, #20]
 8003a4a:	2200      	movs	r2, #0
 8003a4c:	631a      	str	r2, [r3, #48]	@ 0x30
      hi2c->State = HAL_I2C_STATE_LISTEN;
 8003a4e:	697b      	ldr	r3, [r7, #20]
 8003a50:	2228      	movs	r2, #40	@ 0x28
 8003a52:	f883 203d 	strb.w	r2, [r3, #61]	@ 0x3d
 8003a56:	e007      	b.n	8003a68 <I2C_DMAAbort+0x138>
      hi2c->State = HAL_I2C_STATE_READY;
 8003a58:	697b      	ldr	r3, [r7, #20]
 8003a5a:	2220      	movs	r2, #32
 8003a5c:	f883 203d 	strb.w	r2, [r3, #61]	@ 0x3d
      hi2c->Mode = HAL_I2C_MODE_NONE;
 8003a60:	697b      	ldr	r3, [r7, #20]
 8003a62:	2200      	movs	r2, #0
 8003a64:	f883 203e 	strb.w	r2, [r3, #62]	@ 0x3e
    HAL_I2C_ErrorCallback(hi2c);
 8003a68:	6978      	ldr	r0, [r7, #20]
 8003a6a:	f7fe fdc7 	bl	80025fc <HAL_I2C_ErrorCallback>
}
 8003a6e:	bf00      	nop
 8003a70:	3718      	adds	r7, #24
 8003a72:	46bd      	mov	sp, r7
 8003a74:	bd80      	pop	{r7, pc}
 8003a76:	bf00      	nop
 8003a78:	20000018 	.word	0x20000018
 8003a7c:	14f8b589 	.word	0x14f8b589

08003a80 <I2C_WaitOnSTOPRequestThroughIT>:
  * @param  hi2c Pointer to a I2C_HandleTypeDef structure that contains
  *                the configuration information for the specified I2C.
  * @retval HAL status
  */
static HAL_StatusTypeDef I2C_WaitOnSTOPRequestThroughIT(I2C_HandleTypeDef *hi2c)
{
 8003a80:	b480      	push	{r7}
 8003a82:	b085      	sub	sp, #20
 8003a84:	af00      	add	r7, sp, #0
 8003a86:	6078      	str	r0, [r7, #4]
  __IO uint32_t count = 0U;
 8003a88:	2300      	movs	r3, #0
 8003a8a:	60fb      	str	r3, [r7, #12]

  /* Wait until STOP flag is reset */
  count = I2C_TIMEOUT_STOP_FLAG * (SystemCoreClock / 25U / 1000U);
 8003a8c:	4b13      	ldr	r3, [pc, #76]	@ (8003adc <I2C_WaitOnSTOPRequestThroughIT+0x5c>)
 8003a8e:	681b      	ldr	r3, [r3, #0]
 8003a90:	08db      	lsrs	r3, r3, #3
 8003a92:	4a13      	ldr	r2, [pc, #76]	@ (8003ae0 <I2C_WaitOnSTOPRequestThroughIT+0x60>)
 8003a94:	fba2 2303 	umull	r2, r3, r2, r3
 8003a98:	0a1a      	lsrs	r2, r3, #8
 8003a9a:	4613      	mov	r3, r2
 8003a9c:	009b      	lsls	r3, r3, #2
 8003a9e:	4413      	add	r3, r2
 8003aa0:	60fb      	str	r3, [r7, #12]
  do
  {
    count--;
 8003aa2:	68fb      	ldr	r3, [r7, #12]
 8003aa4:	3b01      	subs	r3, #1
 8003aa6:	60fb      	str	r3, [r7, #12]
    if (count == 0U)
 8003aa8:	68fb      	ldr	r3, [r7, #12]
 8003aaa:	2b00      	cmp	r3, #0
 8003aac:	d107      	bne.n	8003abe <I2C_WaitOnSTOPRequestThroughIT+0x3e>
    {
      hi2c->ErrorCode           |= HAL_I2C_ERROR_TIMEOUT;
 8003aae:	687b      	ldr	r3, [r7, #4]
 8003ab0:	6c1b      	ldr	r3, [r3, #64]	@ 0x40
 8003ab2:	f043 0220 	orr.w	r2, r3, #32
 8003ab6:	687b      	ldr	r3, [r7, #4]
 8003ab8:	641a      	str	r2, [r3, #64]	@ 0x40

      return HAL_ERROR;
 8003aba:	2301      	movs	r3, #1
 8003abc:	e008      	b.n	8003ad0 <I2C_WaitOnSTOPRequestThroughIT+0x50>
    }
  }
  while (READ_BIT(hi2c->Instance->CR1, I2C_CR1_STOP) == I2C_CR1_STOP);
 8003abe:	687b      	ldr	r3, [r7, #4]
 8003ac0:	681b      	ldr	r3, [r3, #0]
 8003ac2:	681b      	ldr	r3, [r3, #0]
 8003ac4:	f403 7300 	and.w	r3, r3, #512	@ 0x200
 8003ac8:	f5b3 7f00 	cmp.w	r3, #512	@ 0x200
 8003acc:	d0e9      	beq.n	8003aa2 <I2C_WaitOnSTOPRequestThroughIT+0x22>

  return HAL_OK;
 8003ace:	2300      	movs	r3, #0
}
 8003ad0:	4618      	mov	r0, r3
 8003ad2:	3714      	adds	r7, #20
 8003ad4:	46bd      	mov	sp, r7
 8003ad6:	bc80      	pop	{r7}
 8003ad8:	4770      	bx	lr
 8003ada:	bf00      	nop
 8003adc:	20000018 	.word	0x20000018
 8003ae0:	14f8b589 	.word	0x14f8b589

08003ae4 <I2C_ConvertOtherXferOptions>:
  * @brief  Convert I2Cx OTHER_xxx XferOptions to functional XferOptions.
  * @param  hi2c I2C handle.
  * @retval None
  */
static void I2C_ConvertOtherXferOptions(I2C_HandleTypeDef *hi2c)
{
 8003ae4:	b480      	push	{r7}
 8003ae6:	b083      	sub	sp, #12
 8003ae8:	af00      	add	r7, sp, #0
 8003aea:	6078      	str	r0, [r7, #4]
  /* if user set XferOptions to I2C_OTHER_FRAME            */
  /* it request implicitly to generate a restart condition */
  /* set XferOptions to I2C_FIRST_FRAME                    */
  if (hi2c->XferOptions == I2C_OTHER_FRAME)
 8003aec:	687b      	ldr	r3, [r7, #4]
 8003aee:	6adb      	ldr	r3, [r3, #44]	@ 0x2c
 8003af0:	f5b3 0f2a 	cmp.w	r3, #11141120	@ 0xaa0000
 8003af4:	d103      	bne.n	8003afe <I2C_ConvertOtherXferOptions+0x1a>
  {
    hi2c->XferOptions = I2C_FIRST_FRAME;
 8003af6:	687b      	ldr	r3, [r7, #4]
 8003af8:	2201      	movs	r2, #1
 8003afa:	62da      	str	r2, [r3, #44]	@ 0x2c
  }
  else
  {
    /* Nothing to do */
  }
}
 8003afc:	e007      	b.n	8003b0e <I2C_ConvertOtherXferOptions+0x2a>
  else if (hi2c->XferOptions == I2C_OTHER_AND_LAST_FRAME)
 8003afe:	687b      	ldr	r3, [r7, #4]
 8003b00:	6adb      	ldr	r3, [r3, #44]	@ 0x2c
 8003b02:	f1b3 4f2a 	cmp.w	r3, #2852126720	@ 0xaa000000
 8003b06:	d102      	bne.n	8003b0e <I2C_ConvertOtherXferOptions+0x2a>
    hi2c->XferOptions = I2C_FIRST_AND_LAST_FRAME;
 8003b08:	687b      	ldr	r3, [r7, #4]
 8003b0a:	2208      	movs	r2, #8
 8003b0c:	62da      	str	r2, [r3, #44]	@ 0x2c
}
 8003b0e:	bf00      	nop
 8003b10:	370c      	adds	r7, #12
 8003b12:	46bd      	mov	sp, r7
 8003b14:	bc80      	pop	{r7}
 8003b16:	4770      	bx	lr

08003b18 <HAL_RCC_OscConfig>:
  *         supported by this macro. User should request a transition to HSE Off
  *         first and then HSE On or HSE Bypass.
  * @retval HAL status
  */
HAL_StatusTypeDef HAL_RCC_OscConfig(RCC_OscInitTypeDef  *RCC_OscInitStruct)
{
 8003b18:	b580      	push	{r7, lr}
 8003b1a:	b086      	sub	sp, #24
 8003b1c:	af00      	add	r7, sp, #0
 8003b1e:	6078      	str	r0, [r7, #4]
  uint32_t tickstart;
  uint32_t pll_config;

  /* Check Null pointer */
  if (RCC_OscInitStruct == NULL)
 8003b20:	687b      	ldr	r3, [r7, #4]
 8003b22:	2b00      	cmp	r3, #0
 8003b24:	d101      	bne.n	8003b2a <HAL_RCC_OscConfig+0x12>
  {
    return HAL_ERROR;
 8003b26:	2301      	movs	r3, #1
 8003b28:	e272      	b.n	8004010 <HAL_RCC_OscConfig+0x4f8>

  /* Check the parameters */
  assert_param(IS_RCC_OSCILLATORTYPE(RCC_OscInitStruct->OscillatorType));

  /*------------------------------- HSE Configuration ------------------------*/
  if (((RCC_OscInitStruct->OscillatorType) & RCC_OSCILLATORTYPE_HSE) == RCC_OSCILLATORTYPE_HSE)
 8003b2a:	687b      	ldr	r3, [r7, #4]
 8003b2c:	681b      	ldr	r3, [r3, #0]
 8003b2e:	f003 0301 	and.w	r3, r3, #1
 8003b32:	2b00      	cmp	r3, #0
 8003b34:	f000 8087 	beq.w	8003c46 <HAL_RCC_OscConfig+0x12e>
  {
    /* Check the parameters */
    assert_param(IS_RCC_HSE(RCC_OscInitStruct->HSEState));

    /* When the HSE is used as system clock or clock source for PLL in these cases it is not allowed to be disabled */
    if ((__HAL_RCC_GET_SYSCLK_SOURCE() == RCC_SYSCLKSOURCE_STATUS_HSE)
 8003b38:	4b92      	ldr	r3, [pc, #584]	@ (8003d84 <HAL_RCC_OscConfig+0x26c>)
 8003b3a:	685b      	ldr	r3, [r3, #4]
 8003b3c:	f003 030c 	and.w	r3, r3, #12
 8003b40:	2b04      	cmp	r3, #4
 8003b42:	d00c      	beq.n	8003b5e <HAL_RCC_OscConfig+0x46>
        || ((__HAL_RCC_GET_SYSCLK_SOURCE() == RCC_SYSCLKSOURCE_STATUS_PLLCLK) && (__HAL_RCC_GET_PLL_OSCSOURCE() == RCC_PLLSOURCE_HSE)))
 8003b44:	4b8f      	ldr	r3, [pc, #572]	@ (8003d84 <HAL_RCC_OscConfig+0x26c>)
 8003b46:	685b      	ldr	r3, [r3, #4]
 8003b48:	f003 030c 	and.w	r3, r3, #12
 8003b4c:	2b08      	cmp	r3, #8
 8003b4e:	d112      	bne.n	8003b76 <HAL_RCC_OscConfig+0x5e>
 8003b50:	4b8c      	ldr	r3, [pc, #560]	@ (8003d84 <HAL_RCC_OscConfig+0x26c>)
 8003b52:	685b      	ldr	r3, [r3, #4]
 8003b54:	f403 3380 	and.w	r3, r3, #65536	@ 0x10000
 8003b58:	f5b3 3f80 	cmp.w	r3, #65536	@ 0x10000
 8003b5c:	d10b      	bne.n	8003b76 <HAL_RCC_OscConfig+0x5e>
    {
      if ((__HAL_RCC_GET_FLAG(RCC_FLAG_HSERDY) != RESET) && (RCC_OscInitStruct->HSEState == RCC_HSE_OFF))
 8003b5e:	4b89      	ldr	r3, [pc, #548]	@ (8003d84 <HAL_RCC_OscConfig+0x26c>)
 8003b60:	681b      	ldr	r3, [r3, #0]
 8003b62:	f403 3300 	and.w	r3, r3, #131072	@ 0x20000
 8003b66:	2b00      	cmp	r3, #0
 8003b68:	d06c      	beq.n	8003c44 <HAL_RCC_OscConfig+0x12c>
 8003b6a:	687b      	ldr	r3, [r7, #4]
 8003b6c:	685b      	ldr	r3, [r3, #4]
 8003b6e:	2b00      	cmp	r3, #0
 8003b70:	d168      	bne.n	8003c44 <HAL_RCC_OscConfig+0x12c>
      {
        return HAL_ERROR;
 8003b72:	2301      	movs	r3, #1
 8003b74:	e24c      	b.n	8004010 <HAL_RCC_OscConfig+0x4f8>
      }
    }
    else
    {
      /* Set the new HSE configuration ---------------------------------------*/
      __HAL_RCC_HSE_CONFIG(RCC_OscInitStruct->HSEState);
 8003b76:	687b      	ldr	r3, [r7, #4]
 8003b78:	685b      	ldr	r3, [r3, #4]
 8003b7a:	f5b3 3f80 	cmp.w	r3, #65536	@ 0x10000
 8003b7e:	d106      	bne.n	8003b8e <HAL_RCC_OscConfig+0x76>
 8003b80:	4b80      	ldr	r3, [pc, #512]	@ (8003d84 <HAL_RCC_OscConfig+0x26c>)
 8003b82:	681b      	ldr	r3, [r3, #0]
 8003b84:	4a7f      	ldr	r2, [pc, #508]	@ (8003d84 <HAL_RCC_OscConfig+0x26c>)
 8003b86:	f443 3380 	orr.w	r3, r3, #65536	@ 0x10000
 8003b8a:	6013      	str	r3, [r2, #0]
 8003b8c:	e02e      	b.n	8003bec <HAL_RCC_OscConfig+0xd4>
 8003b8e:	687b      	ldr	r3, [r7, #4]
 8003b90:	685b      	ldr	r3, [r3, #4]
 8003b92:	2b00      	cmp	r3, #0
 8003b94:	d10c      	bne.n	8003bb0 <HAL_RCC_OscConfig+0x98>
 8003b96:	4b7b      	ldr	r3, [pc, #492]	@ (8003d84 <HAL_RCC_OscConfig+0x26c>)
 8003b98:	681b      	ldr	r3, [r3, #0]
 8003b9a:	4a7a      	ldr	r2, [pc, #488]	@ (8003d84 <HAL_RCC_OscConfig+0x26c>)
 8003b9c:	f423 3380 	bic.w	r3, r3, #65536	@ 0x10000
 8003ba0:	6013      	str	r3, [r2, #0]
 8003ba2:	4b78      	ldr	r3, [pc, #480]	@ (8003d84 <HAL_RCC_OscConfig+0x26c>)
 8003ba4:	681b      	ldr	r3, [r3, #0]
 8003ba6:	4a77      	ldr	r2, [pc, #476]	@ (8003d84 <HAL_RCC_OscConfig+0x26c>)
 8003ba8:	f423 2380 	bic.w	r3, r3, #262144	@ 0x40000
 8003bac:	6013      	str	r3, [r2, #0]
 8003bae:	e01d      	b.n	8003bec <HAL_RCC_OscConfig+0xd4>
 8003bb0:	687b      	ldr	r3, [r7, #4]
 8003bb2:	685b      	ldr	r3, [r3, #4]
 8003bb4:	f5b3 2fa0 	cmp.w	r3, #327680	@ 0x50000
 8003bb8:	d10c      	bne.n	8003bd4 <HAL_RCC_OscConfig+0xbc>
 8003bba:	4b72      	ldr	r3, [pc, #456]	@ (8003d84 <HAL_RCC_OscConfig+0x26c>)
 8003bbc:	681b      	ldr	r3, [r3, #0]
 8003bbe:	4a71      	ldr	r2, [pc, #452]	@ (8003d84 <HAL_RCC_OscConfig+0x26c>)
 8003bc0:	f443 2380 	orr.w	r3, r3, #262144	@ 0x40000
 8003bc4:	6013      	str	r3, [r2, #0]
 8003bc6:	4b6f      	ldr	r3, [pc, #444]	@ (8003d84 <HAL_RCC_OscConfig+0x26c>)
 8003bc8:	681b      	ldr	r3, [r3, #0]
 8003bca:	4a6e      	ldr	r2, [pc, #440]	@ (8003d84 <HAL_RCC_OscConfig+0x26c>)
 8003bcc:	f443 3380 	orr.w	r3, r3, #65536	@ 0x10000
 8003bd0:	6013      	str	r3, [r2, #0]
 8003bd2:	e00b      	b.n	8003bec <HAL_RCC_OscConfig+0xd4>
 8003bd4:	4b6b      	ldr	r3, [pc, #428]	@ (8003d84 <HAL_RCC_OscConfig+0x26c>)
 8003bd6:	681b      	ldr	r3, [r3, #0]
 8003bd8:	4a6a      	ldr	r2, [pc, #424]	@ (8003d84 <HAL_RCC_OscConfig+0x26c>)
 8003bda:	f423 3380 	bic.w	r3, r3, #65536	@ 0x10000
 8003bde:	6013      	str	r3, [r2, #0]
 8003be0:	4b68      	ldr	r3, [pc, #416]	@ (8003d84 <HAL_RCC_OscConfig+0x26c>)
 8003be2:	681b      	ldr	r3, [r3, #0]
 8003be4:	4a67      	ldr	r2, [pc, #412]	@ (8003d84 <HAL_RCC_OscConfig+0x26c>)
 8003be6:	f423 2380 	bic.w	r3, r3, #262144	@ 0x40000
 8003bea:	6013      	str	r3, [r2, #0]


      /* Check the HSE State */
      if (RCC_OscInitStruct->HSEState != RCC_HSE_OFF)
 8003bec:	687b      	ldr	r3, [r7, #4]
 8003bee:	685b      	ldr	r3, [r3, #4]
 8003bf0:	2b00      	cmp	r3, #0
 8003bf2:	d013      	beq.n	8003c1c <HAL_RCC_OscConfig+0x104>
      {
        /* Get Start Tick */
        tickstart = HAL_GetTick();
 8003bf4:	f7fd fbea 	bl	80013cc <HAL_GetTick>
 8003bf8:	6138      	str	r0, [r7, #16]

        /* Wait till HSE is ready */
        while (__HAL_RCC_GET_FLAG(RCC_FLAG_HSERDY) == RESET)
 8003bfa:	e008      	b.n	8003c0e <HAL_RCC_OscConfig+0xf6>
        {
          if ((HAL_GetTick() - tickstart) > HSE_TIMEOUT_VALUE)
 8003bfc:	f7fd fbe6 	bl	80013cc <HAL_GetTick>
 8003c00:	4602      	mov	r2, r0
 8003c02:	693b      	ldr	r3, [r7, #16]
 8003c04:	1ad3      	subs	r3, r2, r3
 8003c06:	2b64      	cmp	r3, #100	@ 0x64
 8003c08:	d901      	bls.n	8003c0e <HAL_RCC_OscConfig+0xf6>
          {
            return HAL_TIMEOUT;
 8003c0a:	2303      	movs	r3, #3
 8003c0c:	e200      	b.n	8004010 <HAL_RCC_OscConfig+0x4f8>
        while (__HAL_RCC_GET_FLAG(RCC_FLAG_HSERDY) == RESET)
 8003c0e:	4b5d      	ldr	r3, [pc, #372]	@ (8003d84 <HAL_RCC_OscConfig+0x26c>)
 8003c10:	681b      	ldr	r3, [r3, #0]
 8003c12:	f403 3300 	and.w	r3, r3, #131072	@ 0x20000
 8003c16:	2b00      	cmp	r3, #0
 8003c18:	d0f0      	beq.n	8003bfc <HAL_RCC_OscConfig+0xe4>
 8003c1a:	e014      	b.n	8003c46 <HAL_RCC_OscConfig+0x12e>
        }
      }
      else
      {
        /* Get Start Tick */
        tickstart = HAL_GetTick();
 8003c1c:	f7fd fbd6 	bl	80013cc <HAL_GetTick>
 8003c20:	6138      	str	r0, [r7, #16]

        /* Wait till HSE is disabled */
        while (__HAL_RCC_GET_FLAG(RCC_FLAG_HSERDY) != RESET)
 8003c22:	e008      	b.n	8003c36 <HAL_RCC_OscConfig+0x11e>
        {
          if ((HAL_GetTick() - tickstart) > HSE_TIMEOUT_VALUE)
 8003c24:	f7fd fbd2 	bl	80013cc <HAL_GetTick>
 8003c28:	4602      	mov	r2, r0
 8003c2a:	693b      	ldr	r3, [r7, #16]
 8003c2c:	1ad3      	subs	r3, r2, r3
 8003c2e:	2b64      	cmp	r3, #100	@ 0x64
 8003c30:	d901      	bls.n	8003c36 <HAL_RCC_OscConfig+0x11e>
          {
            return HAL_TIMEOUT;
 8003c32:	2303      	movs	r3, #3
 8003c34:	e1ec      	b.n	8004010 <HAL_RCC_OscConfig+0x4f8>
        while (__HAL_RCC_GET_FLAG(RCC_FLAG_HSERDY) != RESET)
 8003c36:	4b53      	ldr	r3, [pc, #332]	@ (8003d84 <HAL_RCC_OscConfig+0x26c>)
 8003c38:	681b      	ldr	r3, [r3, #0]
 8003c3a:	f403 3300 	and.w	r3, r3, #131072	@ 0x20000
 8003c3e:	2b00      	cmp	r3, #0
 8003c40:	d1f0      	bne.n	8003c24 <HAL_RCC_OscConfig+0x10c>
 8003c42:	e000      	b.n	8003c46 <HAL_RCC_OscConfig+0x12e>
      if ((__HAL_RCC_GET_FLAG(RCC_FLAG_HSERDY) != RESET) && (RCC_OscInitStruct->HSEState == RCC_HSE_OFF))
 8003c44:	bf00      	nop
        }
      }
    }
  }
  /*----------------------------- HSI Configuration --------------------------*/
  if (((RCC_OscInitStruct->OscillatorType) & RCC_OSCILLATORTYPE_HSI) == RCC_OSCILLATORTYPE_HSI)
 8003c46:	687b      	ldr	r3, [r7, #4]
 8003c48:	681b      	ldr	r3, [r3, #0]
 8003c4a:	f003 0302 	and.w	r3, r3, #2
 8003c4e:	2b00      	cmp	r3, #0
 8003c50:	d063      	beq.n	8003d1a <HAL_RCC_OscConfig+0x202>
    /* Check the parameters */
    assert_param(IS_RCC_HSI(RCC_OscInitStruct->HSIState));
    assert_param(IS_RCC_CALIBRATION_VALUE(RCC_OscInitStruct->HSICalibrationValue));

    /* Check if HSI is used as system clock or as PLL source when PLL is selected as system clock */
    if ((__HAL_RCC_GET_SYSCLK_SOURCE() == RCC_SYSCLKSOURCE_STATUS_HSI)
 8003c52:	4b4c      	ldr	r3, [pc, #304]	@ (8003d84 <HAL_RCC_OscConfig+0x26c>)
 8003c54:	685b      	ldr	r3, [r3, #4]
 8003c56:	f003 030c 	and.w	r3, r3, #12
 8003c5a:	2b00      	cmp	r3, #0
 8003c5c:	d00b      	beq.n	8003c76 <HAL_RCC_OscConfig+0x15e>
        || ((__HAL_RCC_GET_SYSCLK_SOURCE() == RCC_SYSCLKSOURCE_STATUS_PLLCLK) && (__HAL_RCC_GET_PLL_OSCSOURCE() == RCC_PLLSOURCE_HSI_DIV2)))
 8003c5e:	4b49      	ldr	r3, [pc, #292]	@ (8003d84 <HAL_RCC_OscConfig+0x26c>)
 8003c60:	685b      	ldr	r3, [r3, #4]
 8003c62:	f003 030c 	and.w	r3, r3, #12
 8003c66:	2b08      	cmp	r3, #8
 8003c68:	d11c      	bne.n	8003ca4 <HAL_RCC_OscConfig+0x18c>
 8003c6a:	4b46      	ldr	r3, [pc, #280]	@ (8003d84 <HAL_RCC_OscConfig+0x26c>)
 8003c6c:	685b      	ldr	r3, [r3, #4]
 8003c6e:	f403 3380 	and.w	r3, r3, #65536	@ 0x10000
 8003c72:	2b00      	cmp	r3, #0
 8003c74:	d116      	bne.n	8003ca4 <HAL_RCC_OscConfig+0x18c>
    {
      /* When HSI is used as system clock it will not disabled */
      if ((__HAL_RCC_GET_FLAG(RCC_FLAG_HSIRDY) != RESET) && (RCC_OscInitStruct->HSIState != RCC_HSI_ON))
 8003c76:	4b43      	ldr	r3, [pc, #268]	@ (8003d84 <HAL_RCC_OscConfig+0x26c>)
 8003c78:	681b      	ldr	r3, [r3, #0]
 8003c7a:	f003 0302 	and.w	r3, r3, #2
 8003c7e:	2b00      	cmp	r3, #0
 8003c80:	d005      	beq.n	8003c8e <HAL_RCC_OscConfig+0x176>
 8003c82:	687b      	ldr	r3, [r7, #4]
 8003c84:	691b      	ldr	r3, [r3, #16]
 8003c86:	2b01      	cmp	r3, #1
 8003c88:	d001      	beq.n	8003c8e <HAL_RCC_OscConfig+0x176>
      {
        return HAL_ERROR;
 8003c8a:	2301      	movs	r3, #1
 8003c8c:	e1c0      	b.n	8004010 <HAL_RCC_OscConfig+0x4f8>
      }
      /* Otherwise, just the calibration is allowed */
      else
      {
        /* Adjusts the Internal High Speed oscillator (HSI) calibration value.*/
        __HAL_RCC_HSI_CALIBRATIONVALUE_ADJUST(RCC_OscInitStruct->HSICalibrationValue);
 8003c8e:	4b3d      	ldr	r3, [pc, #244]	@ (8003d84 <HAL_RCC_OscConfig+0x26c>)
 8003c90:	681b      	ldr	r3, [r3, #0]
 8003c92:	f023 02f8 	bic.w	r2, r3, #248	@ 0xf8
 8003c96:	687b      	ldr	r3, [r7, #4]
 8003c98:	695b      	ldr	r3, [r3, #20]
 8003c9a:	00db      	lsls	r3, r3, #3
 8003c9c:	4939      	ldr	r1, [pc, #228]	@ (8003d84 <HAL_RCC_OscConfig+0x26c>)
 8003c9e:	4313      	orrs	r3, r2
 8003ca0:	600b      	str	r3, [r1, #0]
      if ((__HAL_RCC_GET_FLAG(RCC_FLAG_HSIRDY) != RESET) && (RCC_OscInitStruct->HSIState != RCC_HSI_ON))
 8003ca2:	e03a      	b.n	8003d1a <HAL_RCC_OscConfig+0x202>
      }
    }
    else
    {
      /* Check the HSI State */
      if (RCC_OscInitStruct->HSIState != RCC_HSI_OFF)
 8003ca4:	687b      	ldr	r3, [r7, #4]
 8003ca6:	691b      	ldr	r3, [r3, #16]
 8003ca8:	2b00      	cmp	r3, #0
 8003caa:	d020      	beq.n	8003cee <HAL_RCC_OscConfig+0x1d6>
      {
        /* Enable the Internal High Speed oscillator (HSI). */
        __HAL_RCC_HSI_ENABLE();
 8003cac:	4b36      	ldr	r3, [pc, #216]	@ (8003d88 <HAL_RCC_OscConfig+0x270>)
 8003cae:	2201      	movs	r2, #1
 8003cb0:	601a      	str	r2, [r3, #0]

        /* Get Start Tick */
        tickstart = HAL_GetTick();
 8003cb2:	f7fd fb8b 	bl	80013cc <HAL_GetTick>
 8003cb6:	6138      	str	r0, [r7, #16]

        /* Wait till HSI is ready */
        while (__HAL_RCC_GET_FLAG(RCC_FLAG_HSIRDY) == RESET)
 8003cb8:	e008      	b.n	8003ccc <HAL_RCC_OscConfig+0x1b4>
        {
          if ((HAL_GetTick() - tickstart) > HSI_TIMEOUT_VALUE)
 8003cba:	f7fd fb87 	bl	80013cc <HAL_GetTick>
 8003cbe:	4602      	mov	r2, r0
 8003cc0:	693b      	ldr	r3, [r7, #16]
 8003cc2:	1ad3      	subs	r3, r2, r3
 8003cc4:	2b02      	cmp	r3, #2
 8003cc6:	d901      	bls.n	8003ccc <HAL_RCC_OscConfig+0x1b4>
          {
            return HAL_TIMEOUT;
 8003cc8:	2303      	movs	r3, #3
 8003cca:	e1a1      	b.n	8004010 <HAL_RCC_OscConfig+0x4f8>
        while (__HAL_RCC_GET_FLAG(RCC_FLAG_HSIRDY) == RESET)
 8003ccc:	4b2d      	ldr	r3, [pc, #180]	@ (8003d84 <HAL_RCC_OscConfig+0x26c>)
 8003cce:	681b      	ldr	r3, [r3, #0]
 8003cd0:	f003 0302 	and.w	r3, r3, #2
 8003cd4:	2b00      	cmp	r3, #0
 8003cd6:	d0f0      	beq.n	8003cba <HAL_RCC_OscConfig+0x1a2>
          }
        }

        /* Adjusts the Internal High Speed oscillator (HSI) calibration value.*/
        __HAL_RCC_HSI_CALIBRATIONVALUE_ADJUST(RCC_OscInitStruct->HSICalibrationValue);
 8003cd8:	4b2a      	ldr	r3, [pc, #168]	@ (8003d84 <HAL_RCC_OscConfig+0x26c>)
 8003cda:	681b      	ldr	r3, [r3, #0]
 8003cdc:	f023 02f8 	bic.w	r2, r3, #248	@ 0xf8
 8003ce0:	687b      	ldr	r3, [r7, #4]
 8003ce2:	695b      	ldr	r3, [r3, #20]
 8003ce4:	00db      	lsls	r3, r3, #3
 8003ce6:	4927      	ldr	r1, [pc, #156]	@ (8003d84 <HAL_RCC_OscConfig+0x26c>)
 8003ce8:	4313      	orrs	r3, r2
 8003cea:	600b      	str	r3, [r1, #0]
 8003cec:	e015      	b.n	8003d1a <HAL_RCC_OscConfig+0x202>
      }
      else
      {
        /* Disable the Internal High Speed oscillator (HSI). */
        __HAL_RCC_HSI_DISABLE();
 8003cee:	4b26      	ldr	r3, [pc, #152]	@ (8003d88 <HAL_RCC_OscConfig+0x270>)
 8003cf0:	2200      	movs	r2, #0
 8003cf2:	601a      	str	r2, [r3, #0]

        /* Get Start Tick */
        tickstart = HAL_GetTick();
 8003cf4:	f7fd fb6a 	bl	80013cc <HAL_GetTick>
 8003cf8:	6138      	str	r0, [r7, #16]

        /* Wait till HSI is disabled */
        while (__HAL_RCC_GET_FLAG(RCC_FLAG_HSIRDY) != RESET)
 8003cfa:	e008      	b.n	8003d0e <HAL_RCC_OscConfig+0x1f6>
        {
          if ((HAL_GetTick() - tickstart) > HSI_TIMEOUT_VALUE)
 8003cfc:	f7fd fb66 	bl	80013cc <HAL_GetTick>
 8003d00:	4602      	mov	r2, r0
 8003d02:	693b      	ldr	r3, [r7, #16]
 8003d04:	1ad3      	subs	r3, r2, r3
 8003d06:	2b02      	cmp	r3, #2
 8003d08:	d901      	bls.n	8003d0e <HAL_RCC_OscConfig+0x1f6>
          {
            return HAL_TIMEOUT;
 8003d0a:	2303      	movs	r3, #3
 8003d0c:	e180      	b.n	8004010 <HAL_RCC_OscConfig+0x4f8>
        while (__HAL_RCC_GET_FLAG(RCC_FLAG_HSIRDY) != RESET)
 8003d0e:	4b1d      	ldr	r3, [pc, #116]	@ (8003d84 <HAL_RCC_OscConfig+0x26c>)
 8003d10:	681b      	ldr	r3, [r3, #0]
 8003d12:	f003 0302 	and.w	r3, r3, #2
 8003d16:	2b00      	cmp	r3, #0
 8003d18:	d1f0      	bne.n	8003cfc <HAL_RCC_OscConfig+0x1e4>
        }
      }
    }
  }
  /*------------------------------ LSI Configuration -------------------------*/
  if (((RCC_OscInitStruct->OscillatorType) & RCC_OSCILLATORTYPE_LSI) == RCC_OSCILLATORTYPE_LSI)
 8003d1a:	687b      	ldr	r3, [r7, #4]
 8003d1c:	681b      	ldr	r3, [r3, #0]
 8003d1e:	f003 0308 	and.w	r3, r3, #8
 8003d22:	2b00      	cmp	r3, #0
 8003d24:	d03a      	beq.n	8003d9c <HAL_RCC_OscConfig+0x284>
  {
    /* Check the parameters */
    assert_param(IS_RCC_LSI(RCC_OscInitStruct->LSIState));

    /* Check the LSI State */
    if (RCC_OscInitStruct->LSIState != RCC_LSI_OFF)
 8003d26:	687b      	ldr	r3, [r7, #4]
 8003d28:	699b      	ldr	r3, [r3, #24]
 8003d2a:	2b00      	cmp	r3, #0
 8003d2c:	d019      	beq.n	8003d62 <HAL_RCC_OscConfig+0x24a>
    {
      /* Enable the Internal Low Speed oscillator (LSI). */
      __HAL_RCC_LSI_ENABLE();
 8003d2e:	4b17      	ldr	r3, [pc, #92]	@ (8003d8c <HAL_RCC_OscConfig+0x274>)
 8003d30:	2201      	movs	r2, #1
 8003d32:	601a      	str	r2, [r3, #0]

      /* Get Start Tick */
      tickstart = HAL_GetTick();
 8003d34:	f7fd fb4a 	bl	80013cc <HAL_GetTick>
 8003d38:	6138      	str	r0, [r7, #16]

      /* Wait till LSI is ready */
      while (__HAL_RCC_GET_FLAG(RCC_FLAG_LSIRDY) == RESET)
 8003d3a:	e008      	b.n	8003d4e <HAL_RCC_OscConfig+0x236>
      {
        if ((HAL_GetTick() - tickstart) > LSI_TIMEOUT_VALUE)
 8003d3c:	f7fd fb46 	bl	80013cc <HAL_GetTick>
 8003d40:	4602      	mov	r2, r0
 8003d42:	693b      	ldr	r3, [r7, #16]
 8003d44:	1ad3      	subs	r3, r2, r3
 8003d46:	2b02      	cmp	r3, #2
 8003d48:	d901      	bls.n	8003d4e <HAL_RCC_OscConfig+0x236>
        {
          return HAL_TIMEOUT;
 8003d4a:	2303      	movs	r3, #3
 8003d4c:	e160      	b.n	8004010 <HAL_RCC_OscConfig+0x4f8>
      while (__HAL_RCC_GET_FLAG(RCC_FLAG_LSIRDY) == RESET)
 8003d4e:	4b0d      	ldr	r3, [pc, #52]	@ (8003d84 <HAL_RCC_OscConfig+0x26c>)
 8003d50:	6a5b      	ldr	r3, [r3, #36]	@ 0x24
 8003d52:	f003 0302 	and.w	r3, r3, #2
 8003d56:	2b00      	cmp	r3, #0
 8003d58:	d0f0      	beq.n	8003d3c <HAL_RCC_OscConfig+0x224>
        }
      }
      /*  To have a fully stabilized clock in the specified range, a software delay of 1ms
          should be added.*/
      RCC_Delay(1);
 8003d5a:	2001      	movs	r0, #1
 8003d5c:	f000 fa9a 	bl	8004294 <RCC_Delay>
 8003d60:	e01c      	b.n	8003d9c <HAL_RCC_OscConfig+0x284>
    }
    else
    {
      /* Disable the Internal Low Speed oscillator (LSI). */
      __HAL_RCC_LSI_DISABLE();
 8003d62:	4b0a      	ldr	r3, [pc, #40]	@ (8003d8c <HAL_RCC_OscConfig+0x274>)
 8003d64:	2200      	movs	r2, #0
 8003d66:	601a      	str	r2, [r3, #0]

      /* Get Start Tick */
      tickstart = HAL_GetTick();
 8003d68:	f7fd fb30 	bl	80013cc <HAL_GetTick>
 8003d6c:	6138      	str	r0, [r7, #16]

      /* Wait till LSI is disabled */
      while (__HAL_RCC_GET_FLAG(RCC_FLAG_LSIRDY) != RESET)
 8003d6e:	e00f      	b.n	8003d90 <HAL_RCC_OscConfig+0x278>
      {
        if ((HAL_GetTick() - tickstart) > LSI_TIMEOUT_VALUE)
 8003d70:	f7fd fb2c 	bl	80013cc <HAL_GetTick>
 8003d74:	4602      	mov	r2, r0
 8003d76:	693b      	ldr	r3, [r7, #16]
 8003d78:	1ad3      	subs	r3, r2, r3
 8003d7a:	2b02      	cmp	r3, #2
 8003d7c:	d908      	bls.n	8003d90 <HAL_RCC_OscConfig+0x278>
        {
          return HAL_TIMEOUT;
 8003d7e:	2303      	movs	r3, #3
 8003d80:	e146      	b.n	8004010 <HAL_RCC_OscConfig+0x4f8>
 8003d82:	bf00      	nop
 8003d84:	40021000 	.word	0x40021000
 8003d88:	42420000 	.word	0x42420000
 8003d8c:	42420480 	.word	0x42420480
      while (__HAL_RCC_GET_FLAG(RCC_FLAG_LSIRDY) != RESET)
 8003d90:	4b92      	ldr	r3, [pc, #584]	@ (8003fdc <HAL_RCC_OscConfig+0x4c4>)
 8003d92:	6a5b      	ldr	r3, [r3, #36]	@ 0x24
 8003d94:	f003 0302 	and.w	r3, r3, #2
 8003d98:	2b00      	cmp	r3, #0
 8003d9a:	d1e9      	bne.n	8003d70 <HAL_RCC_OscConfig+0x258>
        }
      }
    }
  }
  /*------------------------------ LSE Configuration -------------------------*/
  if (((RCC_OscInitStruct->OscillatorType) & RCC_OSCILLATORTYPE_LSE) == RCC_OSCILLATORTYPE_LSE)
 8003d9c:	687b      	ldr	r3, [r7, #4]
 8003d9e:	681b      	ldr	r3, [r3, #0]
 8003da0:	f003 0304 	and.w	r3, r3, #4
 8003da4:	2b00      	cmp	r3, #0
 8003da6:	f000 80a6 	beq.w	8003ef6 <HAL_RCC_OscConfig+0x3de>
  {
    FlagStatus       pwrclkchanged = RESET;
 8003daa:	2300      	movs	r3, #0
 8003dac:	75fb      	strb	r3, [r7, #23]
    /* Check the parameters */
    assert_param(IS_RCC_LSE(RCC_OscInitStruct->LSEState));

    /* Update LSE configuration in Backup Domain control register    */
    /* Requires to enable write access to Backup Domain of necessary */
    if (__HAL_RCC_PWR_IS_CLK_DISABLED())
 8003dae:	4b8b      	ldr	r3, [pc, #556]	@ (8003fdc <HAL_RCC_OscConfig+0x4c4>)
 8003db0:	69db      	ldr	r3, [r3, #28]
 8003db2:	f003 5380 	and.w	r3, r3, #268435456	@ 0x10000000
 8003db6:	2b00      	cmp	r3, #0
 8003db8:	d10d      	bne.n	8003dd6 <HAL_RCC_OscConfig+0x2be>
    {
      __HAL_RCC_PWR_CLK_ENABLE();
 8003dba:	4b88      	ldr	r3, [pc, #544]	@ (8003fdc <HAL_RCC_OscConfig+0x4c4>)
 8003dbc:	69db      	ldr	r3, [r3, #28]
 8003dbe:	4a87      	ldr	r2, [pc, #540]	@ (8003fdc <HAL_RCC_OscConfig+0x4c4>)
 8003dc0:	f043 5380 	orr.w	r3, r3, #268435456	@ 0x10000000
 8003dc4:	61d3      	str	r3, [r2, #28]
 8003dc6:	4b85      	ldr	r3, [pc, #532]	@ (8003fdc <HAL_RCC_OscConfig+0x4c4>)
 8003dc8:	69db      	ldr	r3, [r3, #28]
 8003dca:	f003 5380 	and.w	r3, r3, #268435456	@ 0x10000000
 8003dce:	60bb      	str	r3, [r7, #8]
 8003dd0:	68bb      	ldr	r3, [r7, #8]
      pwrclkchanged = SET;
 8003dd2:	2301      	movs	r3, #1
 8003dd4:	75fb      	strb	r3, [r7, #23]
    }

    if (HAL_IS_BIT_CLR(PWR->CR, PWR_CR_DBP))
 8003dd6:	4b82      	ldr	r3, [pc, #520]	@ (8003fe0 <HAL_RCC_OscConfig+0x4c8>)
 8003dd8:	681b      	ldr	r3, [r3, #0]
 8003dda:	f403 7380 	and.w	r3, r3, #256	@ 0x100
 8003dde:	2b00      	cmp	r3, #0
 8003de0:	d118      	bne.n	8003e14 <HAL_RCC_OscConfig+0x2fc>
    {
      /* Enable write access to Backup domain */
      SET_BIT(PWR->CR, PWR_CR_DBP);
 8003de2:	4b7f      	ldr	r3, [pc, #508]	@ (8003fe0 <HAL_RCC_OscConfig+0x4c8>)
 8003de4:	681b      	ldr	r3, [r3, #0]
 8003de6:	4a7e      	ldr	r2, [pc, #504]	@ (8003fe0 <HAL_RCC_OscConfig+0x4c8>)
 8003de8:	f443 7380 	orr.w	r3, r3, #256	@ 0x100
 8003dec:	6013      	str	r3, [r2, #0]

      /* Wait for Backup domain Write protection disable */
      tickstart = HAL_GetTick();
 8003dee:	f7fd faed 	bl	80013cc <HAL_GetTick>
 8003df2:	6138      	str	r0, [r7, #16]

      while (HAL_IS_BIT_CLR(PWR->CR, PWR_CR_DBP))
 8003df4:	e008      	b.n	8003e08 <HAL_RCC_OscConfig+0x2f0>
      {
        if ((HAL_GetTick() - tickstart) > RCC_DBP_TIMEOUT_VALUE)
 8003df6:	f7fd fae9 	bl	80013cc <HAL_GetTick>
 8003dfa:	4602      	mov	r2, r0
 8003dfc:	693b      	ldr	r3, [r7, #16]
 8003dfe:	1ad3      	subs	r3, r2, r3
 8003e00:	2b64      	cmp	r3, #100	@ 0x64
 8003e02:	d901      	bls.n	8003e08 <HAL_RCC_OscConfig+0x2f0>
        {
          return HAL_TIMEOUT;
 8003e04:	2303      	movs	r3, #3
 8003e06:	e103      	b.n	8004010 <HAL_RCC_OscConfig+0x4f8>
      while (HAL_IS_BIT_CLR(PWR->CR, PWR_CR_DBP))
 8003e08:	4b75      	ldr	r3, [pc, #468]	@ (8003fe0 <HAL_RCC_OscConfig+0x4c8>)
 8003e0a:	681b      	ldr	r3, [r3, #0]
 8003e0c:	f403 7380 	and.w	r3, r3, #256	@ 0x100
 8003e10:	2b00      	cmp	r3, #0
 8003e12:	d0f0      	beq.n	8003df6 <HAL_RCC_OscConfig+0x2de>
        }
      }
    }

    /* Set the new LSE configuration -----------------------------------------*/
    __HAL_RCC_LSE_CONFIG(RCC_OscInitStruct->LSEState);
 8003e14:	687b      	ldr	r3, [r7, #4]
 8003e16:	68db      	ldr	r3, [r3, #12]
 8003e18:	2b01      	cmp	r3, #1
 8003e1a:	d106      	bne.n	8003e2a <HAL_RCC_OscConfig+0x312>
 8003e1c:	4b6f      	ldr	r3, [pc, #444]	@ (8003fdc <HAL_RCC_OscConfig+0x4c4>)
 8003e1e:	6a1b      	ldr	r3, [r3, #32]
 8003e20:	4a6e      	ldr	r2, [pc, #440]	@ (8003fdc <HAL_RCC_OscConfig+0x4c4>)
 8003e22:	f043 0301 	orr.w	r3, r3, #1
 8003e26:	6213      	str	r3, [r2, #32]
 8003e28:	e02d      	b.n	8003e86 <HAL_RCC_OscConfig+0x36e>
 8003e2a:	687b      	ldr	r3, [r7, #4]
 8003e2c:	68db      	ldr	r3, [r3, #12]
 8003e2e:	2b00      	cmp	r3, #0
 8003e30:	d10c      	bne.n	8003e4c <HAL_RCC_OscConfig+0x334>
 8003e32:	4b6a      	ldr	r3, [pc, #424]	@ (8003fdc <HAL_RCC_OscConfig+0x4c4>)
 8003e34:	6a1b      	ldr	r3, [r3, #32]
 8003e36:	4a69      	ldr	r2, [pc, #420]	@ (8003fdc <HAL_RCC_OscConfig+0x4c4>)
 8003e38:	f023 0301 	bic.w	r3, r3, #1
 8003e3c:	6213      	str	r3, [r2, #32]
 8003e3e:	4b67      	ldr	r3, [pc, #412]	@ (8003fdc <HAL_RCC_OscConfig+0x4c4>)
 8003e40:	6a1b      	ldr	r3, [r3, #32]
 8003e42:	4a66      	ldr	r2, [pc, #408]	@ (8003fdc <HAL_RCC_OscConfig+0x4c4>)
 8003e44:	f023 0304 	bic.w	r3, r3, #4
 8003e48:	6213      	str	r3, [r2, #32]
 8003e4a:	e01c      	b.n	8003e86 <HAL_RCC_OscConfig+0x36e>
 8003e4c:	687b      	ldr	r3, [r7, #4]
 8003e4e:	68db      	ldr	r3, [r3, #12]
 8003e50:	2b05      	cmp	r3, #5
 8003e52:	d10c      	bne.n	8003e6e <HAL_RCC_OscConfig+0x356>
 8003e54:	4b61      	ldr	r3, [pc, #388]	@ (8003fdc <HAL_RCC_OscConfig+0x4c4>)
 8003e56:	6a1b      	ldr	r3, [r3, #32]
 8003e58:	4a60      	ldr	r2, [pc, #384]	@ (8003fdc <HAL_RCC_OscConfig+0x4c4>)
 8003e5a:	f043 0304 	orr.w	r3, r3, #4
 8003e5e:	6213      	str	r3, [r2, #32]
 8003e60:	4b5e      	ldr	r3, [pc, #376]	@ (8003fdc <HAL_RCC_OscConfig+0x4c4>)
 8003e62:	6a1b      	ldr	r3, [r3, #32]
 8003e64:	4a5d      	ldr	r2, [pc, #372]	@ (8003fdc <HAL_RCC_OscConfig+0x4c4>)
 8003e66:	f043 0301 	orr.w	r3, r3, #1
 8003e6a:	6213      	str	r3, [r2, #32]
 8003e6c:	e00b      	b.n	8003e86 <HAL_RCC_OscConfig+0x36e>
 8003e6e:	4b5b      	ldr	r3, [pc, #364]	@ (8003fdc <HAL_RCC_OscConfig+0x4c4>)
 8003e70:	6a1b      	ldr	r3, [r3, #32]
 8003e72:	4a5a      	ldr	r2, [pc, #360]	@ (8003fdc <HAL_RCC_OscConfig+0x4c4>)
 8003e74:	f023 0301 	bic.w	r3, r3, #1
 8003e78:	6213      	str	r3, [r2, #32]
 8003e7a:	4b58      	ldr	r3, [pc, #352]	@ (8003fdc <HAL_RCC_OscConfig+0x4c4>)
 8003e7c:	6a1b      	ldr	r3, [r3, #32]
 8003e7e:	4a57      	ldr	r2, [pc, #348]	@ (8003fdc <HAL_RCC_OscConfig+0x4c4>)
 8003e80:	f023 0304 	bic.w	r3, r3, #4
 8003e84:	6213      	str	r3, [r2, #32]
    /* Check the LSE State */
    if (RCC_OscInitStruct->LSEState != RCC_LSE_OFF)
 8003e86:	687b      	ldr	r3, [r7, #4]
 8003e88:	68db      	ldr	r3, [r3, #12]
 8003e8a:	2b00      	cmp	r3, #0
 8003e8c:	d015      	beq.n	8003eba <HAL_RCC_OscConfig+0x3a2>
    {
      /* Get Start Tick */
      tickstart = HAL_GetTick();
 8003e8e:	f7fd fa9d 	bl	80013cc <HAL_GetTick>
 8003e92:	6138      	str	r0, [r7, #16]

      /* Wait till LSE is ready */
      while (__HAL_RCC_GET_FLAG(RCC_FLAG_LSERDY) == RESET)
 8003e94:	e00a      	b.n	8003eac <HAL_RCC_OscConfig+0x394>
      {
        if ((HAL_GetTick() - tickstart) > RCC_LSE_TIMEOUT_VALUE)
 8003e96:	f7fd fa99 	bl	80013cc <HAL_GetTick>
 8003e9a:	4602      	mov	r2, r0
 8003e9c:	693b      	ldr	r3, [r7, #16]
 8003e9e:	1ad3      	subs	r3, r2, r3
 8003ea0:	f241 3288 	movw	r2, #5000	@ 0x1388
 8003ea4:	4293      	cmp	r3, r2
 8003ea6:	d901      	bls.n	8003eac <HAL_RCC_OscConfig+0x394>
        {
          return HAL_TIMEOUT;
 8003ea8:	2303      	movs	r3, #3
 8003eaa:	e0b1      	b.n	8004010 <HAL_RCC_OscConfig+0x4f8>
      while (__HAL_RCC_GET_FLAG(RCC_FLAG_LSERDY) == RESET)
 8003eac:	4b4b      	ldr	r3, [pc, #300]	@ (8003fdc <HAL_RCC_OscConfig+0x4c4>)
 8003eae:	6a1b      	ldr	r3, [r3, #32]
 8003eb0:	f003 0302 	and.w	r3, r3, #2
 8003eb4:	2b00      	cmp	r3, #0
 8003eb6:	d0ee      	beq.n	8003e96 <HAL_RCC_OscConfig+0x37e>
 8003eb8:	e014      	b.n	8003ee4 <HAL_RCC_OscConfig+0x3cc>
      }
    }
    else
    {
      /* Get Start Tick */
      tickstart = HAL_GetTick();
 8003eba:	f7fd fa87 	bl	80013cc <HAL_GetTick>
 8003ebe:	6138      	str	r0, [r7, #16]

      /* Wait till LSE is disabled */
      while (__HAL_RCC_GET_FLAG(RCC_FLAG_LSERDY) != RESET)
 8003ec0:	e00a      	b.n	8003ed8 <HAL_RCC_OscConfig+0x3c0>
      {
        if ((HAL_GetTick() - tickstart) > RCC_LSE_TIMEOUT_VALUE)
 8003ec2:	f7fd fa83 	bl	80013cc <HAL_GetTick>
 8003ec6:	4602      	mov	r2, r0
 8003ec8:	693b      	ldr	r3, [r7, #16]
 8003eca:	1ad3      	subs	r3, r2, r3
 8003ecc:	f241 3288 	movw	r2, #5000	@ 0x1388
 8003ed0:	4293      	cmp	r3, r2
 8003ed2:	d901      	bls.n	8003ed8 <HAL_RCC_OscConfig+0x3c0>
        {
          return HAL_TIMEOUT;
 8003ed4:	2303      	movs	r3, #3
 8003ed6:	e09b      	b.n	8004010 <HAL_RCC_OscConfig+0x4f8>
      while (__HAL_RCC_GET_FLAG(RCC_FLAG_LSERDY) != RESET)
 8003ed8:	4b40      	ldr	r3, [pc, #256]	@ (8003fdc <HAL_RCC_OscConfig+0x4c4>)
 8003eda:	6a1b      	ldr	r3, [r3, #32]
 8003edc:	f003 0302 	and.w	r3, r3, #2
 8003ee0:	2b00      	cmp	r3, #0
 8003ee2:	d1ee      	bne.n	8003ec2 <HAL_RCC_OscConfig+0x3aa>
        }
      }
    }

    /* Require to disable power clock if necessary */
    if (pwrclkchanged == SET)
 8003ee4:	7dfb      	ldrb	r3, [r7, #23]
 8003ee6:	2b01      	cmp	r3, #1
 8003ee8:	d105      	bne.n	8003ef6 <HAL_RCC_OscConfig+0x3de>
    {
      __HAL_RCC_PWR_CLK_DISABLE();
 8003eea:	4b3c      	ldr	r3, [pc, #240]	@ (8003fdc <HAL_RCC_OscConfig+0x4c4>)
 8003eec:	69db      	ldr	r3, [r3, #28]
 8003eee:	4a3b      	ldr	r2, [pc, #236]	@ (8003fdc <HAL_RCC_OscConfig+0x4c4>)
 8003ef0:	f023 5380 	bic.w	r3, r3, #268435456	@ 0x10000000
 8003ef4:	61d3      	str	r3, [r2, #28]

#endif /* RCC_CR_PLL2ON */
  /*-------------------------------- PLL Configuration -----------------------*/
  /* Check the parameters */
  assert_param(IS_RCC_PLL(RCC_OscInitStruct->PLL.PLLState));
  if ((RCC_OscInitStruct->PLL.PLLState) != RCC_PLL_NONE)
 8003ef6:	687b      	ldr	r3, [r7, #4]
 8003ef8:	69db      	ldr	r3, [r3, #28]
 8003efa:	2b00      	cmp	r3, #0
 8003efc:	f000 8087 	beq.w	800400e <HAL_RCC_OscConfig+0x4f6>
  {
    /* Check if the PLL is used as system clock or not */
    if (__HAL_RCC_GET_SYSCLK_SOURCE() != RCC_SYSCLKSOURCE_STATUS_PLLCLK)
 8003f00:	4b36      	ldr	r3, [pc, #216]	@ (8003fdc <HAL_RCC_OscConfig+0x4c4>)
 8003f02:	685b      	ldr	r3, [r3, #4]
 8003f04:	f003 030c 	and.w	r3, r3, #12
 8003f08:	2b08      	cmp	r3, #8
 8003f0a:	d061      	beq.n	8003fd0 <HAL_RCC_OscConfig+0x4b8>
    {
      if ((RCC_OscInitStruct->PLL.PLLState) == RCC_PLL_ON)
 8003f0c:	687b      	ldr	r3, [r7, #4]
 8003f0e:	69db      	ldr	r3, [r3, #28]
 8003f10:	2b02      	cmp	r3, #2
 8003f12:	d146      	bne.n	8003fa2 <HAL_RCC_OscConfig+0x48a>
        /* Check the parameters */
        assert_param(IS_RCC_PLLSOURCE(RCC_OscInitStruct->PLL.PLLSource));
        assert_param(IS_RCC_PLL_MUL(RCC_OscInitStruct->PLL.PLLMUL));

        /* Disable the main PLL. */
        __HAL_RCC_PLL_DISABLE();
 8003f14:	4b33      	ldr	r3, [pc, #204]	@ (8003fe4 <HAL_RCC_OscConfig+0x4cc>)
 8003f16:	2200      	movs	r2, #0
 8003f18:	601a      	str	r2, [r3, #0]

        /* Get Start Tick */
        tickstart = HAL_GetTick();
 8003f1a:	f7fd fa57 	bl	80013cc <HAL_GetTick>
 8003f1e:	6138      	str	r0, [r7, #16]

        /* Wait till PLL is disabled */
        while (__HAL_RCC_GET_FLAG(RCC_FLAG_PLLRDY)  != RESET)
 8003f20:	e008      	b.n	8003f34 <HAL_RCC_OscConfig+0x41c>
        {
          if ((HAL_GetTick() - tickstart) > PLL_TIMEOUT_VALUE)
 8003f22:	f7fd fa53 	bl	80013cc <HAL_GetTick>
 8003f26:	4602      	mov	r2, r0
 8003f28:	693b      	ldr	r3, [r7, #16]
 8003f2a:	1ad3      	subs	r3, r2, r3
 8003f2c:	2b02      	cmp	r3, #2
 8003f2e:	d901      	bls.n	8003f34 <HAL_RCC_OscConfig+0x41c>
          {
            return HAL_TIMEOUT;
 8003f30:	2303      	movs	r3, #3
 8003f32:	e06d      	b.n	8004010 <HAL_RCC_OscConfig+0x4f8>
        while (__HAL_RCC_GET_FLAG(RCC_FLAG_PLLRDY)  != RESET)
 8003f34:	4b29      	ldr	r3, [pc, #164]	@ (8003fdc <HAL_RCC_OscConfig+0x4c4>)
 8003f36:	681b      	ldr	r3, [r3, #0]
 8003f38:	f003 7300 	and.w	r3, r3, #33554432	@ 0x2000000
 8003f3c:	2b00      	cmp	r3, #0
 8003f3e:	d1f0      	bne.n	8003f22 <HAL_RCC_OscConfig+0x40a>
          }
        }

        /* Configure the HSE prediv factor --------------------------------*/
        /* It can be written only when the PLL is disabled. Not used in PLL source is different than HSE */
        if (RCC_OscInitStruct->PLL.PLLSource == RCC_PLLSOURCE_HSE)
 8003f40:	687b      	ldr	r3, [r7, #4]
 8003f42:	6a1b      	ldr	r3, [r3, #32]
 8003f44:	f5b3 3f80 	cmp.w	r3, #65536	@ 0x10000
 8003f48:	d108      	bne.n	8003f5c <HAL_RCC_OscConfig+0x444>
          /* Set PREDIV1 source */
          SET_BIT(RCC->CFGR2, RCC_OscInitStruct->Prediv1Source);
#endif /* RCC_CFGR2_PREDIV1SRC */

          /* Set PREDIV1 Value */
          __HAL_RCC_HSE_PREDIV_CONFIG(RCC_OscInitStruct->HSEPredivValue);
 8003f4a:	4b24      	ldr	r3, [pc, #144]	@ (8003fdc <HAL_RCC_OscConfig+0x4c4>)
 8003f4c:	6adb      	ldr	r3, [r3, #44]	@ 0x2c
 8003f4e:	f023 020f 	bic.w	r2, r3, #15
 8003f52:	687b      	ldr	r3, [r7, #4]
 8003f54:	689b      	ldr	r3, [r3, #8]
 8003f56:	4921      	ldr	r1, [pc, #132]	@ (8003fdc <HAL_RCC_OscConfig+0x4c4>)
 8003f58:	4313      	orrs	r3, r2
 8003f5a:	62cb      	str	r3, [r1, #44]	@ 0x2c
        }

        /* Configure the main PLL clock source and multiplication factors. */
        __HAL_RCC_PLL_CONFIG(RCC_OscInitStruct->PLL.PLLSource,
 8003f5c:	4b1f      	ldr	r3, [pc, #124]	@ (8003fdc <HAL_RCC_OscConfig+0x4c4>)
 8003f5e:	685b      	ldr	r3, [r3, #4]
 8003f60:	f423 1274 	bic.w	r2, r3, #3997696	@ 0x3d0000
 8003f64:	687b      	ldr	r3, [r7, #4]
 8003f66:	6a19      	ldr	r1, [r3, #32]
 8003f68:	687b      	ldr	r3, [r7, #4]
 8003f6a:	6a5b      	ldr	r3, [r3, #36]	@ 0x24
 8003f6c:	430b      	orrs	r3, r1
 8003f6e:	491b      	ldr	r1, [pc, #108]	@ (8003fdc <HAL_RCC_OscConfig+0x4c4>)
 8003f70:	4313      	orrs	r3, r2
 8003f72:	604b      	str	r3, [r1, #4]
                             RCC_OscInitStruct->PLL.PLLMUL);
        /* Enable the main PLL. */
        __HAL_RCC_PLL_ENABLE();
 8003f74:	4b1b      	ldr	r3, [pc, #108]	@ (8003fe4 <HAL_RCC_OscConfig+0x4cc>)
 8003f76:	2201      	movs	r2, #1
 8003f78:	601a      	str	r2, [r3, #0]

        /* Get Start Tick */
        tickstart = HAL_GetTick();
 8003f7a:	f7fd fa27 	bl	80013cc <HAL_GetTick>
 8003f7e:	6138      	str	r0, [r7, #16]

        /* Wait till PLL is ready */
        while (__HAL_RCC_GET_FLAG(RCC_FLAG_PLLRDY)  == RESET)
 8003f80:	e008      	b.n	8003f94 <HAL_RCC_OscConfig+0x47c>
        {
          if ((HAL_GetTick() - tickstart) > PLL_TIMEOUT_VALUE)
 8003f82:	f7fd fa23 	bl	80013cc <HAL_GetTick>
 8003f86:	4602      	mov	r2, r0
 8003f88:	693b      	ldr	r3, [r7, #16]
 8003f8a:	1ad3      	subs	r3, r2, r3
 8003f8c:	2b02      	cmp	r3, #2
 8003f8e:	d901      	bls.n	8003f94 <HAL_RCC_OscConfig+0x47c>
          {
            return HAL_TIMEOUT;
 8003f90:	2303      	movs	r3, #3
 8003f92:	e03d      	b.n	8004010 <HAL_RCC_OscConfig+0x4f8>
        while (__HAL_RCC_GET_FLAG(RCC_FLAG_PLLRDY)  == RESET)
 8003f94:	4b11      	ldr	r3, [pc, #68]	@ (8003fdc <HAL_RCC_OscConfig+0x4c4>)
 8003f96:	681b      	ldr	r3, [r3, #0]
 8003f98:	f003 7300 	and.w	r3, r3, #33554432	@ 0x2000000
 8003f9c:	2b00      	cmp	r3, #0
 8003f9e:	d0f0      	beq.n	8003f82 <HAL_RCC_OscConfig+0x46a>
 8003fa0:	e035      	b.n	800400e <HAL_RCC_OscConfig+0x4f6>
        }
      }
      else
      {
        /* Disable the main PLL. */
        __HAL_RCC_PLL_DISABLE();
 8003fa2:	4b10      	ldr	r3, [pc, #64]	@ (8003fe4 <HAL_RCC_OscConfig+0x4cc>)
 8003fa4:	2200      	movs	r2, #0
 8003fa6:	601a      	str	r2, [r3, #0]

        /* Get Start Tick */
        tickstart = HAL_GetTick();
 8003fa8:	f7fd fa10 	bl	80013cc <HAL_GetTick>
 8003fac:	6138      	str	r0, [r7, #16]

        /* Wait till PLL is disabled */
        while (__HAL_RCC_GET_FLAG(RCC_FLAG_PLLRDY)  != RESET)
 8003fae:	e008      	b.n	8003fc2 <HAL_RCC_OscConfig+0x4aa>
        {
          if ((HAL_GetTick() - tickstart) > PLL_TIMEOUT_VALUE)
 8003fb0:	f7fd fa0c 	bl	80013cc <HAL_GetTick>
 8003fb4:	4602      	mov	r2, r0
 8003fb6:	693b      	ldr	r3, [r7, #16]
 8003fb8:	1ad3      	subs	r3, r2, r3
 8003fba:	2b02      	cmp	r3, #2
 8003fbc:	d901      	bls.n	8003fc2 <HAL_RCC_OscConfig+0x4aa>
          {
            return HAL_TIMEOUT;
 8003fbe:	2303      	movs	r3, #3
 8003fc0:	e026      	b.n	8004010 <HAL_RCC_OscConfig+0x4f8>
        while (__HAL_RCC_GET_FLAG(RCC_FLAG_PLLRDY)  != RESET)
 8003fc2:	4b06      	ldr	r3, [pc, #24]	@ (8003fdc <HAL_RCC_OscConfig+0x4c4>)
 8003fc4:	681b      	ldr	r3, [r3, #0]
 8003fc6:	f003 7300 	and.w	r3, r3, #33554432	@ 0x2000000
 8003fca:	2b00      	cmp	r3, #0
 8003fcc:	d1f0      	bne.n	8003fb0 <HAL_RCC_OscConfig+0x498>
 8003fce:	e01e      	b.n	800400e <HAL_RCC_OscConfig+0x4f6>
      }
    }
    else
    {
      /* Check if there is a request to disable the PLL used as System clock source */
      if ((RCC_OscInitStruct->PLL.PLLState) == RCC_PLL_OFF)
 8003fd0:	687b      	ldr	r3, [r7, #4]
 8003fd2:	69db      	ldr	r3, [r3, #28]
 8003fd4:	2b01      	cmp	r3, #1
 8003fd6:	d107      	bne.n	8003fe8 <HAL_RCC_OscConfig+0x4d0>
      {
        return HAL_ERROR;
 8003fd8:	2301      	movs	r3, #1
 8003fda:	e019      	b.n	8004010 <HAL_RCC_OscConfig+0x4f8>
 8003fdc:	40021000 	.word	0x40021000
 8003fe0:	40007000 	.word	0x40007000
 8003fe4:	42420060 	.word	0x42420060
      }
      else
      {
        /* Do not return HAL_ERROR if request repeats the current configuration */
        pll_config = RCC->CFGR;
 8003fe8:	4b0b      	ldr	r3, [pc, #44]	@ (8004018 <HAL_RCC_OscConfig+0x500>)
 8003fea:	685b      	ldr	r3, [r3, #4]
 8003fec:	60fb      	str	r3, [r7, #12]
        if ((READ_BIT(pll_config, RCC_CFGR_PLLSRC) != RCC_OscInitStruct->PLL.PLLSource) ||
 8003fee:	68fb      	ldr	r3, [r7, #12]
 8003ff0:	f403 3280 	and.w	r2, r3, #65536	@ 0x10000
 8003ff4:	687b      	ldr	r3, [r7, #4]
 8003ff6:	6a1b      	ldr	r3, [r3, #32]
 8003ff8:	429a      	cmp	r2, r3
 8003ffa:	d106      	bne.n	800400a <HAL_RCC_OscConfig+0x4f2>
            (READ_BIT(pll_config, RCC_CFGR_PLLMULL) != RCC_OscInitStruct->PLL.PLLMUL))
 8003ffc:	68fb      	ldr	r3, [r7, #12]
 8003ffe:	f403 1270 	and.w	r2, r3, #3932160	@ 0x3c0000
 8004002:	687b      	ldr	r3, [r7, #4]
 8004004:	6a5b      	ldr	r3, [r3, #36]	@ 0x24
        if ((READ_BIT(pll_config, RCC_CFGR_PLLSRC) != RCC_OscInitStruct->PLL.PLLSource) ||
 8004006:	429a      	cmp	r2, r3
 8004008:	d001      	beq.n	800400e <HAL_RCC_OscConfig+0x4f6>
        {
          return HAL_ERROR;
 800400a:	2301      	movs	r3, #1
 800400c:	e000      	b.n	8004010 <HAL_RCC_OscConfig+0x4f8>
        }
      }
    }
  }

  return HAL_OK;
 800400e:	2300      	movs	r3, #0
}
 8004010:	4618      	mov	r0, r3
 8004012:	3718      	adds	r7, #24
 8004014:	46bd      	mov	sp, r7
 8004016:	bd80      	pop	{r7, pc}
 8004018:	40021000 	.word	0x40021000

0800401c <HAL_RCC_ClockConfig>:
  *         You can use @ref HAL_RCC_GetClockConfig() function to know which clock is
  *         currently used as system clock source.
  * @retval HAL status
  */
HAL_StatusTypeDef HAL_RCC_ClockConfig(RCC_ClkInitTypeDef  *RCC_ClkInitStruct, uint32_t FLatency)
{
 800401c:	b580      	push	{r7, lr}
 800401e:	b084      	sub	sp, #16
 8004020:	af00      	add	r7, sp, #0
 8004022:	6078      	str	r0, [r7, #4]
 8004024:	6039      	str	r1, [r7, #0]
  uint32_t tickstart;

  /* Check Null pointer */
  if (RCC_ClkInitStruct == NULL)
 8004026:	687b      	ldr	r3, [r7, #4]
 8004028:	2b00      	cmp	r3, #0
 800402a:	d101      	bne.n	8004030 <HAL_RCC_ClockConfig+0x14>
  {
    return HAL_ERROR;
 800402c:	2301      	movs	r3, #1
 800402e:	e0a0      	b.n	8004172 <HAL_RCC_ClockConfig+0x156>
  }
}

#endif /* FLASH_ACR_LATENCY */
/*-------------------------- HCLK Configuration --------------------------*/
if (((RCC_ClkInitStruct->ClockType) & RCC_CLOCKTYPE_HCLK) == RCC_CLOCKTYPE_HCLK)
 8004030:	687b      	ldr	r3, [r7, #4]
 8004032:	681b      	ldr	r3, [r3, #0]
 8004034:	f003 0302 	and.w	r3, r3, #2
 8004038:	2b00      	cmp	r3, #0
 800403a:	d020      	beq.n	800407e <HAL_RCC_ClockConfig+0x62>
  {
    /* Set the highest APBx dividers in order to ensure that we do not go through
    a non-spec phase whatever we decrease or increase HCLK. */
    if (((RCC_ClkInitStruct->ClockType) & RCC_CLOCKTYPE_PCLK1) == RCC_CLOCKTYPE_PCLK1)
 800403c:	687b      	ldr	r3, [r7, #4]
 800403e:	681b      	ldr	r3, [r3, #0]
 8004040:	f003 0304 	and.w	r3, r3, #4
 8004044:	2b00      	cmp	r3, #0
 8004046:	d005      	beq.n	8004054 <HAL_RCC_ClockConfig+0x38>
    {
      MODIFY_REG(RCC->CFGR, RCC_CFGR_PPRE1, RCC_HCLK_DIV16);
 8004048:	4b4c      	ldr	r3, [pc, #304]	@ (800417c <HAL_RCC_ClockConfig+0x160>)
 800404a:	685b      	ldr	r3, [r3, #4]
 800404c:	4a4b      	ldr	r2, [pc, #300]	@ (800417c <HAL_RCC_ClockConfig+0x160>)
 800404e:	f443 63e0 	orr.w	r3, r3, #1792	@ 0x700
 8004052:	6053      	str	r3, [r2, #4]
    }

    if (((RCC_ClkInitStruct->ClockType) & RCC_CLOCKTYPE_PCLK2) == RCC_CLOCKTYPE_PCLK2)
 8004054:	687b      	ldr	r3, [r7, #4]
 8004056:	681b      	ldr	r3, [r3, #0]
 8004058:	f003 0308 	and.w	r3, r3, #8
 800405c:	2b00      	cmp	r3, #0
 800405e:	d005      	beq.n	800406c <HAL_RCC_ClockConfig+0x50>
    {
      MODIFY_REG(RCC->CFGR, RCC_CFGR_PPRE2, (RCC_HCLK_DIV16 << 3));
 8004060:	4b46      	ldr	r3, [pc, #280]	@ (800417c <HAL_RCC_ClockConfig+0x160>)
 8004062:	685b      	ldr	r3, [r3, #4]
 8004064:	4a45      	ldr	r2, [pc, #276]	@ (800417c <HAL_RCC_ClockConfig+0x160>)
 8004066:	f443 5360 	orr.w	r3, r3, #14336	@ 0x3800
 800406a:	6053      	str	r3, [r2, #4]
    }

    /* Set the new HCLK clock divider */
    assert_param(IS_RCC_HCLK(RCC_ClkInitStruct->AHBCLKDivider));
    MODIFY_REG(RCC->CFGR, RCC_CFGR_HPRE, RCC_ClkInitStruct->AHBCLKDivider);
 800406c:	4b43      	ldr	r3, [pc, #268]	@ (800417c <HAL_RCC_ClockConfig+0x160>)
 800406e:	685b      	ldr	r3, [r3, #4]
 8004070:	f023 02f0 	bic.w	r2, r3, #240	@ 0xf0
 8004074:	687b      	ldr	r3, [r7, #4]
 8004076:	689b      	ldr	r3, [r3, #8]
 8004078:	4940      	ldr	r1, [pc, #256]	@ (800417c <HAL_RCC_ClockConfig+0x160>)
 800407a:	4313      	orrs	r3, r2
 800407c:	604b      	str	r3, [r1, #4]
  }

  /*------------------------- SYSCLK Configuration ---------------------------*/
  if (((RCC_ClkInitStruct->ClockType) & RCC_CLOCKTYPE_SYSCLK) == RCC_CLOCKTYPE_SYSCLK)
 800407e:	687b      	ldr	r3, [r7, #4]
 8004080:	681b      	ldr	r3, [r3, #0]
 8004082:	f003 0301 	and.w	r3, r3, #1
 8004086:	2b00      	cmp	r3, #0
 8004088:	d040      	beq.n	800410c <HAL_RCC_ClockConfig+0xf0>
  {
    assert_param(IS_RCC_SYSCLKSOURCE(RCC_ClkInitStruct->SYSCLKSource));

    /* HSE is selected as System Clock Source */
    if (RCC_ClkInitStruct->SYSCLKSource == RCC_SYSCLKSOURCE_HSE)
 800408a:	687b      	ldr	r3, [r7, #4]
 800408c:	685b      	ldr	r3, [r3, #4]
 800408e:	2b01      	cmp	r3, #1
 8004090:	d107      	bne.n	80040a2 <HAL_RCC_ClockConfig+0x86>
    {
      /* Check the HSE ready flag */
      if (__HAL_RCC_GET_FLAG(RCC_FLAG_HSERDY) == RESET)
 8004092:	4b3a      	ldr	r3, [pc, #232]	@ (800417c <HAL_RCC_ClockConfig+0x160>)
 8004094:	681b      	ldr	r3, [r3, #0]
 8004096:	f403 3300 	and.w	r3, r3, #131072	@ 0x20000
 800409a:	2b00      	cmp	r3, #0
 800409c:	d115      	bne.n	80040ca <HAL_RCC_ClockConfig+0xae>
      {
        return HAL_ERROR;
 800409e:	2301      	movs	r3, #1
 80040a0:	e067      	b.n	8004172 <HAL_RCC_ClockConfig+0x156>
      }
    }
    /* PLL is selected as System Clock Source */
    else if (RCC_ClkInitStruct->SYSCLKSource == RCC_SYSCLKSOURCE_PLLCLK)
 80040a2:	687b      	ldr	r3, [r7, #4]
 80040a4:	685b      	ldr	r3, [r3, #4]
 80040a6:	2b02      	cmp	r3, #2
 80040a8:	d107      	bne.n	80040ba <HAL_RCC_ClockConfig+0x9e>
    {
      /* Check the PLL ready flag */
      if (__HAL_RCC_GET_FLAG(RCC_FLAG_PLLRDY) == RESET)
 80040aa:	4b34      	ldr	r3, [pc, #208]	@ (800417c <HAL_RCC_ClockConfig+0x160>)
 80040ac:	681b      	ldr	r3, [r3, #0]
 80040ae:	f003 7300 	and.w	r3, r3, #33554432	@ 0x2000000
 80040b2:	2b00      	cmp	r3, #0
 80040b4:	d109      	bne.n	80040ca <HAL_RCC_ClockConfig+0xae>
      {
        return HAL_ERROR;
 80040b6:	2301      	movs	r3, #1
 80040b8:	e05b      	b.n	8004172 <HAL_RCC_ClockConfig+0x156>
    }
    /* HSI is selected as System Clock Source */
    else
    {
      /* Check the HSI ready flag */
      if (__HAL_RCC_GET_FLAG(RCC_FLAG_HSIRDY) == RESET)
 80040ba:	4b30      	ldr	r3, [pc, #192]	@ (800417c <HAL_RCC_ClockConfig+0x160>)
 80040bc:	681b      	ldr	r3, [r3, #0]
 80040be:	f003 0302 	and.w	r3, r3, #2
 80040c2:	2b00      	cmp	r3, #0
 80040c4:	d101      	bne.n	80040ca <HAL_RCC_ClockConfig+0xae>
      {
        return HAL_ERROR;
 80040c6:	2301      	movs	r3, #1
 80040c8:	e053      	b.n	8004172 <HAL_RCC_ClockConfig+0x156>
      }
    }
    __HAL_RCC_SYSCLK_CONFIG(RCC_ClkInitStruct->SYSCLKSource);
 80040ca:	4b2c      	ldr	r3, [pc, #176]	@ (800417c <HAL_RCC_ClockConfig+0x160>)
 80040cc:	685b      	ldr	r3, [r3, #4]
 80040ce:	f023 0203 	bic.w	r2, r3, #3
 80040d2:	687b      	ldr	r3, [r7, #4]
 80040d4:	685b      	ldr	r3, [r3, #4]
 80040d6:	4929      	ldr	r1, [pc, #164]	@ (800417c <HAL_RCC_ClockConfig+0x160>)
 80040d8:	4313      	orrs	r3, r2
 80040da:	604b      	str	r3, [r1, #4]

    /* Get Start Tick */
    tickstart = HAL_GetTick();
 80040dc:	f7fd f976 	bl	80013cc <HAL_GetTick>
 80040e0:	60f8      	str	r0, [r7, #12]

    while (__HAL_RCC_GET_SYSCLK_SOURCE() != (RCC_ClkInitStruct->SYSCLKSource << RCC_CFGR_SWS_Pos))
 80040e2:	e00a      	b.n	80040fa <HAL_RCC_ClockConfig+0xde>
    {
      if ((HAL_GetTick() - tickstart) > CLOCKSWITCH_TIMEOUT_VALUE)
 80040e4:	f7fd f972 	bl	80013cc <HAL_GetTick>
 80040e8:	4602      	mov	r2, r0
 80040ea:	68fb      	ldr	r3, [r7, #12]
 80040ec:	1ad3      	subs	r3, r2, r3
 80040ee:	f241 3288 	movw	r2, #5000	@ 0x1388
 80040f2:	4293      	cmp	r3, r2
 80040f4:	d901      	bls.n	80040fa <HAL_RCC_ClockConfig+0xde>
      {
        return HAL_TIMEOUT;
 80040f6:	2303      	movs	r3, #3
 80040f8:	e03b      	b.n	8004172 <HAL_RCC_ClockConfig+0x156>
    while (__HAL_RCC_GET_SYSCLK_SOURCE() != (RCC_ClkInitStruct->SYSCLKSource << RCC_CFGR_SWS_Pos))
 80040fa:	4b20      	ldr	r3, [pc, #128]	@ (800417c <HAL_RCC_ClockConfig+0x160>)
 80040fc:	685b      	ldr	r3, [r3, #4]
 80040fe:	f003 020c 	and.w	r2, r3, #12
 8004102:	687b      	ldr	r3, [r7, #4]
 8004104:	685b      	ldr	r3, [r3, #4]
 8004106:	009b      	lsls	r3, r3, #2
 8004108:	429a      	cmp	r2, r3
 800410a:	d1eb      	bne.n	80040e4 <HAL_RCC_ClockConfig+0xc8>
  }
}
#endif /* FLASH_ACR_LATENCY */

/*-------------------------- PCLK1 Configuration ---------------------------*/
if (((RCC_ClkInitStruct->ClockType) & RCC_CLOCKTYPE_PCLK1) == RCC_CLOCKTYPE_PCLK1)
 800410c:	687b      	ldr	r3, [r7, #4]
 800410e:	681b      	ldr	r3, [r3, #0]
 8004110:	f003 0304 	and.w	r3, r3, #4
 8004114:	2b00      	cmp	r3, #0
 8004116:	d008      	beq.n	800412a <HAL_RCC_ClockConfig+0x10e>
  {
    assert_param(IS_RCC_PCLK(RCC_ClkInitStruct->APB1CLKDivider));
    MODIFY_REG(RCC->CFGR, RCC_CFGR_PPRE1, RCC_ClkInitStruct->APB1CLKDivider);
 8004118:	4b18      	ldr	r3, [pc, #96]	@ (800417c <HAL_RCC_ClockConfig+0x160>)
 800411a:	685b      	ldr	r3, [r3, #4]
 800411c:	f423 62e0 	bic.w	r2, r3, #1792	@ 0x700
 8004120:	687b      	ldr	r3, [r7, #4]
 8004122:	68db      	ldr	r3, [r3, #12]
 8004124:	4915      	ldr	r1, [pc, #84]	@ (800417c <HAL_RCC_ClockConfig+0x160>)
 8004126:	4313      	orrs	r3, r2
 8004128:	604b      	str	r3, [r1, #4]
  }

  /*-------------------------- PCLK2 Configuration ---------------------------*/
  if (((RCC_ClkInitStruct->ClockType) & RCC_CLOCKTYPE_PCLK2) == RCC_CLOCKTYPE_PCLK2)
 800412a:	687b      	ldr	r3, [r7, #4]
 800412c:	681b      	ldr	r3, [r3, #0]
 800412e:	f003 0308 	and.w	r3, r3, #8
 8004132:	2b00      	cmp	r3, #0
 8004134:	d009      	beq.n	800414a <HAL_RCC_ClockConfig+0x12e>
  {
    assert_param(IS_RCC_PCLK(RCC_ClkInitStruct->APB2CLKDivider));
    MODIFY_REG(RCC->CFGR, RCC_CFGR_PPRE2, ((RCC_ClkInitStruct->APB2CLKDivider) << 3));
 8004136:	4b11      	ldr	r3, [pc, #68]	@ (800417c <HAL_RCC_ClockConfig+0x160>)
 8004138:	685b      	ldr	r3, [r3, #4]
 800413a:	f423 5260 	bic.w	r2, r3, #14336	@ 0x3800
 800413e:	687b      	ldr	r3, [r7, #4]
 8004140:	691b      	ldr	r3, [r3, #16]
 8004142:	00db      	lsls	r3, r3, #3
 8004144:	490d      	ldr	r1, [pc, #52]	@ (800417c <HAL_RCC_ClockConfig+0x160>)
 8004146:	4313      	orrs	r3, r2
 8004148:	604b      	str	r3, [r1, #4]
  }

  /* Update the SystemCoreClock global variable */
  SystemCoreClock = HAL_RCC_GetSysClockFreq() >> AHBPrescTable[(RCC->CFGR & RCC_CFGR_HPRE) >> RCC_CFGR_HPRE_Pos];
 800414a:	f000 f81f 	bl	800418c <HAL_RCC_GetSysClockFreq>
 800414e:	4602      	mov	r2, r0
 8004150:	4b0a      	ldr	r3, [pc, #40]	@ (800417c <HAL_RCC_ClockConfig+0x160>)
 8004152:	685b      	ldr	r3, [r3, #4]
 8004154:	091b      	lsrs	r3, r3, #4
 8004156:	f003 030f 	and.w	r3, r3, #15
 800415a:	4909      	ldr	r1, [pc, #36]	@ (8004180 <HAL_RCC_ClockConfig+0x164>)
 800415c:	5ccb      	ldrb	r3, [r1, r3]
 800415e:	fa22 f303 	lsr.w	r3, r2, r3
 8004162:	4a08      	ldr	r2, [pc, #32]	@ (8004184 <HAL_RCC_ClockConfig+0x168>)
 8004164:	6013      	str	r3, [r2, #0]

  /* Configure the source of time base considering new system clocks settings*/
  HAL_InitTick(uwTickPrio);
 8004166:	4b08      	ldr	r3, [pc, #32]	@ (8004188 <HAL_RCC_ClockConfig+0x16c>)
 8004168:	681b      	ldr	r3, [r3, #0]
 800416a:	4618      	mov	r0, r3
 800416c:	f7fd f8ec 	bl	8001348 <HAL_InitTick>

  return HAL_OK;
 8004170:	2300      	movs	r3, #0
}
 8004172:	4618      	mov	r0, r3
 8004174:	3710      	adds	r7, #16
 8004176:	46bd      	mov	sp, r7
 8004178:	bd80      	pop	{r7, pc}
 800417a:	bf00      	nop
 800417c:	40021000 	.word	0x40021000
 8004180:	080069e4 	.word	0x080069e4
 8004184:	20000018 	.word	0x20000018
 8004188:	2000001c 	.word	0x2000001c

0800418c <HAL_RCC_GetSysClockFreq>:
  *         right SYSCLK value. Otherwise, any configuration based on this function will be incorrect.
  *
  * @retval SYSCLK frequency
  */
uint32_t HAL_RCC_GetSysClockFreq(void)
{
 800418c:	b480      	push	{r7}
 800418e:	b087      	sub	sp, #28
 8004190:	af00      	add	r7, sp, #0
#else
  static const uint8_t aPredivFactorTable[2U] = {1, 2};
#endif /*RCC_CFGR2_PREDIV1*/

#endif
  uint32_t tmpreg = 0U, prediv = 0U, pllclk = 0U, pllmul = 0U;
 8004192:	2300      	movs	r3, #0
 8004194:	60fb      	str	r3, [r7, #12]
 8004196:	2300      	movs	r3, #0
 8004198:	60bb      	str	r3, [r7, #8]
 800419a:	2300      	movs	r3, #0
 800419c:	617b      	str	r3, [r7, #20]
 800419e:	2300      	movs	r3, #0
 80041a0:	607b      	str	r3, [r7, #4]
  uint32_t sysclockfreq = 0U;
 80041a2:	2300      	movs	r3, #0
 80041a4:	613b      	str	r3, [r7, #16]
#if defined(RCC_CFGR2_PREDIV1SRC)
  uint32_t prediv2 = 0U, pll2mul = 0U;
#endif /*RCC_CFGR2_PREDIV1SRC*/

  tmpreg = RCC->CFGR;
 80041a6:	4b1d      	ldr	r3, [pc, #116]	@ (800421c <HAL_RCC_GetSysClockFreq+0x90>)
 80041a8:	685b      	ldr	r3, [r3, #4]
 80041aa:	60fb      	str	r3, [r7, #12]

  /* Get SYSCLK source -------------------------------------------------------*/
  switch (tmpreg & RCC_CFGR_SWS)
 80041ac:	68fb      	ldr	r3, [r7, #12]
 80041ae:	f003 030c 	and.w	r3, r3, #12
 80041b2:	2b04      	cmp	r3, #4
 80041b4:	d002      	beq.n	80041bc <HAL_RCC_GetSysClockFreq+0x30>
 80041b6:	2b08      	cmp	r3, #8
 80041b8:	d003      	beq.n	80041c2 <HAL_RCC_GetSysClockFreq+0x36>
 80041ba:	e026      	b.n	800420a <HAL_RCC_GetSysClockFreq+0x7e>
  {
    case RCC_SYSCLKSOURCE_STATUS_HSE:  /* HSE used as system clock */
    {
      sysclockfreq = HSE_VALUE;
 80041bc:	4b18      	ldr	r3, [pc, #96]	@ (8004220 <HAL_RCC_GetSysClockFreq+0x94>)
 80041be:	613b      	str	r3, [r7, #16]
      break;
 80041c0:	e026      	b.n	8004210 <HAL_RCC_GetSysClockFreq+0x84>
    }
    case RCC_SYSCLKSOURCE_STATUS_PLLCLK:  /* PLL used as system clock */
    {
      pllmul = aPLLMULFactorTable[(uint32_t)(tmpreg & RCC_CFGR_PLLMULL) >> RCC_CFGR_PLLMULL_Pos];
 80041c2:	68fb      	ldr	r3, [r7, #12]
 80041c4:	0c9b      	lsrs	r3, r3, #18
 80041c6:	f003 030f 	and.w	r3, r3, #15
 80041ca:	4a16      	ldr	r2, [pc, #88]	@ (8004224 <HAL_RCC_GetSysClockFreq+0x98>)
 80041cc:	5cd3      	ldrb	r3, [r2, r3]
 80041ce:	607b      	str	r3, [r7, #4]
      if ((tmpreg & RCC_CFGR_PLLSRC) != RCC_PLLSOURCE_HSI_DIV2)
 80041d0:	68fb      	ldr	r3, [r7, #12]
 80041d2:	f403 3380 	and.w	r3, r3, #65536	@ 0x10000
 80041d6:	2b00      	cmp	r3, #0
 80041d8:	d00f      	beq.n	80041fa <HAL_RCC_GetSysClockFreq+0x6e>
      {
#if defined(RCC_CFGR2_PREDIV1)
        prediv = aPredivFactorTable[(uint32_t)(RCC->CFGR2 & RCC_CFGR2_PREDIV1) >> RCC_CFGR2_PREDIV1_Pos];
 80041da:	4b10      	ldr	r3, [pc, #64]	@ (800421c <HAL_RCC_GetSysClockFreq+0x90>)
 80041dc:	6adb      	ldr	r3, [r3, #44]	@ 0x2c
 80041de:	f003 030f 	and.w	r3, r3, #15
 80041e2:	4a11      	ldr	r2, [pc, #68]	@ (8004228 <HAL_RCC_GetSysClockFreq+0x9c>)
 80041e4:	5cd3      	ldrb	r3, [r2, r3]
 80041e6:	60bb      	str	r3, [r7, #8]
        {
          pllclk = pllclk / 2;
        }
#else
        /* HSE used as PLL clock source : PLLCLK = HSE/PREDIV1 * PLLMUL */
        pllclk = (uint32_t)((HSE_VALUE  * pllmul) / prediv);
 80041e8:	687b      	ldr	r3, [r7, #4]
 80041ea:	4a0d      	ldr	r2, [pc, #52]	@ (8004220 <HAL_RCC_GetSysClockFreq+0x94>)
 80041ec:	fb03 f202 	mul.w	r2, r3, r2
 80041f0:	68bb      	ldr	r3, [r7, #8]
 80041f2:	fbb2 f3f3 	udiv	r3, r2, r3
 80041f6:	617b      	str	r3, [r7, #20]
 80041f8:	e004      	b.n	8004204 <HAL_RCC_GetSysClockFreq+0x78>
#endif /*RCC_CFGR2_PREDIV1SRC*/
      }
      else
      {
        /* HSI used as PLL clock source : PLLCLK = HSI/2 * PLLMUL */
        pllclk = (uint32_t)((HSI_VALUE >> 1) * pllmul);
 80041fa:	687b      	ldr	r3, [r7, #4]
 80041fc:	4a0b      	ldr	r2, [pc, #44]	@ (800422c <HAL_RCC_GetSysClockFreq+0xa0>)
 80041fe:	fb02 f303 	mul.w	r3, r2, r3
 8004202:	617b      	str	r3, [r7, #20]
      }
      sysclockfreq = pllclk;
 8004204:	697b      	ldr	r3, [r7, #20]
 8004206:	613b      	str	r3, [r7, #16]
      break;
 8004208:	e002      	b.n	8004210 <HAL_RCC_GetSysClockFreq+0x84>
    }
    case RCC_SYSCLKSOURCE_STATUS_HSI:  /* HSI used as system clock source */
    default: /* HSI used as system clock */
    {
      sysclockfreq = HSI_VALUE;
 800420a:	4b05      	ldr	r3, [pc, #20]	@ (8004220 <HAL_RCC_GetSysClockFreq+0x94>)
 800420c:	613b      	str	r3, [r7, #16]
      break;
 800420e:	bf00      	nop
    }
  }
  return sysclockfreq;
 8004210:	693b      	ldr	r3, [r7, #16]
}
 8004212:	4618      	mov	r0, r3
 8004214:	371c      	adds	r7, #28
 8004216:	46bd      	mov	sp, r7
 8004218:	bc80      	pop	{r7}
 800421a:	4770      	bx	lr
 800421c:	40021000 	.word	0x40021000
 8004220:	007a1200 	.word	0x007a1200
 8004224:	080069fc 	.word	0x080069fc
 8004228:	08006a0c 	.word	0x08006a0c
 800422c:	003d0900 	.word	0x003d0900

08004230 <HAL_RCC_GetHCLKFreq>:
  * @note   The SystemCoreClock CMSIS variable is used to store System Clock Frequency
  *         and updated within this function
  * @retval HCLK frequency
  */
uint32_t HAL_RCC_GetHCLKFreq(void)
{
 8004230:	b480      	push	{r7}
 8004232:	af00      	add	r7, sp, #0
  return SystemCoreClock;
 8004234:	4b02      	ldr	r3, [pc, #8]	@ (8004240 <HAL_RCC_GetHCLKFreq+0x10>)
 8004236:	681b      	ldr	r3, [r3, #0]
}
 8004238:	4618      	mov	r0, r3
 800423a:	46bd      	mov	sp, r7
 800423c:	bc80      	pop	{r7}
 800423e:	4770      	bx	lr
 8004240:	20000018 	.word	0x20000018

08004244 <HAL_RCC_GetPCLK1Freq>:
  * @note   Each time PCLK1 changes, this function must be called to update the
  *         right PCLK1 value. Otherwise, any configuration based on this function will be incorrect.
  * @retval PCLK1 frequency
  */
uint32_t HAL_RCC_GetPCLK1Freq(void)
{
 8004244:	b580      	push	{r7, lr}
 8004246:	af00      	add	r7, sp, #0
  /* Get HCLK source and Compute PCLK1 frequency ---------------------------*/
  return (HAL_RCC_GetHCLKFreq() >> APBPrescTable[(RCC->CFGR & RCC_CFGR_PPRE1) >> RCC_CFGR_PPRE1_Pos]);
 8004248:	f7ff fff2 	bl	8004230 <HAL_RCC_GetHCLKFreq>
 800424c:	4602      	mov	r2, r0
 800424e:	4b05      	ldr	r3, [pc, #20]	@ (8004264 <HAL_RCC_GetPCLK1Freq+0x20>)
 8004250:	685b      	ldr	r3, [r3, #4]
 8004252:	0a1b      	lsrs	r3, r3, #8
 8004254:	f003 0307 	and.w	r3, r3, #7
 8004258:	4903      	ldr	r1, [pc, #12]	@ (8004268 <HAL_RCC_GetPCLK1Freq+0x24>)
 800425a:	5ccb      	ldrb	r3, [r1, r3]
 800425c:	fa22 f303 	lsr.w	r3, r2, r3
}
 8004260:	4618      	mov	r0, r3
 8004262:	bd80      	pop	{r7, pc}
 8004264:	40021000 	.word	0x40021000
 8004268:	080069f4 	.word	0x080069f4

0800426c <HAL_RCC_GetPCLK2Freq>:
  * @note   Each time PCLK2 changes, this function must be called to update the
  *         right PCLK2 value. Otherwise, any configuration based on this function will be incorrect.
  * @retval PCLK2 frequency
  */
uint32_t HAL_RCC_GetPCLK2Freq(void)
{
 800426c:	b580      	push	{r7, lr}
 800426e:	af00      	add	r7, sp, #0
  /* Get HCLK source and Compute PCLK2 frequency ---------------------------*/
  return (HAL_RCC_GetHCLKFreq() >> APBPrescTable[(RCC->CFGR & RCC_CFGR_PPRE2) >> RCC_CFGR_PPRE2_Pos]);
 8004270:	f7ff ffde 	bl	8004230 <HAL_RCC_GetHCLKFreq>
 8004274:	4602      	mov	r2, r0
 8004276:	4b05      	ldr	r3, [pc, #20]	@ (800428c <HAL_RCC_GetPCLK2Freq+0x20>)
 8004278:	685b      	ldr	r3, [r3, #4]
 800427a:	0adb      	lsrs	r3, r3, #11
 800427c:	f003 0307 	and.w	r3, r3, #7
 8004280:	4903      	ldr	r1, [pc, #12]	@ (8004290 <HAL_RCC_GetPCLK2Freq+0x24>)
 8004282:	5ccb      	ldrb	r3, [r1, r3]
 8004284:	fa22 f303 	lsr.w	r3, r2, r3
}
 8004288:	4618      	mov	r0, r3
 800428a:	bd80      	pop	{r7, pc}
 800428c:	40021000 	.word	0x40021000
 8004290:	080069f4 	.word	0x080069f4

08004294 <RCC_Delay>:
  * @brief  This function provides delay (in milliseconds) based on CPU cycles method.
  * @param  mdelay: specifies the delay time length, in milliseconds.
  * @retval None
  */
static void RCC_Delay(uint32_t mdelay)
{
 8004294:	b480      	push	{r7}
 8004296:	b085      	sub	sp, #20
 8004298:	af00      	add	r7, sp, #0
 800429a:	6078      	str	r0, [r7, #4]
  __IO uint32_t Delay = mdelay * (SystemCoreClock / 8U / 1000U);
 800429c:	4b0a      	ldr	r3, [pc, #40]	@ (80042c8 <RCC_Delay+0x34>)
 800429e:	681b      	ldr	r3, [r3, #0]
 80042a0:	4a0a      	ldr	r2, [pc, #40]	@ (80042cc <RCC_Delay+0x38>)
 80042a2:	fba2 2303 	umull	r2, r3, r2, r3
 80042a6:	0a5b      	lsrs	r3, r3, #9
 80042a8:	687a      	ldr	r2, [r7, #4]
 80042aa:	fb02 f303 	mul.w	r3, r2, r3
 80042ae:	60fb      	str	r3, [r7, #12]
  do
  {
    __NOP();
 80042b0:	bf00      	nop
  }
  while (Delay --);
 80042b2:	68fb      	ldr	r3, [r7, #12]
 80042b4:	1e5a      	subs	r2, r3, #1
 80042b6:	60fa      	str	r2, [r7, #12]
 80042b8:	2b00      	cmp	r3, #0
 80042ba:	d1f9      	bne.n	80042b0 <RCC_Delay+0x1c>
}
 80042bc:	bf00      	nop
 80042be:	bf00      	nop
 80042c0:	3714      	adds	r7, #20
 80042c2:	46bd      	mov	sp, r7
 80042c4:	bc80      	pop	{r7}
 80042c6:	4770      	bx	lr
 80042c8:	20000018 	.word	0x20000018
 80042cc:	10624dd3 	.word	0x10624dd3

080042d0 <HAL_UART_Init>:
  * @param  huart  Pointer to a UART_HandleTypeDef structure that contains
  *                the configuration information for the specified UART module.
  * @retval HAL status
  */
HAL_StatusTypeDef HAL_UART_Init(UART_HandleTypeDef *huart)
{
 80042d0:	b580      	push	{r7, lr}
 80042d2:	b082      	sub	sp, #8
 80042d4:	af00      	add	r7, sp, #0
 80042d6:	6078      	str	r0, [r7, #4]
  /* Check the UART handle allocation */
  if (huart == NULL)
 80042d8:	687b      	ldr	r3, [r7, #4]
 80042da:	2b00      	cmp	r3, #0
 80042dc:	d101      	bne.n	80042e2 <HAL_UART_Init+0x12>
  {
    return HAL_ERROR;
 80042de:	2301      	movs	r3, #1
 80042e0:	e042      	b.n	8004368 <HAL_UART_Init+0x98>
  assert_param(IS_UART_WORD_LENGTH(huart->Init.WordLength));
#if defined(USART_CR1_OVER8)
  assert_param(IS_UART_OVERSAMPLING(huart->Init.OverSampling));
#endif /* USART_CR1_OVER8 */

  if (huart->gState == HAL_UART_STATE_RESET)
 80042e2:	687b      	ldr	r3, [r7, #4]
 80042e4:	f893 3041 	ldrb.w	r3, [r3, #65]	@ 0x41
 80042e8:	b2db      	uxtb	r3, r3
 80042ea:	2b00      	cmp	r3, #0
 80042ec:	d106      	bne.n	80042fc <HAL_UART_Init+0x2c>
  {
    /* Allocate lock resource and initialize it */
    huart->Lock = HAL_UNLOCKED;
 80042ee:	687b      	ldr	r3, [r7, #4]
 80042f0:	2200      	movs	r2, #0
 80042f2:	f883 2040 	strb.w	r2, [r3, #64]	@ 0x40

    /* Init the low level hardware */
    huart->MspInitCallback(huart);
#else
    /* Init the low level hardware : GPIO, CLOCK */
    HAL_UART_MspInit(huart);
 80042f6:	6878      	ldr	r0, [r7, #4]
 80042f8:	f7fc ffaa 	bl	8001250 <HAL_UART_MspInit>
#endif /* (USE_HAL_UART_REGISTER_CALLBACKS) */
  }

  huart->gState = HAL_UART_STATE_BUSY;
 80042fc:	687b      	ldr	r3, [r7, #4]
 80042fe:	2224      	movs	r2, #36	@ 0x24
 8004300:	f883 2041 	strb.w	r2, [r3, #65]	@ 0x41

  /* Disable the peripheral */
  __HAL_UART_DISABLE(huart);
 8004304:	687b      	ldr	r3, [r7, #4]
 8004306:	681b      	ldr	r3, [r3, #0]
 8004308:	68da      	ldr	r2, [r3, #12]
 800430a:	687b      	ldr	r3, [r7, #4]
 800430c:	681b      	ldr	r3, [r3, #0]
 800430e:	f422 5200 	bic.w	r2, r2, #8192	@ 0x2000
 8004312:	60da      	str	r2, [r3, #12]

  /* Set the UART Communication parameters */
  UART_SetConfig(huart);
 8004314:	6878      	ldr	r0, [r7, #4]
 8004316:	f000 f971 	bl	80045fc <UART_SetConfig>

  /* In asynchronous mode, the following bits must be kept cleared:
     - LINEN and CLKEN bits in the USART_CR2 register,
     - SCEN, HDSEL and IREN  bits in the USART_CR3 register.*/
  CLEAR_BIT(huart->Instance->CR2, (USART_CR2_LINEN | USART_CR2_CLKEN));
 800431a:	687b      	ldr	r3, [r7, #4]
 800431c:	681b      	ldr	r3, [r3, #0]
 800431e:	691a      	ldr	r2, [r3, #16]
 8004320:	687b      	ldr	r3, [r7, #4]
 8004322:	681b      	ldr	r3, [r3, #0]
 8004324:	f422 4290 	bic.w	r2, r2, #18432	@ 0x4800
 8004328:	611a      	str	r2, [r3, #16]
  CLEAR_BIT(huart->Instance->CR3, (USART_CR3_SCEN | USART_CR3_HDSEL | USART_CR3_IREN));
 800432a:	687b      	ldr	r3, [r7, #4]
 800432c:	681b      	ldr	r3, [r3, #0]
 800432e:	695a      	ldr	r2, [r3, #20]
 8004330:	687b      	ldr	r3, [r7, #4]
 8004332:	681b      	ldr	r3, [r3, #0]
 8004334:	f022 022a 	bic.w	r2, r2, #42	@ 0x2a
 8004338:	615a      	str	r2, [r3, #20]

  /* Enable the peripheral */
  __HAL_UART_ENABLE(huart);
 800433a:	687b      	ldr	r3, [r7, #4]
 800433c:	681b      	ldr	r3, [r3, #0]
 800433e:	68da      	ldr	r2, [r3, #12]
 8004340:	687b      	ldr	r3, [r7, #4]
 8004342:	681b      	ldr	r3, [r3, #0]
 8004344:	f442 5200 	orr.w	r2, r2, #8192	@ 0x2000
 8004348:	60da      	str	r2, [r3, #12]

  /* Initialize the UART state */
  huart->ErrorCode = HAL_UART_ERROR_NONE;
 800434a:	687b      	ldr	r3, [r7, #4]
 800434c:	2200      	movs	r2, #0
 800434e:	645a      	str	r2, [r3, #68]	@ 0x44
  huart->gState = HAL_UART_STATE_READY;
 8004350:	687b      	ldr	r3, [r7, #4]
 8004352:	2220      	movs	r2, #32
 8004354:	f883 2041 	strb.w	r2, [r3, #65]	@ 0x41
  huart->RxState = HAL_UART_STATE_READY;
 8004358:	687b      	ldr	r3, [r7, #4]
 800435a:	2220      	movs	r2, #32
 800435c:	f883 2042 	strb.w	r2, [r3, #66]	@ 0x42
  huart->RxEventType = HAL_UART_RXEVENT_TC;
 8004360:	687b      	ldr	r3, [r7, #4]
 8004362:	2200      	movs	r2, #0
 8004364:	635a      	str	r2, [r3, #52]	@ 0x34

  return HAL_OK;
 8004366:	2300      	movs	r3, #0
}
 8004368:	4618      	mov	r0, r3
 800436a:	3708      	adds	r7, #8
 800436c:	46bd      	mov	sp, r7
 800436e:	bd80      	pop	{r7, pc}

08004370 <HAL_UART_Transmit>:
  * @param  Size  Amount of data elements (u8 or u16) to be sent
  * @param  Timeout Timeout duration
  * @retval HAL status
  */
HAL_StatusTypeDef HAL_UART_Transmit(UART_HandleTypeDef *huart, const uint8_t *pData, uint16_t Size, uint32_t Timeout)
{
 8004370:	b580      	push	{r7, lr}
 8004372:	b08a      	sub	sp, #40	@ 0x28
 8004374:	af02      	add	r7, sp, #8
 8004376:	60f8      	str	r0, [r7, #12]
 8004378:	60b9      	str	r1, [r7, #8]
 800437a:	603b      	str	r3, [r7, #0]
 800437c:	4613      	mov	r3, r2
 800437e:	80fb      	strh	r3, [r7, #6]
  const uint8_t  *pdata8bits;
  const uint16_t *pdata16bits;
  uint32_t tickstart = 0U;
 8004380:	2300      	movs	r3, #0
 8004382:	617b      	str	r3, [r7, #20]

  /* Check that a Tx process is not already ongoing */
  if (huart->gState == HAL_UART_STATE_READY)
 8004384:	68fb      	ldr	r3, [r7, #12]
 8004386:	f893 3041 	ldrb.w	r3, [r3, #65]	@ 0x41
 800438a:	b2db      	uxtb	r3, r3
 800438c:	2b20      	cmp	r3, #32
 800438e:	d175      	bne.n	800447c <HAL_UART_Transmit+0x10c>
  {
    if ((pData == NULL) || (Size == 0U))
 8004390:	68bb      	ldr	r3, [r7, #8]
 8004392:	2b00      	cmp	r3, #0
 8004394:	d002      	beq.n	800439c <HAL_UART_Transmit+0x2c>
 8004396:	88fb      	ldrh	r3, [r7, #6]
 8004398:	2b00      	cmp	r3, #0
 800439a:	d101      	bne.n	80043a0 <HAL_UART_Transmit+0x30>
    {
      return  HAL_ERROR;
 800439c:	2301      	movs	r3, #1
 800439e:	e06e      	b.n	800447e <HAL_UART_Transmit+0x10e>
    }

    huart->ErrorCode = HAL_UART_ERROR_NONE;
 80043a0:	68fb      	ldr	r3, [r7, #12]
 80043a2:	2200      	movs	r2, #0
 80043a4:	645a      	str	r2, [r3, #68]	@ 0x44
    huart->gState = HAL_UART_STATE_BUSY_TX;
 80043a6:	68fb      	ldr	r3, [r7, #12]
 80043a8:	2221      	movs	r2, #33	@ 0x21
 80043aa:	f883 2041 	strb.w	r2, [r3, #65]	@ 0x41

    /* Init tickstart for timeout management */
    tickstart = HAL_GetTick();
 80043ae:	f7fd f80d 	bl	80013cc <HAL_GetTick>
 80043b2:	6178      	str	r0, [r7, #20]

    huart->TxXferSize = Size;
 80043b4:	68fb      	ldr	r3, [r7, #12]
 80043b6:	88fa      	ldrh	r2, [r7, #6]
 80043b8:	849a      	strh	r2, [r3, #36]	@ 0x24
    huart->TxXferCount = Size;
 80043ba:	68fb      	ldr	r3, [r7, #12]
 80043bc:	88fa      	ldrh	r2, [r7, #6]
 80043be:	84da      	strh	r2, [r3, #38]	@ 0x26

    /* In case of 9bits/No Parity transfer, pData needs to be handled as a uint16_t pointer */
    if ((huart->Init.WordLength == UART_WORDLENGTH_9B) && (huart->Init.Parity == UART_PARITY_NONE))
 80043c0:	68fb      	ldr	r3, [r7, #12]
 80043c2:	689b      	ldr	r3, [r3, #8]
 80043c4:	f5b3 5f80 	cmp.w	r3, #4096	@ 0x1000
 80043c8:	d108      	bne.n	80043dc <HAL_UART_Transmit+0x6c>
 80043ca:	68fb      	ldr	r3, [r7, #12]
 80043cc:	691b      	ldr	r3, [r3, #16]
 80043ce:	2b00      	cmp	r3, #0
 80043d0:	d104      	bne.n	80043dc <HAL_UART_Transmit+0x6c>
    {
      pdata8bits  = NULL;
 80043d2:	2300      	movs	r3, #0
 80043d4:	61fb      	str	r3, [r7, #28]
      pdata16bits = (const uint16_t *) pData;
 80043d6:	68bb      	ldr	r3, [r7, #8]
 80043d8:	61bb      	str	r3, [r7, #24]
 80043da:	e003      	b.n	80043e4 <HAL_UART_Transmit+0x74>
    }
    else
    {
      pdata8bits  = pData;
 80043dc:	68bb      	ldr	r3, [r7, #8]
 80043de:	61fb      	str	r3, [r7, #28]
      pdata16bits = NULL;
 80043e0:	2300      	movs	r3, #0
 80043e2:	61bb      	str	r3, [r7, #24]
    }

    while (huart->TxXferCount > 0U)
 80043e4:	e02e      	b.n	8004444 <HAL_UART_Transmit+0xd4>
    {
      if (UART_WaitOnFlagUntilTimeout(huart, UART_FLAG_TXE, RESET, tickstart, Timeout) != HAL_OK)
 80043e6:	683b      	ldr	r3, [r7, #0]
 80043e8:	9300      	str	r3, [sp, #0]
 80043ea:	697b      	ldr	r3, [r7, #20]
 80043ec:	2200      	movs	r2, #0
 80043ee:	2180      	movs	r1, #128	@ 0x80
 80043f0:	68f8      	ldr	r0, [r7, #12]
 80043f2:	f000 f848 	bl	8004486 <UART_WaitOnFlagUntilTimeout>
 80043f6:	4603      	mov	r3, r0
 80043f8:	2b00      	cmp	r3, #0
 80043fa:	d005      	beq.n	8004408 <HAL_UART_Transmit+0x98>
      {
        huart->gState = HAL_UART_STATE_READY;
 80043fc:	68fb      	ldr	r3, [r7, #12]
 80043fe:	2220      	movs	r2, #32
 8004400:	f883 2041 	strb.w	r2, [r3, #65]	@ 0x41

        return HAL_TIMEOUT;
 8004404:	2303      	movs	r3, #3
 8004406:	e03a      	b.n	800447e <HAL_UART_Transmit+0x10e>
      }
      if (pdata8bits == NULL)
 8004408:	69fb      	ldr	r3, [r7, #28]
 800440a:	2b00      	cmp	r3, #0
 800440c:	d10b      	bne.n	8004426 <HAL_UART_Transmit+0xb6>
      {
        huart->Instance->DR = (uint16_t)(*pdata16bits & 0x01FFU);
 800440e:	69bb      	ldr	r3, [r7, #24]
 8004410:	881b      	ldrh	r3, [r3, #0]
 8004412:	461a      	mov	r2, r3
 8004414:	68fb      	ldr	r3, [r7, #12]
 8004416:	681b      	ldr	r3, [r3, #0]
 8004418:	f3c2 0208 	ubfx	r2, r2, #0, #9
 800441c:	605a      	str	r2, [r3, #4]
        pdata16bits++;
 800441e:	69bb      	ldr	r3, [r7, #24]
 8004420:	3302      	adds	r3, #2
 8004422:	61bb      	str	r3, [r7, #24]
 8004424:	e007      	b.n	8004436 <HAL_UART_Transmit+0xc6>
      }
      else
      {
        huart->Instance->DR = (uint8_t)(*pdata8bits & 0xFFU);
 8004426:	69fb      	ldr	r3, [r7, #28]
 8004428:	781a      	ldrb	r2, [r3, #0]
 800442a:	68fb      	ldr	r3, [r7, #12]
 800442c:	681b      	ldr	r3, [r3, #0]
 800442e:	605a      	str	r2, [r3, #4]
        pdata8bits++;
 8004430:	69fb      	ldr	r3, [r7, #28]
 8004432:	3301      	adds	r3, #1
 8004434:	61fb      	str	r3, [r7, #28]
      }
      huart->TxXferCount--;
 8004436:	68fb      	ldr	r3, [r7, #12]
 8004438:	8cdb      	ldrh	r3, [r3, #38]	@ 0x26
 800443a:	b29b      	uxth	r3, r3
 800443c:	3b01      	subs	r3, #1
 800443e:	b29a      	uxth	r2, r3
 8004440:	68fb      	ldr	r3, [r7, #12]
 8004442:	84da      	strh	r2, [r3, #38]	@ 0x26
    while (huart->TxXferCount > 0U)
 8004444:	68fb      	ldr	r3, [r7, #12]
 8004446:	8cdb      	ldrh	r3, [r3, #38]	@ 0x26
 8004448:	b29b      	uxth	r3, r3
 800444a:	2b00      	cmp	r3, #0
 800444c:	d1cb      	bne.n	80043e6 <HAL_UART_Transmit+0x76>
    }

    if (UART_WaitOnFlagUntilTimeout(huart, UART_FLAG_TC, RESET, tickstart, Timeout) != HAL_OK)
 800444e:	683b      	ldr	r3, [r7, #0]
 8004450:	9300      	str	r3, [sp, #0]
 8004452:	697b      	ldr	r3, [r7, #20]
 8004454:	2200      	movs	r2, #0
 8004456:	2140      	movs	r1, #64	@ 0x40
 8004458:	68f8      	ldr	r0, [r7, #12]
 800445a:	f000 f814 	bl	8004486 <UART_WaitOnFlagUntilTimeout>
 800445e:	4603      	mov	r3, r0
 8004460:	2b00      	cmp	r3, #0
 8004462:	d005      	beq.n	8004470 <HAL_UART_Transmit+0x100>
    {
      huart->gState = HAL_UART_STATE_READY;
 8004464:	68fb      	ldr	r3, [r7, #12]
 8004466:	2220      	movs	r2, #32
 8004468:	f883 2041 	strb.w	r2, [r3, #65]	@ 0x41

      return HAL_TIMEOUT;
 800446c:	2303      	movs	r3, #3
 800446e:	e006      	b.n	800447e <HAL_UART_Transmit+0x10e>
    }

    /* At end of Tx process, restore huart->gState to Ready */
    huart->gState = HAL_UART_STATE_READY;
 8004470:	68fb      	ldr	r3, [r7, #12]
 8004472:	2220      	movs	r2, #32
 8004474:	f883 2041 	strb.w	r2, [r3, #65]	@ 0x41

    return HAL_OK;
 8004478:	2300      	movs	r3, #0
 800447a:	e000      	b.n	800447e <HAL_UART_Transmit+0x10e>
  }
  else
  {
    return HAL_BUSY;
 800447c:	2302      	movs	r3, #2
  }
}
 800447e:	4618      	mov	r0, r3
 8004480:	3720      	adds	r7, #32
 8004482:	46bd      	mov	sp, r7
 8004484:	bd80      	pop	{r7, pc}

08004486 <UART_WaitOnFlagUntilTimeout>:
  * @param  Timeout Timeout duration
  * @retval HAL status
  */
static HAL_StatusTypeDef UART_WaitOnFlagUntilTimeout(UART_HandleTypeDef *huart, uint32_t Flag, FlagStatus Status,
                                                     uint32_t Tickstart, uint32_t Timeout)
{
 8004486:	b580      	push	{r7, lr}
 8004488:	b086      	sub	sp, #24
 800448a:	af00      	add	r7, sp, #0
 800448c:	60f8      	str	r0, [r7, #12]
 800448e:	60b9      	str	r1, [r7, #8]
 8004490:	603b      	str	r3, [r7, #0]
 8004492:	4613      	mov	r3, r2
 8004494:	71fb      	strb	r3, [r7, #7]
  /* Wait until flag is set */
  while ((__HAL_UART_GET_FLAG(huart, Flag) ? SET : RESET) == Status)
 8004496:	e03b      	b.n	8004510 <UART_WaitOnFlagUntilTimeout+0x8a>
  {
    /* Check for the Timeout */
    if (Timeout != HAL_MAX_DELAY)
 8004498:	6a3b      	ldr	r3, [r7, #32]
 800449a:	f1b3 3fff 	cmp.w	r3, #4294967295
 800449e:	d037      	beq.n	8004510 <UART_WaitOnFlagUntilTimeout+0x8a>
    {
      if (((HAL_GetTick() - Tickstart) > Timeout) || (Timeout == 0U))
 80044a0:	f7fc ff94 	bl	80013cc <HAL_GetTick>
 80044a4:	4602      	mov	r2, r0
 80044a6:	683b      	ldr	r3, [r7, #0]
 80044a8:	1ad3      	subs	r3, r2, r3
 80044aa:	6a3a      	ldr	r2, [r7, #32]
 80044ac:	429a      	cmp	r2, r3
 80044ae:	d302      	bcc.n	80044b6 <UART_WaitOnFlagUntilTimeout+0x30>
 80044b0:	6a3b      	ldr	r3, [r7, #32]
 80044b2:	2b00      	cmp	r3, #0
 80044b4:	d101      	bne.n	80044ba <UART_WaitOnFlagUntilTimeout+0x34>
      {

        return HAL_TIMEOUT;
 80044b6:	2303      	movs	r3, #3
 80044b8:	e03a      	b.n	8004530 <UART_WaitOnFlagUntilTimeout+0xaa>
      }

      if ((READ_BIT(huart->Instance->CR1, USART_CR1_RE) != 0U) && (Flag != UART_FLAG_TXE) && (Flag != UART_FLAG_TC))
 80044ba:	68fb      	ldr	r3, [r7, #12]
 80044bc:	681b      	ldr	r3, [r3, #0]
 80044be:	68db      	ldr	r3, [r3, #12]
 80044c0:	f003 0304 	and.w	r3, r3, #4
 80044c4:	2b00      	cmp	r3, #0
 80044c6:	d023      	beq.n	8004510 <UART_WaitOnFlagUntilTimeout+0x8a>
 80044c8:	68bb      	ldr	r3, [r7, #8]
 80044ca:	2b80      	cmp	r3, #128	@ 0x80
 80044cc:	d020      	beq.n	8004510 <UART_WaitOnFlagUntilTimeout+0x8a>
 80044ce:	68bb      	ldr	r3, [r7, #8]
 80044d0:	2b40      	cmp	r3, #64	@ 0x40
 80044d2:	d01d      	beq.n	8004510 <UART_WaitOnFlagUntilTimeout+0x8a>
      {
        if (__HAL_UART_GET_FLAG(huart, UART_FLAG_ORE) == SET)
 80044d4:	68fb      	ldr	r3, [r7, #12]
 80044d6:	681b      	ldr	r3, [r3, #0]
 80044d8:	681b      	ldr	r3, [r3, #0]
 80044da:	f003 0308 	and.w	r3, r3, #8
 80044de:	2b08      	cmp	r3, #8
 80044e0:	d116      	bne.n	8004510 <UART_WaitOnFlagUntilTimeout+0x8a>
        {
          /* Clear Overrun Error flag*/
          __HAL_UART_CLEAR_OREFLAG(huart);
 80044e2:	2300      	movs	r3, #0
 80044e4:	617b      	str	r3, [r7, #20]
 80044e6:	68fb      	ldr	r3, [r7, #12]
 80044e8:	681b      	ldr	r3, [r3, #0]
 80044ea:	681b      	ldr	r3, [r3, #0]
 80044ec:	617b      	str	r3, [r7, #20]
 80044ee:	68fb      	ldr	r3, [r7, #12]
 80044f0:	681b      	ldr	r3, [r3, #0]
 80044f2:	685b      	ldr	r3, [r3, #4]
 80044f4:	617b      	str	r3, [r7, #20]
 80044f6:	697b      	ldr	r3, [r7, #20]

          /* Blocking error : transfer is aborted
          Set the UART state ready to be able to start again the process,
          Disable Rx Interrupts if ongoing */
          UART_EndRxTransfer(huart);
 80044f8:	68f8      	ldr	r0, [r7, #12]
 80044fa:	f000 f81d 	bl	8004538 <UART_EndRxTransfer>

          huart->ErrorCode = HAL_UART_ERROR_ORE;
 80044fe:	68fb      	ldr	r3, [r7, #12]
 8004500:	2208      	movs	r2, #8
 8004502:	645a      	str	r2, [r3, #68]	@ 0x44

          /* Process Unlocked */
          __HAL_UNLOCK(huart);
 8004504:	68fb      	ldr	r3, [r7, #12]
 8004506:	2200      	movs	r2, #0
 8004508:	f883 2040 	strb.w	r2, [r3, #64]	@ 0x40

          return HAL_ERROR;
 800450c:	2301      	movs	r3, #1
 800450e:	e00f      	b.n	8004530 <UART_WaitOnFlagUntilTimeout+0xaa>
  while ((__HAL_UART_GET_FLAG(huart, Flag) ? SET : RESET) == Status)
 8004510:	68fb      	ldr	r3, [r7, #12]
 8004512:	681b      	ldr	r3, [r3, #0]
 8004514:	681a      	ldr	r2, [r3, #0]
 8004516:	68bb      	ldr	r3, [r7, #8]
 8004518:	4013      	ands	r3, r2
 800451a:	68ba      	ldr	r2, [r7, #8]
 800451c:	429a      	cmp	r2, r3
 800451e:	bf0c      	ite	eq
 8004520:	2301      	moveq	r3, #1
 8004522:	2300      	movne	r3, #0
 8004524:	b2db      	uxtb	r3, r3
 8004526:	461a      	mov	r2, r3
 8004528:	79fb      	ldrb	r3, [r7, #7]
 800452a:	429a      	cmp	r2, r3
 800452c:	d0b4      	beq.n	8004498 <UART_WaitOnFlagUntilTimeout+0x12>
        }
      }
    }
  }
  return HAL_OK;
 800452e:	2300      	movs	r3, #0
}
 8004530:	4618      	mov	r0, r3
 8004532:	3718      	adds	r7, #24
 8004534:	46bd      	mov	sp, r7
 8004536:	bd80      	pop	{r7, pc}

08004538 <UART_EndRxTransfer>:
  * @brief  End ongoing Rx transfer on UART peripheral (following error detection or Reception completion).
  * @param  huart UART handle.
  * @retval None
  */
static void UART_EndRxTransfer(UART_HandleTypeDef *huart)
{
 8004538:	b480      	push	{r7}
 800453a:	b095      	sub	sp, #84	@ 0x54
 800453c:	af00      	add	r7, sp, #0
 800453e:	6078      	str	r0, [r7, #4]
  /* Disable RXNE, PE and ERR (Frame error, noise error, overrun error) interrupts */
  ATOMIC_CLEAR_BIT(huart->Instance->CR1, (USART_CR1_RXNEIE | USART_CR1_PEIE));
 8004540:	687b      	ldr	r3, [r7, #4]
 8004542:	681b      	ldr	r3, [r3, #0]
 8004544:	330c      	adds	r3, #12
 8004546:	637b      	str	r3, [r7, #52]	@ 0x34
 */
__STATIC_FORCEINLINE uint32_t __LDREXW(volatile uint32_t *addr)
{
    uint32_t result;

   __ASM volatile ("ldrex %0, %1" : "=r" (result) : "Q" (*addr) );
 8004548:	6b7b      	ldr	r3, [r7, #52]	@ 0x34
 800454a:	e853 3f00 	ldrex	r3, [r3]
 800454e:	633b      	str	r3, [r7, #48]	@ 0x30
   return(result);
 8004550:	6b3b      	ldr	r3, [r7, #48]	@ 0x30
 8004552:	f423 7390 	bic.w	r3, r3, #288	@ 0x120
 8004556:	64fb      	str	r3, [r7, #76]	@ 0x4c
 8004558:	687b      	ldr	r3, [r7, #4]
 800455a:	681b      	ldr	r3, [r3, #0]
 800455c:	330c      	adds	r3, #12
 800455e:	6cfa      	ldr	r2, [r7, #76]	@ 0x4c
 8004560:	643a      	str	r2, [r7, #64]	@ 0x40
 8004562:	63fb      	str	r3, [r7, #60]	@ 0x3c
 */
__STATIC_FORCEINLINE uint32_t __STREXW(uint32_t value, volatile uint32_t *addr)
{
   uint32_t result;

   __ASM volatile ("strex %0, %2, %1" : "=&r" (result), "=Q" (*addr) : "r" (value) );
 8004564:	6bf9      	ldr	r1, [r7, #60]	@ 0x3c
 8004566:	6c3a      	ldr	r2, [r7, #64]	@ 0x40
 8004568:	e841 2300 	strex	r3, r2, [r1]
 800456c:	63bb      	str	r3, [r7, #56]	@ 0x38
   return(result);
 800456e:	6bbb      	ldr	r3, [r7, #56]	@ 0x38
 8004570:	2b00      	cmp	r3, #0
 8004572:	d1e5      	bne.n	8004540 <UART_EndRxTransfer+0x8>
  ATOMIC_CLEAR_BIT(huart->Instance->CR3, USART_CR3_EIE);
 8004574:	687b      	ldr	r3, [r7, #4]
 8004576:	681b      	ldr	r3, [r3, #0]
 8004578:	3314      	adds	r3, #20
 800457a:	623b      	str	r3, [r7, #32]
   __ASM volatile ("ldrex %0, %1" : "=r" (result) : "Q" (*addr) );
 800457c:	6a3b      	ldr	r3, [r7, #32]
 800457e:	e853 3f00 	ldrex	r3, [r3]
 8004582:	61fb      	str	r3, [r7, #28]
   return(result);
 8004584:	69fb      	ldr	r3, [r7, #28]
 8004586:	f023 0301 	bic.w	r3, r3, #1
 800458a:	64bb      	str	r3, [r7, #72]	@ 0x48
 800458c:	687b      	ldr	r3, [r7, #4]
 800458e:	681b      	ldr	r3, [r3, #0]
 8004590:	3314      	adds	r3, #20
 8004592:	6cba      	ldr	r2, [r7, #72]	@ 0x48
 8004594:	62fa      	str	r2, [r7, #44]	@ 0x2c
 8004596:	62bb      	str	r3, [r7, #40]	@ 0x28
   __ASM volatile ("strex %0, %2, %1" : "=&r" (result), "=Q" (*addr) : "r" (value) );
 8004598:	6ab9      	ldr	r1, [r7, #40]	@ 0x28
 800459a:	6afa      	ldr	r2, [r7, #44]	@ 0x2c
 800459c:	e841 2300 	strex	r3, r2, [r1]
 80045a0:	627b      	str	r3, [r7, #36]	@ 0x24
   return(result);
 80045a2:	6a7b      	ldr	r3, [r7, #36]	@ 0x24
 80045a4:	2b00      	cmp	r3, #0
 80045a6:	d1e5      	bne.n	8004574 <UART_EndRxTransfer+0x3c>

  /* In case of reception waiting for IDLE event, disable also the IDLE IE interrupt source */
  if (huart->ReceptionType == HAL_UART_RECEPTION_TOIDLE)
 80045a8:	687b      	ldr	r3, [r7, #4]
 80045aa:	6b1b      	ldr	r3, [r3, #48]	@ 0x30
 80045ac:	2b01      	cmp	r3, #1
 80045ae:	d119      	bne.n	80045e4 <UART_EndRxTransfer+0xac>
  {
    ATOMIC_CLEAR_BIT(huart->Instance->CR1, USART_CR1_IDLEIE);
 80045b0:	687b      	ldr	r3, [r7, #4]
 80045b2:	681b      	ldr	r3, [r3, #0]
 80045b4:	330c      	adds	r3, #12
 80045b6:	60fb      	str	r3, [r7, #12]
   __ASM volatile ("ldrex %0, %1" : "=r" (result) : "Q" (*addr) );
 80045b8:	68fb      	ldr	r3, [r7, #12]
 80045ba:	e853 3f00 	ldrex	r3, [r3]
 80045be:	60bb      	str	r3, [r7, #8]
   return(result);
 80045c0:	68bb      	ldr	r3, [r7, #8]
 80045c2:	f023 0310 	bic.w	r3, r3, #16
 80045c6:	647b      	str	r3, [r7, #68]	@ 0x44
 80045c8:	687b      	ldr	r3, [r7, #4]
 80045ca:	681b      	ldr	r3, [r3, #0]
 80045cc:	330c      	adds	r3, #12
 80045ce:	6c7a      	ldr	r2, [r7, #68]	@ 0x44
 80045d0:	61ba      	str	r2, [r7, #24]
 80045d2:	617b      	str	r3, [r7, #20]
   __ASM volatile ("strex %0, %2, %1" : "=&r" (result), "=Q" (*addr) : "r" (value) );
 80045d4:	6979      	ldr	r1, [r7, #20]
 80045d6:	69ba      	ldr	r2, [r7, #24]
 80045d8:	e841 2300 	strex	r3, r2, [r1]
 80045dc:	613b      	str	r3, [r7, #16]
   return(result);
 80045de:	693b      	ldr	r3, [r7, #16]
 80045e0:	2b00      	cmp	r3, #0
 80045e2:	d1e5      	bne.n	80045b0 <UART_EndRxTransfer+0x78>
  }

  /* At end of Rx process, restore huart->RxState to Ready */
  huart->RxState = HAL_UART_STATE_READY;
 80045e4:	687b      	ldr	r3, [r7, #4]
 80045e6:	2220      	movs	r2, #32
 80045e8:	f883 2042 	strb.w	r2, [r3, #66]	@ 0x42
  huart->ReceptionType = HAL_UART_RECEPTION_STANDARD;
 80045ec:	687b      	ldr	r3, [r7, #4]
 80045ee:	2200      	movs	r2, #0
 80045f0:	631a      	str	r2, [r3, #48]	@ 0x30
}
 80045f2:	bf00      	nop
 80045f4:	3754      	adds	r7, #84	@ 0x54
 80045f6:	46bd      	mov	sp, r7
 80045f8:	bc80      	pop	{r7}
 80045fa:	4770      	bx	lr

080045fc <UART_SetConfig>:
  * @param  huart  Pointer to a UART_HandleTypeDef structure that contains
  *                the configuration information for the specified UART module.
  * @retval None
  */
static void UART_SetConfig(UART_HandleTypeDef *huart)
{
 80045fc:	b580      	push	{r7, lr}
 80045fe:	b084      	sub	sp, #16
 8004600:	af00      	add	r7, sp, #0
 8004602:	6078      	str	r0, [r7, #4]
  assert_param(IS_UART_MODE(huart->Init.Mode));

  /*-------------------------- USART CR2 Configuration -----------------------*/
  /* Configure the UART Stop Bits: Set STOP[13:12] bits
     according to huart->Init.StopBits value */
  MODIFY_REG(huart->Instance->CR2, USART_CR2_STOP, huart->Init.StopBits);
 8004604:	687b      	ldr	r3, [r7, #4]
 8004606:	681b      	ldr	r3, [r3, #0]
 8004608:	691b      	ldr	r3, [r3, #16]
 800460a:	f423 5140 	bic.w	r1, r3, #12288	@ 0x3000
 800460e:	687b      	ldr	r3, [r7, #4]
 8004610:	68da      	ldr	r2, [r3, #12]
 8004612:	687b      	ldr	r3, [r7, #4]
 8004614:	681b      	ldr	r3, [r3, #0]
 8004616:	430a      	orrs	r2, r1
 8004618:	611a      	str	r2, [r3, #16]
     Set PCE and PS bits according to huart->Init.Parity value
     Set TE and RE bits according to huart->Init.Mode value
     Set OVER8 bit according to huart->Init.OverSampling value */

#if defined(USART_CR1_OVER8)
  tmpreg = (uint32_t)huart->Init.WordLength | huart->Init.Parity | huart->Init.Mode | huart->Init.OverSampling;
 800461a:	687b      	ldr	r3, [r7, #4]
 800461c:	689a      	ldr	r2, [r3, #8]
 800461e:	687b      	ldr	r3, [r7, #4]
 8004620:	691b      	ldr	r3, [r3, #16]
 8004622:	431a      	orrs	r2, r3
 8004624:	687b      	ldr	r3, [r7, #4]
 8004626:	695b      	ldr	r3, [r3, #20]
 8004628:	431a      	orrs	r2, r3
 800462a:	687b      	ldr	r3, [r7, #4]
 800462c:	69db      	ldr	r3, [r3, #28]
 800462e:	4313      	orrs	r3, r2
 8004630:	60bb      	str	r3, [r7, #8]
  MODIFY_REG(huart->Instance->CR1,
 8004632:	687b      	ldr	r3, [r7, #4]
 8004634:	681b      	ldr	r3, [r3, #0]
 8004636:	68db      	ldr	r3, [r3, #12]
 8004638:	f423 4316 	bic.w	r3, r3, #38400	@ 0x9600
 800463c:	f023 030c 	bic.w	r3, r3, #12
 8004640:	687a      	ldr	r2, [r7, #4]
 8004642:	6812      	ldr	r2, [r2, #0]
 8004644:	68b9      	ldr	r1, [r7, #8]
 8004646:	430b      	orrs	r3, r1
 8004648:	60d3      	str	r3, [r2, #12]
             tmpreg);
#endif /* USART_CR1_OVER8 */

  /*-------------------------- USART CR3 Configuration -----------------------*/
  /* Configure the UART HFC: Set CTSE and RTSE bits according to huart->Init.HwFlowCtl value */
  MODIFY_REG(huart->Instance->CR3, (USART_CR3_RTSE | USART_CR3_CTSE), huart->Init.HwFlowCtl);
 800464a:	687b      	ldr	r3, [r7, #4]
 800464c:	681b      	ldr	r3, [r3, #0]
 800464e:	695b      	ldr	r3, [r3, #20]
 8004650:	f423 7140 	bic.w	r1, r3, #768	@ 0x300
 8004654:	687b      	ldr	r3, [r7, #4]
 8004656:	699a      	ldr	r2, [r3, #24]
 8004658:	687b      	ldr	r3, [r7, #4]
 800465a:	681b      	ldr	r3, [r3, #0]
 800465c:	430a      	orrs	r2, r1
 800465e:	615a      	str	r2, [r3, #20]


  if(huart->Instance == USART1)
 8004660:	687b      	ldr	r3, [r7, #4]
 8004662:	681b      	ldr	r3, [r3, #0]
 8004664:	4a55      	ldr	r2, [pc, #340]	@ (80047bc <UART_SetConfig+0x1c0>)
 8004666:	4293      	cmp	r3, r2
 8004668:	d103      	bne.n	8004672 <UART_SetConfig+0x76>
  {
    pclk = HAL_RCC_GetPCLK2Freq();
 800466a:	f7ff fdff 	bl	800426c <HAL_RCC_GetPCLK2Freq>
 800466e:	60f8      	str	r0, [r7, #12]
 8004670:	e002      	b.n	8004678 <UART_SetConfig+0x7c>
  }
  else
  {
    pclk = HAL_RCC_GetPCLK1Freq();
 8004672:	f7ff fde7 	bl	8004244 <HAL_RCC_GetPCLK1Freq>
 8004676:	60f8      	str	r0, [r7, #12]
  }

  /*-------------------------- USART BRR Configuration ---------------------*/
#if defined(USART_CR1_OVER8)
  if (huart->Init.OverSampling == UART_OVERSAMPLING_8)
 8004678:	687b      	ldr	r3, [r7, #4]
 800467a:	69db      	ldr	r3, [r3, #28]
 800467c:	f5b3 4f00 	cmp.w	r3, #32768	@ 0x8000
 8004680:	d14c      	bne.n	800471c <UART_SetConfig+0x120>
  {
    huart->Instance->BRR = UART_BRR_SAMPLING8(pclk, huart->Init.BaudRate);
 8004682:	68fa      	ldr	r2, [r7, #12]
 8004684:	4613      	mov	r3, r2
 8004686:	009b      	lsls	r3, r3, #2
 8004688:	4413      	add	r3, r2
 800468a:	009a      	lsls	r2, r3, #2
 800468c:	441a      	add	r2, r3
 800468e:	687b      	ldr	r3, [r7, #4]
 8004690:	685b      	ldr	r3, [r3, #4]
 8004692:	005b      	lsls	r3, r3, #1
 8004694:	fbb2 f3f3 	udiv	r3, r2, r3
 8004698:	4a49      	ldr	r2, [pc, #292]	@ (80047c0 <UART_SetConfig+0x1c4>)
 800469a:	fba2 2303 	umull	r2, r3, r2, r3
 800469e:	095b      	lsrs	r3, r3, #5
 80046a0:	0119      	lsls	r1, r3, #4
 80046a2:	68fa      	ldr	r2, [r7, #12]
 80046a4:	4613      	mov	r3, r2
 80046a6:	009b      	lsls	r3, r3, #2
 80046a8:	4413      	add	r3, r2
 80046aa:	009a      	lsls	r2, r3, #2
 80046ac:	441a      	add	r2, r3
 80046ae:	687b      	ldr	r3, [r7, #4]
 80046b0:	685b      	ldr	r3, [r3, #4]
 80046b2:	005b      	lsls	r3, r3, #1
 80046b4:	fbb2 f2f3 	udiv	r2, r2, r3
 80046b8:	4b41      	ldr	r3, [pc, #260]	@ (80047c0 <UART_SetConfig+0x1c4>)
 80046ba:	fba3 0302 	umull	r0, r3, r3, r2
 80046be:	095b      	lsrs	r3, r3, #5
 80046c0:	2064      	movs	r0, #100	@ 0x64
 80046c2:	fb00 f303 	mul.w	r3, r0, r3
 80046c6:	1ad3      	subs	r3, r2, r3
 80046c8:	00db      	lsls	r3, r3, #3
 80046ca:	3332      	adds	r3, #50	@ 0x32
 80046cc:	4a3c      	ldr	r2, [pc, #240]	@ (80047c0 <UART_SetConfig+0x1c4>)
 80046ce:	fba2 2303 	umull	r2, r3, r2, r3
 80046d2:	095b      	lsrs	r3, r3, #5
 80046d4:	005b      	lsls	r3, r3, #1
 80046d6:	f403 73f8 	and.w	r3, r3, #496	@ 0x1f0
 80046da:	4419      	add	r1, r3
 80046dc:	68fa      	ldr	r2, [r7, #12]
 80046de:	4613      	mov	r3, r2
 80046e0:	009b      	lsls	r3, r3, #2
 80046e2:	4413      	add	r3, r2
 80046e4:	009a      	lsls	r2, r3, #2
 80046e6:	441a      	add	r2, r3
 80046e8:	687b      	ldr	r3, [r7, #4]
 80046ea:	685b      	ldr	r3, [r3, #4]
 80046ec:	005b      	lsls	r3, r3, #1
 80046ee:	fbb2 f2f3 	udiv	r2, r2, r3
 80046f2:	4b33      	ldr	r3, [pc, #204]	@ (80047c0 <UART_SetConfig+0x1c4>)
 80046f4:	fba3 0302 	umull	r0, r3, r3, r2
 80046f8:	095b      	lsrs	r3, r3, #5
 80046fa:	2064      	movs	r0, #100	@ 0x64
 80046fc:	fb00 f303 	mul.w	r3, r0, r3
 8004700:	1ad3      	subs	r3, r2, r3
 8004702:	00db      	lsls	r3, r3, #3
 8004704:	3332      	adds	r3, #50	@ 0x32
 8004706:	4a2e      	ldr	r2, [pc, #184]	@ (80047c0 <UART_SetConfig+0x1c4>)
 8004708:	fba2 2303 	umull	r2, r3, r2, r3
 800470c:	095b      	lsrs	r3, r3, #5
 800470e:	f003 0207 	and.w	r2, r3, #7
 8004712:	687b      	ldr	r3, [r7, #4]
 8004714:	681b      	ldr	r3, [r3, #0]
 8004716:	440a      	add	r2, r1
 8004718:	609a      	str	r2, [r3, #8]
    huart->Instance->BRR = UART_BRR_SAMPLING16(pclk, huart->Init.BaudRate);
  }
#else
  huart->Instance->BRR = UART_BRR_SAMPLING16(pclk, huart->Init.BaudRate);
#endif /* USART_CR1_OVER8 */
}
 800471a:	e04a      	b.n	80047b2 <UART_SetConfig+0x1b6>
    huart->Instance->BRR = UART_BRR_SAMPLING16(pclk, huart->Init.BaudRate);
 800471c:	68fa      	ldr	r2, [r7, #12]
 800471e:	4613      	mov	r3, r2
 8004720:	009b      	lsls	r3, r3, #2
 8004722:	4413      	add	r3, r2
 8004724:	009a      	lsls	r2, r3, #2
 8004726:	441a      	add	r2, r3
 8004728:	687b      	ldr	r3, [r7, #4]
 800472a:	685b      	ldr	r3, [r3, #4]
 800472c:	009b      	lsls	r3, r3, #2
 800472e:	fbb2 f3f3 	udiv	r3, r2, r3
 8004732:	4a23      	ldr	r2, [pc, #140]	@ (80047c0 <UART_SetConfig+0x1c4>)
 8004734:	fba2 2303 	umull	r2, r3, r2, r3
 8004738:	095b      	lsrs	r3, r3, #5
 800473a:	0119      	lsls	r1, r3, #4
 800473c:	68fa      	ldr	r2, [r7, #12]
 800473e:	4613      	mov	r3, r2
 8004740:	009b      	lsls	r3, r3, #2
 8004742:	4413      	add	r3, r2
 8004744:	009a      	lsls	r2, r3, #2
 8004746:	441a      	add	r2, r3
 8004748:	687b      	ldr	r3, [r7, #4]
 800474a:	685b      	ldr	r3, [r3, #4]
 800474c:	009b      	lsls	r3, r3, #2
 800474e:	fbb2 f2f3 	udiv	r2, r2, r3
 8004752:	4b1b      	ldr	r3, [pc, #108]	@ (80047c0 <UART_SetConfig+0x1c4>)
 8004754:	fba3 0302 	umull	r0, r3, r3, r2
 8004758:	095b      	lsrs	r3, r3, #5
 800475a:	2064      	movs	r0, #100	@ 0x64
 800475c:	fb00 f303 	mul.w	r3, r0, r3
 8004760:	1ad3      	subs	r3, r2, r3
 8004762:	011b      	lsls	r3, r3, #4
 8004764:	3332      	adds	r3, #50	@ 0x32
 8004766:	4a16      	ldr	r2, [pc, #88]	@ (80047c0 <UART_SetConfig+0x1c4>)
 8004768:	fba2 2303 	umull	r2, r3, r2, r3
 800476c:	095b      	lsrs	r3, r3, #5
 800476e:	f003 03f0 	and.w	r3, r3, #240	@ 0xf0
 8004772:	4419      	add	r1, r3
 8004774:	68fa      	ldr	r2, [r7, #12]
 8004776:	4613      	mov	r3, r2
 8004778:	009b      	lsls	r3, r3, #2
 800477a:	4413      	add	r3, r2
 800477c:	009a      	lsls	r2, r3, #2
 800477e:	441a      	add	r2, r3
 8004780:	687b      	ldr	r3, [r7, #4]
 8004782:	685b      	ldr	r3, [r3, #4]
 8004784:	009b      	lsls	r3, r3, #2
 8004786:	fbb2 f2f3 	udiv	r2, r2, r3
 800478a:	4b0d      	ldr	r3, [pc, #52]	@ (80047c0 <UART_SetConfig+0x1c4>)
 800478c:	fba3 0302 	umull	r0, r3, r3, r2
 8004790:	095b      	lsrs	r3, r3, #5
 8004792:	2064      	movs	r0, #100	@ 0x64
 8004794:	fb00 f303 	mul.w	r3, r0, r3
 8004798:	1ad3      	subs	r3, r2, r3
 800479a:	011b      	lsls	r3, r3, #4
 800479c:	3332      	adds	r3, #50	@ 0x32
 800479e:	4a08      	ldr	r2, [pc, #32]	@ (80047c0 <UART_SetConfig+0x1c4>)
 80047a0:	fba2 2303 	umull	r2, r3, r2, r3
 80047a4:	095b      	lsrs	r3, r3, #5
 80047a6:	f003 020f 	and.w	r2, r3, #15
 80047aa:	687b      	ldr	r3, [r7, #4]
 80047ac:	681b      	ldr	r3, [r3, #0]
 80047ae:	440a      	add	r2, r1
 80047b0:	609a      	str	r2, [r3, #8]
}
 80047b2:	bf00      	nop
 80047b4:	3710      	adds	r7, #16
 80047b6:	46bd      	mov	sp, r7
 80047b8:	bd80      	pop	{r7, pc}
 80047ba:	bf00      	nop
 80047bc:	40013800 	.word	0x40013800
 80047c0:	51eb851f 	.word	0x51eb851f

080047c4 <makeFreeRtosPriority>:

extern void xPortSysTickHandler(void);

/* Convert from CMSIS type osPriority to FreeRTOS priority number */
static unsigned portBASE_TYPE makeFreeRtosPriority (osPriority priority)
{
 80047c4:	b480      	push	{r7}
 80047c6:	b085      	sub	sp, #20
 80047c8:	af00      	add	r7, sp, #0
 80047ca:	4603      	mov	r3, r0
 80047cc:	80fb      	strh	r3, [r7, #6]
  unsigned portBASE_TYPE fpriority = tskIDLE_PRIORITY;
 80047ce:	2300      	movs	r3, #0
 80047d0:	60fb      	str	r3, [r7, #12]
  
  if (priority != osPriorityError) {
 80047d2:	f9b7 3006 	ldrsh.w	r3, [r7, #6]
 80047d6:	2b84      	cmp	r3, #132	@ 0x84
 80047d8:	d005      	beq.n	80047e6 <makeFreeRtosPriority+0x22>
    fpriority += (priority - osPriorityIdle);
 80047da:	f9b7 2006 	ldrsh.w	r2, [r7, #6]
 80047de:	68fb      	ldr	r3, [r7, #12]
 80047e0:	4413      	add	r3, r2
 80047e2:	3303      	adds	r3, #3
 80047e4:	60fb      	str	r3, [r7, #12]
  }
  
  return fpriority;
 80047e6:	68fb      	ldr	r3, [r7, #12]
}
 80047e8:	4618      	mov	r0, r3
 80047ea:	3714      	adds	r7, #20
 80047ec:	46bd      	mov	sp, r7
 80047ee:	bc80      	pop	{r7}
 80047f0:	4770      	bx	lr

080047f2 <osKernelStart>:
* @param  argument      pointer that is passed to the thread function as start argument.
* @retval status code that indicates the execution status of the function
* @note   MUST REMAIN UNCHANGED: \b osKernelStart shall be consistent in every CMSIS-RTOS.
*/
osStatus osKernelStart (void)
{
 80047f2:	b580      	push	{r7, lr}
 80047f4:	af00      	add	r7, sp, #0
  vTaskStartScheduler();
 80047f6:	f000 fadf 	bl	8004db8 <vTaskStartScheduler>
  
  return osOK;
 80047fa:	2300      	movs	r3, #0
}
 80047fc:	4618      	mov	r0, r3
 80047fe:	bd80      	pop	{r7, pc}

08004800 <osThreadCreate>:
* @param  argument      pointer that is passed to the thread function as start argument.
* @retval thread ID for reference by other functions or NULL in case of error.
* @note   MUST REMAIN UNCHANGED: \b osThreadCreate shall be consistent in every CMSIS-RTOS.
*/
osThreadId osThreadCreate (const osThreadDef_t *thread_def, void *argument)
{
 8004800:	b5f0      	push	{r4, r5, r6, r7, lr}
 8004802:	b089      	sub	sp, #36	@ 0x24
 8004804:	af04      	add	r7, sp, #16
 8004806:	6078      	str	r0, [r7, #4]
 8004808:	6039      	str	r1, [r7, #0]
  TaskHandle_t handle;
  
#if( configSUPPORT_STATIC_ALLOCATION == 1 ) &&  ( configSUPPORT_DYNAMIC_ALLOCATION == 1 )
  if((thread_def->buffer != NULL) && (thread_def->controlblock != NULL)) {
 800480a:	687b      	ldr	r3, [r7, #4]
 800480c:	695b      	ldr	r3, [r3, #20]
 800480e:	2b00      	cmp	r3, #0
 8004810:	d020      	beq.n	8004854 <osThreadCreate+0x54>
 8004812:	687b      	ldr	r3, [r7, #4]
 8004814:	699b      	ldr	r3, [r3, #24]
 8004816:	2b00      	cmp	r3, #0
 8004818:	d01c      	beq.n	8004854 <osThreadCreate+0x54>
    handle = xTaskCreateStatic((TaskFunction_t)thread_def->pthread,(const portCHAR *)thread_def->name,
 800481a:	687b      	ldr	r3, [r7, #4]
 800481c:	685c      	ldr	r4, [r3, #4]
 800481e:	687b      	ldr	r3, [r7, #4]
 8004820:	681d      	ldr	r5, [r3, #0]
              thread_def->stacksize, argument, makeFreeRtosPriority(thread_def->tpriority),
 8004822:	687b      	ldr	r3, [r7, #4]
 8004824:	691e      	ldr	r6, [r3, #16]
 8004826:	687b      	ldr	r3, [r7, #4]
 8004828:	f9b3 3008 	ldrsh.w	r3, [r3, #8]
    handle = xTaskCreateStatic((TaskFunction_t)thread_def->pthread,(const portCHAR *)thread_def->name,
 800482c:	4618      	mov	r0, r3
 800482e:	f7ff ffc9 	bl	80047c4 <makeFreeRtosPriority>
 8004832:	4601      	mov	r1, r0
              thread_def->buffer, thread_def->controlblock);
 8004834:	687b      	ldr	r3, [r7, #4]
 8004836:	695b      	ldr	r3, [r3, #20]
 8004838:	687a      	ldr	r2, [r7, #4]
 800483a:	6992      	ldr	r2, [r2, #24]
    handle = xTaskCreateStatic((TaskFunction_t)thread_def->pthread,(const portCHAR *)thread_def->name,
 800483c:	9202      	str	r2, [sp, #8]
 800483e:	9301      	str	r3, [sp, #4]
 8004840:	9100      	str	r1, [sp, #0]
 8004842:	683b      	ldr	r3, [r7, #0]
 8004844:	4632      	mov	r2, r6
 8004846:	4629      	mov	r1, r5
 8004848:	4620      	mov	r0, r4
 800484a:	f000 f8e8 	bl	8004a1e <xTaskCreateStatic>
 800484e:	4603      	mov	r3, r0
 8004850:	60fb      	str	r3, [r7, #12]
 8004852:	e01c      	b.n	800488e <osThreadCreate+0x8e>
  }
  else {
    if (xTaskCreate((TaskFunction_t)thread_def->pthread,(const portCHAR *)thread_def->name,
 8004854:	687b      	ldr	r3, [r7, #4]
 8004856:	685c      	ldr	r4, [r3, #4]
 8004858:	687b      	ldr	r3, [r7, #4]
 800485a:	681d      	ldr	r5, [r3, #0]
              thread_def->stacksize, argument, makeFreeRtosPriority(thread_def->tpriority),
 800485c:	687b      	ldr	r3, [r7, #4]
 800485e:	691b      	ldr	r3, [r3, #16]
    if (xTaskCreate((TaskFunction_t)thread_def->pthread,(const portCHAR *)thread_def->name,
 8004860:	b29e      	uxth	r6, r3
              thread_def->stacksize, argument, makeFreeRtosPriority(thread_def->tpriority),
 8004862:	687b      	ldr	r3, [r7, #4]
 8004864:	f9b3 3008 	ldrsh.w	r3, [r3, #8]
    if (xTaskCreate((TaskFunction_t)thread_def->pthread,(const portCHAR *)thread_def->name,
 8004868:	4618      	mov	r0, r3
 800486a:	f7ff ffab 	bl	80047c4 <makeFreeRtosPriority>
 800486e:	4602      	mov	r2, r0
 8004870:	f107 030c 	add.w	r3, r7, #12
 8004874:	9301      	str	r3, [sp, #4]
 8004876:	9200      	str	r2, [sp, #0]
 8004878:	683b      	ldr	r3, [r7, #0]
 800487a:	4632      	mov	r2, r6
 800487c:	4629      	mov	r1, r5
 800487e:	4620      	mov	r0, r4
 8004880:	f000 f92d 	bl	8004ade <xTaskCreate>
 8004884:	4603      	mov	r3, r0
 8004886:	2b01      	cmp	r3, #1
 8004888:	d001      	beq.n	800488e <osThreadCreate+0x8e>
              &handle) != pdPASS)  {
      return NULL;
 800488a:	2300      	movs	r3, #0
 800488c:	e000      	b.n	8004890 <osThreadCreate+0x90>
                   &handle) != pdPASS)  {
    return NULL;
  }     
#endif
  
  return handle;
 800488e:	68fb      	ldr	r3, [r7, #12]
}
 8004890:	4618      	mov	r0, r3
 8004892:	3714      	adds	r7, #20
 8004894:	46bd      	mov	sp, r7
 8004896:	bdf0      	pop	{r4, r5, r6, r7, pc}

08004898 <osDelay>:
* @brief   Wait for Timeout (Time Delay)
* @param   millisec      time delay value
* @retval  status code that indicates the execution status of the function.
*/
osStatus osDelay (uint32_t millisec)
{
 8004898:	b580      	push	{r7, lr}
 800489a:	b084      	sub	sp, #16
 800489c:	af00      	add	r7, sp, #0
 800489e:	6078      	str	r0, [r7, #4]
#if INCLUDE_vTaskDelay
  TickType_t ticks = millisec / portTICK_PERIOD_MS;
 80048a0:	687b      	ldr	r3, [r7, #4]
 80048a2:	60fb      	str	r3, [r7, #12]
  
  vTaskDelay(ticks ? ticks : 1);          /* Minimum delay = 1 tick */
 80048a4:	68fb      	ldr	r3, [r7, #12]
 80048a6:	2b00      	cmp	r3, #0
 80048a8:	d001      	beq.n	80048ae <osDelay+0x16>
 80048aa:	68fb      	ldr	r3, [r7, #12]
 80048ac:	e000      	b.n	80048b0 <osDelay+0x18>
 80048ae:	2301      	movs	r3, #1
 80048b0:	4618      	mov	r0, r3
 80048b2:	f000 fa4b 	bl	8004d4c <vTaskDelay>
  
  return osOK;
 80048b6:	2300      	movs	r3, #0
#else
  (void) millisec;
  
  return osErrorResource;
#endif
}
 80048b8:	4618      	mov	r0, r3
 80048ba:	3710      	adds	r7, #16
 80048bc:	46bd      	mov	sp, r7
 80048be:	bd80      	pop	{r7, pc}

080048c0 <vListInitialise>:
/*-----------------------------------------------------------
 * PUBLIC LIST API documented in list.h
 *----------------------------------------------------------*/

void vListInitialise( List_t * const pxList )
{
 80048c0:	b480      	push	{r7}
 80048c2:	b083      	sub	sp, #12
 80048c4:	af00      	add	r7, sp, #0
 80048c6:	6078      	str	r0, [r7, #4]
	/* The list structure contains a list item which is used to mark the
	end of the list.  To initialise the list the list end is inserted
	as the only list entry. */
	pxList->pxIndex = ( ListItem_t * ) &( pxList->xListEnd );			/*lint !e826 !e740 !e9087 The mini list structure is used as the list end to save RAM.  This is checked and valid. */
 80048c8:	687b      	ldr	r3, [r7, #4]
 80048ca:	f103 0208 	add.w	r2, r3, #8
 80048ce:	687b      	ldr	r3, [r7, #4]
 80048d0:	605a      	str	r2, [r3, #4]

	/* The list end value is the highest possible value in the list to
	ensure it remains at the end of the list. */
	pxList->xListEnd.xItemValue = portMAX_DELAY;
 80048d2:	687b      	ldr	r3, [r7, #4]
 80048d4:	f04f 32ff 	mov.w	r2, #4294967295
 80048d8:	609a      	str	r2, [r3, #8]

	/* The list end next and previous pointers point to itself so we know
	when the list is empty. */
	pxList->xListEnd.pxNext = ( ListItem_t * ) &( pxList->xListEnd );	/*lint !e826 !e740 !e9087 The mini list structure is used as the list end to save RAM.  This is checked and valid. */
 80048da:	687b      	ldr	r3, [r7, #4]
 80048dc:	f103 0208 	add.w	r2, r3, #8
 80048e0:	687b      	ldr	r3, [r7, #4]
 80048e2:	60da      	str	r2, [r3, #12]
	pxList->xListEnd.pxPrevious = ( ListItem_t * ) &( pxList->xListEnd );/*lint !e826 !e740 !e9087 The mini list structure is used as the list end to save RAM.  This is checked and valid. */
 80048e4:	687b      	ldr	r3, [r7, #4]
 80048e6:	f103 0208 	add.w	r2, r3, #8
 80048ea:	687b      	ldr	r3, [r7, #4]
 80048ec:	611a      	str	r2, [r3, #16]

	pxList->uxNumberOfItems = ( UBaseType_t ) 0U;
 80048ee:	687b      	ldr	r3, [r7, #4]
 80048f0:	2200      	movs	r2, #0
 80048f2:	601a      	str	r2, [r3, #0]

	/* Write known values into the list if
	configUSE_LIST_DATA_INTEGRITY_CHECK_BYTES is set to 1. */
	listSET_LIST_INTEGRITY_CHECK_1_VALUE( pxList );
	listSET_LIST_INTEGRITY_CHECK_2_VALUE( pxList );
}
 80048f4:	bf00      	nop
 80048f6:	370c      	adds	r7, #12
 80048f8:	46bd      	mov	sp, r7
 80048fa:	bc80      	pop	{r7}
 80048fc:	4770      	bx	lr

080048fe <vListInitialiseItem>:
/*-----------------------------------------------------------*/

void vListInitialiseItem( ListItem_t * const pxItem )
{
 80048fe:	b480      	push	{r7}
 8004900:	b083      	sub	sp, #12
 8004902:	af00      	add	r7, sp, #0
 8004904:	6078      	str	r0, [r7, #4]
	/* Make sure the list item is not recorded as being on a list. */
	pxItem->pxContainer = NULL;
 8004906:	687b      	ldr	r3, [r7, #4]
 8004908:	2200      	movs	r2, #0
 800490a:	611a      	str	r2, [r3, #16]

	/* Write known values into the list item if
	configUSE_LIST_DATA_INTEGRITY_CHECK_BYTES is set to 1. */
	listSET_FIRST_LIST_ITEM_INTEGRITY_CHECK_VALUE( pxItem );
	listSET_SECOND_LIST_ITEM_INTEGRITY_CHECK_VALUE( pxItem );
}
 800490c:	bf00      	nop
 800490e:	370c      	adds	r7, #12
 8004910:	46bd      	mov	sp, r7
 8004912:	bc80      	pop	{r7}
 8004914:	4770      	bx	lr

08004916 <vListInsertEnd>:
/*-----------------------------------------------------------*/

void vListInsertEnd( List_t * const pxList, ListItem_t * const pxNewListItem )
{
 8004916:	b480      	push	{r7}
 8004918:	b085      	sub	sp, #20
 800491a:	af00      	add	r7, sp, #0
 800491c:	6078      	str	r0, [r7, #4]
 800491e:	6039      	str	r1, [r7, #0]
ListItem_t * const pxIndex = pxList->pxIndex;
 8004920:	687b      	ldr	r3, [r7, #4]
 8004922:	685b      	ldr	r3, [r3, #4]
 8004924:	60fb      	str	r3, [r7, #12]
	listTEST_LIST_ITEM_INTEGRITY( pxNewListItem );

	/* Insert a new list item into pxList, but rather than sort the list,
	makes the new list item the last item to be removed by a call to
	listGET_OWNER_OF_NEXT_ENTRY(). */
	pxNewListItem->pxNext = pxIndex;
 8004926:	683b      	ldr	r3, [r7, #0]
 8004928:	68fa      	ldr	r2, [r7, #12]
 800492a:	605a      	str	r2, [r3, #4]
	pxNewListItem->pxPrevious = pxIndex->pxPrevious;
 800492c:	68fb      	ldr	r3, [r7, #12]
 800492e:	689a      	ldr	r2, [r3, #8]
 8004930:	683b      	ldr	r3, [r7, #0]
 8004932:	609a      	str	r2, [r3, #8]

	/* Only used during decision coverage testing. */
	mtCOVERAGE_TEST_DELAY();

	pxIndex->pxPrevious->pxNext = pxNewListItem;
 8004934:	68fb      	ldr	r3, [r7, #12]
 8004936:	689b      	ldr	r3, [r3, #8]
 8004938:	683a      	ldr	r2, [r7, #0]
 800493a:	605a      	str	r2, [r3, #4]
	pxIndex->pxPrevious = pxNewListItem;
 800493c:	68fb      	ldr	r3, [r7, #12]
 800493e:	683a      	ldr	r2, [r7, #0]
 8004940:	609a      	str	r2, [r3, #8]

	/* Remember which list the item is in. */
	pxNewListItem->pxContainer = pxList;
 8004942:	683b      	ldr	r3, [r7, #0]
 8004944:	687a      	ldr	r2, [r7, #4]
 8004946:	611a      	str	r2, [r3, #16]

	( pxList->uxNumberOfItems )++;
 8004948:	687b      	ldr	r3, [r7, #4]
 800494a:	681b      	ldr	r3, [r3, #0]
 800494c:	1c5a      	adds	r2, r3, #1
 800494e:	687b      	ldr	r3, [r7, #4]
 8004950:	601a      	str	r2, [r3, #0]
}
 8004952:	bf00      	nop
 8004954:	3714      	adds	r7, #20
 8004956:	46bd      	mov	sp, r7
 8004958:	bc80      	pop	{r7}
 800495a:	4770      	bx	lr

0800495c <vListInsert>:
/*-----------------------------------------------------------*/

void vListInsert( List_t * const pxList, ListItem_t * const pxNewListItem )
{
 800495c:	b480      	push	{r7}
 800495e:	b085      	sub	sp, #20
 8004960:	af00      	add	r7, sp, #0
 8004962:	6078      	str	r0, [r7, #4]
 8004964:	6039      	str	r1, [r7, #0]
ListItem_t *pxIterator;
const TickType_t xValueOfInsertion = pxNewListItem->xItemValue;
 8004966:	683b      	ldr	r3, [r7, #0]
 8004968:	681b      	ldr	r3, [r3, #0]
 800496a:	60bb      	str	r3, [r7, #8]
	new list item should be placed after it.  This ensures that TCBs which are
	stored in ready lists (all of which have the same xItemValue value) get a
	share of the CPU.  However, if the xItemValue is the same as the back marker
	the iteration loop below will not end.  Therefore the value is checked
	first, and the algorithm slightly modified if necessary. */
	if( xValueOfInsertion == portMAX_DELAY )
 800496c:	68bb      	ldr	r3, [r7, #8]
 800496e:	f1b3 3fff 	cmp.w	r3, #4294967295
 8004972:	d103      	bne.n	800497c <vListInsert+0x20>
	{
		pxIterator = pxList->xListEnd.pxPrevious;
 8004974:	687b      	ldr	r3, [r7, #4]
 8004976:	691b      	ldr	r3, [r3, #16]
 8004978:	60fb      	str	r3, [r7, #12]
 800497a:	e00c      	b.n	8004996 <vListInsert+0x3a>
			4) Using a queue or semaphore before it has been initialised or
			   before the scheduler has been started (are interrupts firing
			   before vTaskStartScheduler() has been called?).
		**********************************************************************/

		for( pxIterator = ( ListItem_t * ) &( pxList->xListEnd ); pxIterator->pxNext->xItemValue <= xValueOfInsertion; pxIterator = pxIterator->pxNext ) /*lint !e826 !e740 !e9087 The mini list structure is used as the list end to save RAM.  This is checked and valid. *//*lint !e440 The iterator moves to a different value, not xValueOfInsertion. */
 800497c:	687b      	ldr	r3, [r7, #4]
 800497e:	3308      	adds	r3, #8
 8004980:	60fb      	str	r3, [r7, #12]
 8004982:	e002      	b.n	800498a <vListInsert+0x2e>
 8004984:	68fb      	ldr	r3, [r7, #12]
 8004986:	685b      	ldr	r3, [r3, #4]
 8004988:	60fb      	str	r3, [r7, #12]
 800498a:	68fb      	ldr	r3, [r7, #12]
 800498c:	685b      	ldr	r3, [r3, #4]
 800498e:	681b      	ldr	r3, [r3, #0]
 8004990:	68ba      	ldr	r2, [r7, #8]
 8004992:	429a      	cmp	r2, r3
 8004994:	d2f6      	bcs.n	8004984 <vListInsert+0x28>
			/* There is nothing to do here, just iterating to the wanted
			insertion position. */
		}
	}

	pxNewListItem->pxNext = pxIterator->pxNext;
 8004996:	68fb      	ldr	r3, [r7, #12]
 8004998:	685a      	ldr	r2, [r3, #4]
 800499a:	683b      	ldr	r3, [r7, #0]
 800499c:	605a      	str	r2, [r3, #4]
	pxNewListItem->pxNext->pxPrevious = pxNewListItem;
 800499e:	683b      	ldr	r3, [r7, #0]
 80049a0:	685b      	ldr	r3, [r3, #4]
 80049a2:	683a      	ldr	r2, [r7, #0]
 80049a4:	609a      	str	r2, [r3, #8]
	pxNewListItem->pxPrevious = pxIterator;
 80049a6:	683b      	ldr	r3, [r7, #0]
 80049a8:	68fa      	ldr	r2, [r7, #12]
 80049aa:	609a      	str	r2, [r3, #8]
	pxIterator->pxNext = pxNewListItem;
 80049ac:	68fb      	ldr	r3, [r7, #12]
 80049ae:	683a      	ldr	r2, [r7, #0]
 80049b0:	605a      	str	r2, [r3, #4]

	/* Remember which list the item is in.  This allows fast removal of the
	item later. */
	pxNewListItem->pxContainer = pxList;
 80049b2:	683b      	ldr	r3, [r7, #0]
 80049b4:	687a      	ldr	r2, [r7, #4]
 80049b6:	611a      	str	r2, [r3, #16]

	( pxList->uxNumberOfItems )++;
 80049b8:	687b      	ldr	r3, [r7, #4]
 80049ba:	681b      	ldr	r3, [r3, #0]
 80049bc:	1c5a      	adds	r2, r3, #1
 80049be:	687b      	ldr	r3, [r7, #4]
 80049c0:	601a      	str	r2, [r3, #0]
}
 80049c2:	bf00      	nop
 80049c4:	3714      	adds	r7, #20
 80049c6:	46bd      	mov	sp, r7
 80049c8:	bc80      	pop	{r7}
 80049ca:	4770      	bx	lr

080049cc <uxListRemove>:
/*-----------------------------------------------------------*/

UBaseType_t uxListRemove( ListItem_t * const pxItemToRemove )
{
 80049cc:	b480      	push	{r7}
 80049ce:	b085      	sub	sp, #20
 80049d0:	af00      	add	r7, sp, #0
 80049d2:	6078      	str	r0, [r7, #4]
/* The list item knows which list it is in.  Obtain the list from the list
item. */
List_t * const pxList = pxItemToRemove->pxContainer;
 80049d4:	687b      	ldr	r3, [r7, #4]
 80049d6:	691b      	ldr	r3, [r3, #16]
 80049d8:	60fb      	str	r3, [r7, #12]

	pxItemToRemove->pxNext->pxPrevious = pxItemToRemove->pxPrevious;
 80049da:	687b      	ldr	r3, [r7, #4]
 80049dc:	685b      	ldr	r3, [r3, #4]
 80049de:	687a      	ldr	r2, [r7, #4]
 80049e0:	6892      	ldr	r2, [r2, #8]
 80049e2:	609a      	str	r2, [r3, #8]
	pxItemToRemove->pxPrevious->pxNext = pxItemToRemove->pxNext;
 80049e4:	687b      	ldr	r3, [r7, #4]
 80049e6:	689b      	ldr	r3, [r3, #8]
 80049e8:	687a      	ldr	r2, [r7, #4]
 80049ea:	6852      	ldr	r2, [r2, #4]
 80049ec:	605a      	str	r2, [r3, #4]

	/* Only used during decision coverage testing. */
	mtCOVERAGE_TEST_DELAY();

	/* Make sure the index is left pointing to a valid item. */
	if( pxList->pxIndex == pxItemToRemove )
 80049ee:	68fb      	ldr	r3, [r7, #12]
 80049f0:	685b      	ldr	r3, [r3, #4]
 80049f2:	687a      	ldr	r2, [r7, #4]
 80049f4:	429a      	cmp	r2, r3
 80049f6:	d103      	bne.n	8004a00 <uxListRemove+0x34>
	{
		pxList->pxIndex = pxItemToRemove->pxPrevious;
 80049f8:	687b      	ldr	r3, [r7, #4]
 80049fa:	689a      	ldr	r2, [r3, #8]
 80049fc:	68fb      	ldr	r3, [r7, #12]
 80049fe:	605a      	str	r2, [r3, #4]
	else
	{
		mtCOVERAGE_TEST_MARKER();
	}

	pxItemToRemove->pxContainer = NULL;
 8004a00:	687b      	ldr	r3, [r7, #4]
 8004a02:	2200      	movs	r2, #0
 8004a04:	611a      	str	r2, [r3, #16]
	( pxList->uxNumberOfItems )--;
 8004a06:	68fb      	ldr	r3, [r7, #12]
 8004a08:	681b      	ldr	r3, [r3, #0]
 8004a0a:	1e5a      	subs	r2, r3, #1
 8004a0c:	68fb      	ldr	r3, [r7, #12]
 8004a0e:	601a      	str	r2, [r3, #0]

	return pxList->uxNumberOfItems;
 8004a10:	68fb      	ldr	r3, [r7, #12]
 8004a12:	681b      	ldr	r3, [r3, #0]
}
 8004a14:	4618      	mov	r0, r3
 8004a16:	3714      	adds	r7, #20
 8004a18:	46bd      	mov	sp, r7
 8004a1a:	bc80      	pop	{r7}
 8004a1c:	4770      	bx	lr

08004a1e <xTaskCreateStatic>:
									const uint32_t ulStackDepth,
									void * const pvParameters,
									UBaseType_t uxPriority,
									StackType_t * const puxStackBuffer,
									StaticTask_t * const pxTaskBuffer )
	{
 8004a1e:	b580      	push	{r7, lr}
 8004a20:	b08e      	sub	sp, #56	@ 0x38
 8004a22:	af04      	add	r7, sp, #16
 8004a24:	60f8      	str	r0, [r7, #12]
 8004a26:	60b9      	str	r1, [r7, #8]
 8004a28:	607a      	str	r2, [r7, #4]
 8004a2a:	603b      	str	r3, [r7, #0]
	TCB_t *pxNewTCB;
	TaskHandle_t xReturn;

		configASSERT( puxStackBuffer != NULL );
 8004a2c:	6b7b      	ldr	r3, [r7, #52]	@ 0x34
 8004a2e:	2b00      	cmp	r3, #0
 8004a30:	d10b      	bne.n	8004a4a <xTaskCreateStatic+0x2c>

portFORCE_INLINE static void vPortRaiseBASEPRI( void )
{
uint32_t ulNewBASEPRI;

	__asm volatile
 8004a32:	f04f 0350 	mov.w	r3, #80	@ 0x50
 8004a36:	f383 8811 	msr	BASEPRI, r3
 8004a3a:	f3bf 8f6f 	isb	sy
 8004a3e:	f3bf 8f4f 	dsb	sy
 8004a42:	623b      	str	r3, [r7, #32]
		"	msr basepri, %0											\n" \
		"	isb														\n" \
		"	dsb														\n" \
		:"=r" (ulNewBASEPRI) : "i" ( configMAX_SYSCALL_INTERRUPT_PRIORITY ) : "memory"
	);
}
 8004a44:	bf00      	nop
 8004a46:	bf00      	nop
 8004a48:	e7fd      	b.n	8004a46 <xTaskCreateStatic+0x28>
		configASSERT( pxTaskBuffer != NULL );
 8004a4a:	6bbb      	ldr	r3, [r7, #56]	@ 0x38
 8004a4c:	2b00      	cmp	r3, #0
 8004a4e:	d10b      	bne.n	8004a68 <xTaskCreateStatic+0x4a>
	__asm volatile
 8004a50:	f04f 0350 	mov.w	r3, #80	@ 0x50
 8004a54:	f383 8811 	msr	BASEPRI, r3
 8004a58:	f3bf 8f6f 	isb	sy
 8004a5c:	f3bf 8f4f 	dsb	sy
 8004a60:	61fb      	str	r3, [r7, #28]
}
 8004a62:	bf00      	nop
 8004a64:	bf00      	nop
 8004a66:	e7fd      	b.n	8004a64 <xTaskCreateStatic+0x46>
		#if( configASSERT_DEFINED == 1 )
		{
			/* Sanity check that the size of the structure used to declare a
			variable of type StaticTask_t equals the size of the real task
			structure. */
			volatile size_t xSize = sizeof( StaticTask_t );
 8004a68:	2354      	movs	r3, #84	@ 0x54
 8004a6a:	613b      	str	r3, [r7, #16]
			configASSERT( xSize == sizeof( TCB_t ) );
 8004a6c:	693b      	ldr	r3, [r7, #16]
 8004a6e:	2b54      	cmp	r3, #84	@ 0x54
 8004a70:	d00b      	beq.n	8004a8a <xTaskCreateStatic+0x6c>
	__asm volatile
 8004a72:	f04f 0350 	mov.w	r3, #80	@ 0x50
 8004a76:	f383 8811 	msr	BASEPRI, r3
 8004a7a:	f3bf 8f6f 	isb	sy
 8004a7e:	f3bf 8f4f 	dsb	sy
 8004a82:	61bb      	str	r3, [r7, #24]
}
 8004a84:	bf00      	nop
 8004a86:	bf00      	nop
 8004a88:	e7fd      	b.n	8004a86 <xTaskCreateStatic+0x68>
			( void ) xSize; /* Prevent lint warning when configASSERT() is not used. */
 8004a8a:	693b      	ldr	r3, [r7, #16]
		}
		#endif /* configASSERT_DEFINED */


		if( ( pxTaskBuffer != NULL ) && ( puxStackBuffer != NULL ) )
 8004a8c:	6bbb      	ldr	r3, [r7, #56]	@ 0x38
 8004a8e:	2b00      	cmp	r3, #0
 8004a90:	d01e      	beq.n	8004ad0 <xTaskCreateStatic+0xb2>
 8004a92:	6b7b      	ldr	r3, [r7, #52]	@ 0x34
 8004a94:	2b00      	cmp	r3, #0
 8004a96:	d01b      	beq.n	8004ad0 <xTaskCreateStatic+0xb2>
		{
			/* The memory used for the task's TCB and stack are passed into this
			function - use them. */
			pxNewTCB = ( TCB_t * ) pxTaskBuffer; /*lint !e740 !e9087 Unusual cast is ok as the structures are designed to have the same alignment, and the size is checked by an assert. */
 8004a98:	6bbb      	ldr	r3, [r7, #56]	@ 0x38
 8004a9a:	627b      	str	r3, [r7, #36]	@ 0x24
			pxNewTCB->pxStack = ( StackType_t * ) puxStackBuffer;
 8004a9c:	6a7b      	ldr	r3, [r7, #36]	@ 0x24
 8004a9e:	6b7a      	ldr	r2, [r7, #52]	@ 0x34
 8004aa0:	631a      	str	r2, [r3, #48]	@ 0x30

			#if( tskSTATIC_AND_DYNAMIC_ALLOCATION_POSSIBLE != 0 ) /*lint !e731 !e9029 Macro has been consolidated for readability reasons. */
			{
				/* Tasks can be created statically or dynamically, so note this
				task was created statically in case the task is later deleted. */
				pxNewTCB->ucStaticallyAllocated = tskSTATICALLY_ALLOCATED_STACK_AND_TCB;
 8004aa2:	6a7b      	ldr	r3, [r7, #36]	@ 0x24
 8004aa4:	2202      	movs	r2, #2
 8004aa6:	f883 2051 	strb.w	r2, [r3, #81]	@ 0x51
			}
			#endif /* tskSTATIC_AND_DYNAMIC_ALLOCATION_POSSIBLE */

			prvInitialiseNewTask( pxTaskCode, pcName, ulStackDepth, pvParameters, uxPriority, &xReturn, pxNewTCB, NULL );
 8004aaa:	2300      	movs	r3, #0
 8004aac:	9303      	str	r3, [sp, #12]
 8004aae:	6a7b      	ldr	r3, [r7, #36]	@ 0x24
 8004ab0:	9302      	str	r3, [sp, #8]
 8004ab2:	f107 0314 	add.w	r3, r7, #20
 8004ab6:	9301      	str	r3, [sp, #4]
 8004ab8:	6b3b      	ldr	r3, [r7, #48]	@ 0x30
 8004aba:	9300      	str	r3, [sp, #0]
 8004abc:	683b      	ldr	r3, [r7, #0]
 8004abe:	687a      	ldr	r2, [r7, #4]
 8004ac0:	68b9      	ldr	r1, [r7, #8]
 8004ac2:	68f8      	ldr	r0, [r7, #12]
 8004ac4:	f000 f850 	bl	8004b68 <prvInitialiseNewTask>
			prvAddNewTaskToReadyList( pxNewTCB );
 8004ac8:	6a78      	ldr	r0, [r7, #36]	@ 0x24
 8004aca:	f000 f8d5 	bl	8004c78 <prvAddNewTaskToReadyList>
 8004ace:	e001      	b.n	8004ad4 <xTaskCreateStatic+0xb6>
		}
		else
		{
			xReturn = NULL;
 8004ad0:	2300      	movs	r3, #0
 8004ad2:	617b      	str	r3, [r7, #20]
		}

		return xReturn;
 8004ad4:	697b      	ldr	r3, [r7, #20]
	}
 8004ad6:	4618      	mov	r0, r3
 8004ad8:	3728      	adds	r7, #40	@ 0x28
 8004ada:	46bd      	mov	sp, r7
 8004adc:	bd80      	pop	{r7, pc}

08004ade <xTaskCreate>:
							const char * const pcName,		/*lint !e971 Unqualified char types are allowed for strings and single characters only. */
							const configSTACK_DEPTH_TYPE usStackDepth,
							void * const pvParameters,
							UBaseType_t uxPriority,
							TaskHandle_t * const pxCreatedTask )
	{
 8004ade:	b580      	push	{r7, lr}
 8004ae0:	b08c      	sub	sp, #48	@ 0x30
 8004ae2:	af04      	add	r7, sp, #16
 8004ae4:	60f8      	str	r0, [r7, #12]
 8004ae6:	60b9      	str	r1, [r7, #8]
 8004ae8:	603b      	str	r3, [r7, #0]
 8004aea:	4613      	mov	r3, r2
 8004aec:	80fb      	strh	r3, [r7, #6]
		#else /* portSTACK_GROWTH */
		{
		StackType_t *pxStack;

			/* Allocate space for the stack used by the task being created. */
			pxStack = pvPortMalloc( ( ( ( size_t ) usStackDepth ) * sizeof( StackType_t ) ) ); /*lint !e9079 All values returned by pvPortMalloc() have at least the alignment required by the MCU's stack and this allocation is the stack. */
 8004aee:	88fb      	ldrh	r3, [r7, #6]
 8004af0:	009b      	lsls	r3, r3, #2
 8004af2:	4618      	mov	r0, r3
 8004af4:	f001 f80c 	bl	8005b10 <pvPortMalloc>
 8004af8:	6178      	str	r0, [r7, #20]

			if( pxStack != NULL )
 8004afa:	697b      	ldr	r3, [r7, #20]
 8004afc:	2b00      	cmp	r3, #0
 8004afe:	d00e      	beq.n	8004b1e <xTaskCreate+0x40>
			{
				/* Allocate space for the TCB. */
				pxNewTCB = ( TCB_t * ) pvPortMalloc( sizeof( TCB_t ) ); /*lint !e9087 !e9079 All values returned by pvPortMalloc() have at least the alignment required by the MCU's stack, and the first member of TCB_t is always a pointer to the task's stack. */
 8004b00:	2054      	movs	r0, #84	@ 0x54
 8004b02:	f001 f805 	bl	8005b10 <pvPortMalloc>
 8004b06:	61f8      	str	r0, [r7, #28]

				if( pxNewTCB != NULL )
 8004b08:	69fb      	ldr	r3, [r7, #28]
 8004b0a:	2b00      	cmp	r3, #0
 8004b0c:	d003      	beq.n	8004b16 <xTaskCreate+0x38>
				{
					/* Store the stack location in the TCB. */
					pxNewTCB->pxStack = pxStack;
 8004b0e:	69fb      	ldr	r3, [r7, #28]
 8004b10:	697a      	ldr	r2, [r7, #20]
 8004b12:	631a      	str	r2, [r3, #48]	@ 0x30
 8004b14:	e005      	b.n	8004b22 <xTaskCreate+0x44>
				}
				else
				{
					/* The stack cannot be used as the TCB was not created.  Free
					it again. */
					vPortFree( pxStack );
 8004b16:	6978      	ldr	r0, [r7, #20]
 8004b18:	f001 f8c8 	bl	8005cac <vPortFree>
 8004b1c:	e001      	b.n	8004b22 <xTaskCreate+0x44>
				}
			}
			else
			{
				pxNewTCB = NULL;
 8004b1e:	2300      	movs	r3, #0
 8004b20:	61fb      	str	r3, [r7, #28]
			}
		}
		#endif /* portSTACK_GROWTH */

		if( pxNewTCB != NULL )
 8004b22:	69fb      	ldr	r3, [r7, #28]
 8004b24:	2b00      	cmp	r3, #0
 8004b26:	d017      	beq.n	8004b58 <xTaskCreate+0x7a>
		{
			#if( tskSTATIC_AND_DYNAMIC_ALLOCATION_POSSIBLE != 0 ) /*lint !e9029 !e731 Macro has been consolidated for readability reasons. */
			{
				/* Tasks can be created statically or dynamically, so note this
				task was created dynamically in case it is later deleted. */
				pxNewTCB->ucStaticallyAllocated = tskDYNAMICALLY_ALLOCATED_STACK_AND_TCB;
 8004b28:	69fb      	ldr	r3, [r7, #28]
 8004b2a:	2200      	movs	r2, #0
 8004b2c:	f883 2051 	strb.w	r2, [r3, #81]	@ 0x51
			}
			#endif /* tskSTATIC_AND_DYNAMIC_ALLOCATION_POSSIBLE */

			prvInitialiseNewTask( pxTaskCode, pcName, ( uint32_t ) usStackDepth, pvParameters, uxPriority, pxCreatedTask, pxNewTCB, NULL );
 8004b30:	88fa      	ldrh	r2, [r7, #6]
 8004b32:	2300      	movs	r3, #0
 8004b34:	9303      	str	r3, [sp, #12]
 8004b36:	69fb      	ldr	r3, [r7, #28]
 8004b38:	9302      	str	r3, [sp, #8]
 8004b3a:	6afb      	ldr	r3, [r7, #44]	@ 0x2c
 8004b3c:	9301      	str	r3, [sp, #4]
 8004b3e:	6abb      	ldr	r3, [r7, #40]	@ 0x28
 8004b40:	9300      	str	r3, [sp, #0]
 8004b42:	683b      	ldr	r3, [r7, #0]
 8004b44:	68b9      	ldr	r1, [r7, #8]
 8004b46:	68f8      	ldr	r0, [r7, #12]
 8004b48:	f000 f80e 	bl	8004b68 <prvInitialiseNewTask>
			prvAddNewTaskToReadyList( pxNewTCB );
 8004b4c:	69f8      	ldr	r0, [r7, #28]
 8004b4e:	f000 f893 	bl	8004c78 <prvAddNewTaskToReadyList>
			xReturn = pdPASS;
 8004b52:	2301      	movs	r3, #1
 8004b54:	61bb      	str	r3, [r7, #24]
 8004b56:	e002      	b.n	8004b5e <xTaskCreate+0x80>
		}
		else
		{
			xReturn = errCOULD_NOT_ALLOCATE_REQUIRED_MEMORY;
 8004b58:	f04f 33ff 	mov.w	r3, #4294967295
 8004b5c:	61bb      	str	r3, [r7, #24]
		}

		return xReturn;
 8004b5e:	69bb      	ldr	r3, [r7, #24]
	}
 8004b60:	4618      	mov	r0, r3
 8004b62:	3720      	adds	r7, #32
 8004b64:	46bd      	mov	sp, r7
 8004b66:	bd80      	pop	{r7, pc}

08004b68 <prvInitialiseNewTask>:
									void * const pvParameters,
									UBaseType_t uxPriority,
									TaskHandle_t * const pxCreatedTask,
									TCB_t *pxNewTCB,
									const MemoryRegion_t * const xRegions )
{
 8004b68:	b580      	push	{r7, lr}
 8004b6a:	b088      	sub	sp, #32
 8004b6c:	af00      	add	r7, sp, #0
 8004b6e:	60f8      	str	r0, [r7, #12]
 8004b70:	60b9      	str	r1, [r7, #8]
 8004b72:	607a      	str	r2, [r7, #4]
 8004b74:	603b      	str	r3, [r7, #0]
	grows from high memory to low (as per the 80x86) or vice versa.
	portSTACK_GROWTH is used to make the result positive or negative as required
	by the port. */
	#if( portSTACK_GROWTH < 0 )
	{
		pxTopOfStack = &( pxNewTCB->pxStack[ ulStackDepth - ( uint32_t ) 1 ] );
 8004b76:	6b3b      	ldr	r3, [r7, #48]	@ 0x30
 8004b78:	6b1a      	ldr	r2, [r3, #48]	@ 0x30
 8004b7a:	687b      	ldr	r3, [r7, #4]
 8004b7c:	f103 4380 	add.w	r3, r3, #1073741824	@ 0x40000000
 8004b80:	3b01      	subs	r3, #1
 8004b82:	009b      	lsls	r3, r3, #2
 8004b84:	4413      	add	r3, r2
 8004b86:	61bb      	str	r3, [r7, #24]
		pxTopOfStack = ( StackType_t * ) ( ( ( portPOINTER_SIZE_TYPE ) pxTopOfStack ) & ( ~( ( portPOINTER_SIZE_TYPE ) portBYTE_ALIGNMENT_MASK ) ) ); /*lint !e923 !e9033 !e9078 MISRA exception.  Avoiding casts between pointers and integers is not practical.  Size differences accounted for using portPOINTER_SIZE_TYPE type.  Checked by assert(). */
 8004b88:	69bb      	ldr	r3, [r7, #24]
 8004b8a:	f023 0307 	bic.w	r3, r3, #7
 8004b8e:	61bb      	str	r3, [r7, #24]

		/* Check the alignment of the calculated top of stack is correct. */
		configASSERT( ( ( ( portPOINTER_SIZE_TYPE ) pxTopOfStack & ( portPOINTER_SIZE_TYPE ) portBYTE_ALIGNMENT_MASK ) == 0UL ) );
 8004b90:	69bb      	ldr	r3, [r7, #24]
 8004b92:	f003 0307 	and.w	r3, r3, #7
 8004b96:	2b00      	cmp	r3, #0
 8004b98:	d00b      	beq.n	8004bb2 <prvInitialiseNewTask+0x4a>
	__asm volatile
 8004b9a:	f04f 0350 	mov.w	r3, #80	@ 0x50
 8004b9e:	f383 8811 	msr	BASEPRI, r3
 8004ba2:	f3bf 8f6f 	isb	sy
 8004ba6:	f3bf 8f4f 	dsb	sy
 8004baa:	617b      	str	r3, [r7, #20]
}
 8004bac:	bf00      	nop
 8004bae:	bf00      	nop
 8004bb0:	e7fd      	b.n	8004bae <prvInitialiseNewTask+0x46>
		pxNewTCB->pxEndOfStack = pxNewTCB->pxStack + ( ulStackDepth - ( uint32_t ) 1 );
	}
	#endif /* portSTACK_GROWTH */

	/* Store the task name in the TCB. */
	if( pcName != NULL )
 8004bb2:	68bb      	ldr	r3, [r7, #8]
 8004bb4:	2b00      	cmp	r3, #0
 8004bb6:	d01f      	beq.n	8004bf8 <prvInitialiseNewTask+0x90>
	{
		for( x = ( UBaseType_t ) 0; x < ( UBaseType_t ) configMAX_TASK_NAME_LEN; x++ )
 8004bb8:	2300      	movs	r3, #0
 8004bba:	61fb      	str	r3, [r7, #28]
 8004bbc:	e012      	b.n	8004be4 <prvInitialiseNewTask+0x7c>
		{
			pxNewTCB->pcTaskName[ x ] = pcName[ x ];
 8004bbe:	68ba      	ldr	r2, [r7, #8]
 8004bc0:	69fb      	ldr	r3, [r7, #28]
 8004bc2:	4413      	add	r3, r2
 8004bc4:	7819      	ldrb	r1, [r3, #0]
 8004bc6:	6b3a      	ldr	r2, [r7, #48]	@ 0x30
 8004bc8:	69fb      	ldr	r3, [r7, #28]
 8004bca:	4413      	add	r3, r2
 8004bcc:	3334      	adds	r3, #52	@ 0x34
 8004bce:	460a      	mov	r2, r1
 8004bd0:	701a      	strb	r2, [r3, #0]

			/* Don't copy all configMAX_TASK_NAME_LEN if the string is shorter than
			configMAX_TASK_NAME_LEN characters just in case the memory after the
			string is not accessible (extremely unlikely). */
			if( pcName[ x ] == ( char ) 0x00 )
 8004bd2:	68ba      	ldr	r2, [r7, #8]
 8004bd4:	69fb      	ldr	r3, [r7, #28]
 8004bd6:	4413      	add	r3, r2
 8004bd8:	781b      	ldrb	r3, [r3, #0]
 8004bda:	2b00      	cmp	r3, #0
 8004bdc:	d006      	beq.n	8004bec <prvInitialiseNewTask+0x84>
		for( x = ( UBaseType_t ) 0; x < ( UBaseType_t ) configMAX_TASK_NAME_LEN; x++ )
 8004bde:	69fb      	ldr	r3, [r7, #28]
 8004be0:	3301      	adds	r3, #1
 8004be2:	61fb      	str	r3, [r7, #28]
 8004be4:	69fb      	ldr	r3, [r7, #28]
 8004be6:	2b0f      	cmp	r3, #15
 8004be8:	d9e9      	bls.n	8004bbe <prvInitialiseNewTask+0x56>
 8004bea:	e000      	b.n	8004bee <prvInitialiseNewTask+0x86>
			{
				break;
 8004bec:	bf00      	nop
			}
		}

		/* Ensure the name string is terminated in the case that the string length
		was greater or equal to configMAX_TASK_NAME_LEN. */
		pxNewTCB->pcTaskName[ configMAX_TASK_NAME_LEN - 1 ] = '\0';
 8004bee:	6b3b      	ldr	r3, [r7, #48]	@ 0x30
 8004bf0:	2200      	movs	r2, #0
 8004bf2:	f883 2043 	strb.w	r2, [r3, #67]	@ 0x43
 8004bf6:	e003      	b.n	8004c00 <prvInitialiseNewTask+0x98>
	}
	else
	{
		/* The task has not been given a name, so just ensure there is a NULL
		terminator when it is read out. */
		pxNewTCB->pcTaskName[ 0 ] = 0x00;
 8004bf8:	6b3b      	ldr	r3, [r7, #48]	@ 0x30
 8004bfa:	2200      	movs	r2, #0
 8004bfc:	f883 2034 	strb.w	r2, [r3, #52]	@ 0x34
	}

	/* This is used as an array index so must ensure it's not too large.  First
	remove the privilege bit if one is present. */
	if( uxPriority >= ( UBaseType_t ) configMAX_PRIORITIES )
 8004c00:	6abb      	ldr	r3, [r7, #40]	@ 0x28
 8004c02:	2b06      	cmp	r3, #6
 8004c04:	d901      	bls.n	8004c0a <prvInitialiseNewTask+0xa2>
	{
		uxPriority = ( UBaseType_t ) configMAX_PRIORITIES - ( UBaseType_t ) 1U;
 8004c06:	2306      	movs	r3, #6
 8004c08:	62bb      	str	r3, [r7, #40]	@ 0x28
	else
	{
		mtCOVERAGE_TEST_MARKER();
	}

	pxNewTCB->uxPriority = uxPriority;
 8004c0a:	6b3b      	ldr	r3, [r7, #48]	@ 0x30
 8004c0c:	6aba      	ldr	r2, [r7, #40]	@ 0x28
 8004c0e:	62da      	str	r2, [r3, #44]	@ 0x2c
	#if ( configUSE_MUTEXES == 1 )
	{
		pxNewTCB->uxBasePriority = uxPriority;
 8004c10:	6b3b      	ldr	r3, [r7, #48]	@ 0x30
 8004c12:	6aba      	ldr	r2, [r7, #40]	@ 0x28
 8004c14:	645a      	str	r2, [r3, #68]	@ 0x44
		pxNewTCB->uxMutexesHeld = 0;
 8004c16:	6b3b      	ldr	r3, [r7, #48]	@ 0x30
 8004c18:	2200      	movs	r2, #0
 8004c1a:	649a      	str	r2, [r3, #72]	@ 0x48
	}
	#endif /* configUSE_MUTEXES */

	vListInitialiseItem( &( pxNewTCB->xStateListItem ) );
 8004c1c:	6b3b      	ldr	r3, [r7, #48]	@ 0x30
 8004c1e:	3304      	adds	r3, #4
 8004c20:	4618      	mov	r0, r3
 8004c22:	f7ff fe6c 	bl	80048fe <vListInitialiseItem>
	vListInitialiseItem( &( pxNewTCB->xEventListItem ) );
 8004c26:	6b3b      	ldr	r3, [r7, #48]	@ 0x30
 8004c28:	3318      	adds	r3, #24
 8004c2a:	4618      	mov	r0, r3
 8004c2c:	f7ff fe67 	bl	80048fe <vListInitialiseItem>

	/* Set the pxNewTCB as a link back from the ListItem_t.  This is so we can get
	back to	the containing TCB from a generic item in a list. */
	listSET_LIST_ITEM_OWNER( &( pxNewTCB->xStateListItem ), pxNewTCB );
 8004c30:	6b3b      	ldr	r3, [r7, #48]	@ 0x30
 8004c32:	6b3a      	ldr	r2, [r7, #48]	@ 0x30
 8004c34:	611a      	str	r2, [r3, #16]

	/* Event lists are always in priority order. */
	listSET_LIST_ITEM_VALUE( &( pxNewTCB->xEventListItem ), ( TickType_t ) configMAX_PRIORITIES - ( TickType_t ) uxPriority ); /*lint !e961 MISRA exception as the casts are only redundant for some ports. */
 8004c36:	6abb      	ldr	r3, [r7, #40]	@ 0x28
 8004c38:	f1c3 0207 	rsb	r2, r3, #7
 8004c3c:	6b3b      	ldr	r3, [r7, #48]	@ 0x30
 8004c3e:	619a      	str	r2, [r3, #24]
	listSET_LIST_ITEM_OWNER( &( pxNewTCB->xEventListItem ), pxNewTCB );
 8004c40:	6b3b      	ldr	r3, [r7, #48]	@ 0x30
 8004c42:	6b3a      	ldr	r2, [r7, #48]	@ 0x30
 8004c44:	625a      	str	r2, [r3, #36]	@ 0x24
	}
	#endif

	#if ( configUSE_TASK_NOTIFICATIONS == 1 )
	{
		pxNewTCB->ulNotifiedValue = 0;
 8004c46:	6b3b      	ldr	r3, [r7, #48]	@ 0x30
 8004c48:	2200      	movs	r2, #0
 8004c4a:	64da      	str	r2, [r3, #76]	@ 0x4c
		pxNewTCB->ucNotifyState = taskNOT_WAITING_NOTIFICATION;
 8004c4c:	6b3b      	ldr	r3, [r7, #48]	@ 0x30
 8004c4e:	2200      	movs	r2, #0
 8004c50:	f883 2050 	strb.w	r2, [r3, #80]	@ 0x50
			}
			#endif /* portSTACK_GROWTH */
		}
		#else /* portHAS_STACK_OVERFLOW_CHECKING */
		{
			pxNewTCB->pxTopOfStack = pxPortInitialiseStack( pxTopOfStack, pxTaskCode, pvParameters );
 8004c54:	683a      	ldr	r2, [r7, #0]
 8004c56:	68f9      	ldr	r1, [r7, #12]
 8004c58:	69b8      	ldr	r0, [r7, #24]
 8004c5a:	f000 fd63 	bl	8005724 <pxPortInitialiseStack>
 8004c5e:	4602      	mov	r2, r0
 8004c60:	6b3b      	ldr	r3, [r7, #48]	@ 0x30
 8004c62:	601a      	str	r2, [r3, #0]
		}
		#endif /* portHAS_STACK_OVERFLOW_CHECKING */
	}
	#endif /* portUSING_MPU_WRAPPERS */

	if( pxCreatedTask != NULL )
 8004c64:	6afb      	ldr	r3, [r7, #44]	@ 0x2c
 8004c66:	2b00      	cmp	r3, #0
 8004c68:	d002      	beq.n	8004c70 <prvInitialiseNewTask+0x108>
	{
		/* Pass the handle out in an anonymous way.  The handle can be used to
		change the created task's priority, delete the created task, etc.*/
		*pxCreatedTask = ( TaskHandle_t ) pxNewTCB;
 8004c6a:	6afb      	ldr	r3, [r7, #44]	@ 0x2c
 8004c6c:	6b3a      	ldr	r2, [r7, #48]	@ 0x30
 8004c6e:	601a      	str	r2, [r3, #0]
	}
	else
	{
		mtCOVERAGE_TEST_MARKER();
	}
}
 8004c70:	bf00      	nop
 8004c72:	3720      	adds	r7, #32
 8004c74:	46bd      	mov	sp, r7
 8004c76:	bd80      	pop	{r7, pc}

08004c78 <prvAddNewTaskToReadyList>:
/*-----------------------------------------------------------*/

static void prvAddNewTaskToReadyList( TCB_t *pxNewTCB )
{
 8004c78:	b580      	push	{r7, lr}
 8004c7a:	b082      	sub	sp, #8
 8004c7c:	af00      	add	r7, sp, #0
 8004c7e:	6078      	str	r0, [r7, #4]
	/* Ensure interrupts don't access the task lists while the lists are being
	updated. */
	taskENTER_CRITICAL();
 8004c80:	f000 fe44 	bl	800590c <vPortEnterCritical>
	{
		uxCurrentNumberOfTasks++;
 8004c84:	4b2a      	ldr	r3, [pc, #168]	@ (8004d30 <prvAddNewTaskToReadyList+0xb8>)
 8004c86:	681b      	ldr	r3, [r3, #0]
 8004c88:	3301      	adds	r3, #1
 8004c8a:	4a29      	ldr	r2, [pc, #164]	@ (8004d30 <prvAddNewTaskToReadyList+0xb8>)
 8004c8c:	6013      	str	r3, [r2, #0]
		if( pxCurrentTCB == NULL )
 8004c8e:	4b29      	ldr	r3, [pc, #164]	@ (8004d34 <prvAddNewTaskToReadyList+0xbc>)
 8004c90:	681b      	ldr	r3, [r3, #0]
 8004c92:	2b00      	cmp	r3, #0
 8004c94:	d109      	bne.n	8004caa <prvAddNewTaskToReadyList+0x32>
		{
			/* There are no other tasks, or all the other tasks are in
			the suspended state - make this the current task. */
			pxCurrentTCB = pxNewTCB;
 8004c96:	4a27      	ldr	r2, [pc, #156]	@ (8004d34 <prvAddNewTaskToReadyList+0xbc>)
 8004c98:	687b      	ldr	r3, [r7, #4]
 8004c9a:	6013      	str	r3, [r2, #0]

			if( uxCurrentNumberOfTasks == ( UBaseType_t ) 1 )
 8004c9c:	4b24      	ldr	r3, [pc, #144]	@ (8004d30 <prvAddNewTaskToReadyList+0xb8>)
 8004c9e:	681b      	ldr	r3, [r3, #0]
 8004ca0:	2b01      	cmp	r3, #1
 8004ca2:	d110      	bne.n	8004cc6 <prvAddNewTaskToReadyList+0x4e>
			{
				/* This is the first task to be created so do the preliminary
				initialisation required.  We will not recover if this call
				fails, but we will report the failure. */
				prvInitialiseTaskLists();
 8004ca4:	f000 fac4 	bl	8005230 <prvInitialiseTaskLists>
 8004ca8:	e00d      	b.n	8004cc6 <prvAddNewTaskToReadyList+0x4e>
		else
		{
			/* If the scheduler is not already running, make this task the
			current task if it is the highest priority task to be created
			so far. */
			if( xSchedulerRunning == pdFALSE )
 8004caa:	4b23      	ldr	r3, [pc, #140]	@ (8004d38 <prvAddNewTaskToReadyList+0xc0>)
 8004cac:	681b      	ldr	r3, [r3, #0]
 8004cae:	2b00      	cmp	r3, #0
 8004cb0:	d109      	bne.n	8004cc6 <prvAddNewTaskToReadyList+0x4e>
			{
				if( pxCurrentTCB->uxPriority <= pxNewTCB->uxPriority )
 8004cb2:	4b20      	ldr	r3, [pc, #128]	@ (8004d34 <prvAddNewTaskToReadyList+0xbc>)
 8004cb4:	681b      	ldr	r3, [r3, #0]
 8004cb6:	6ada      	ldr	r2, [r3, #44]	@ 0x2c
 8004cb8:	687b      	ldr	r3, [r7, #4]
 8004cba:	6adb      	ldr	r3, [r3, #44]	@ 0x2c
 8004cbc:	429a      	cmp	r2, r3
 8004cbe:	d802      	bhi.n	8004cc6 <prvAddNewTaskToReadyList+0x4e>
				{
					pxCurrentTCB = pxNewTCB;
 8004cc0:	4a1c      	ldr	r2, [pc, #112]	@ (8004d34 <prvAddNewTaskToReadyList+0xbc>)
 8004cc2:	687b      	ldr	r3, [r7, #4]
 8004cc4:	6013      	str	r3, [r2, #0]
			{
				mtCOVERAGE_TEST_MARKER();
			}
		}

		uxTaskNumber++;
 8004cc6:	4b1d      	ldr	r3, [pc, #116]	@ (8004d3c <prvAddNewTaskToReadyList+0xc4>)
 8004cc8:	681b      	ldr	r3, [r3, #0]
 8004cca:	3301      	adds	r3, #1
 8004ccc:	4a1b      	ldr	r2, [pc, #108]	@ (8004d3c <prvAddNewTaskToReadyList+0xc4>)
 8004cce:	6013      	str	r3, [r2, #0]
			pxNewTCB->uxTCBNumber = uxTaskNumber;
		}
		#endif /* configUSE_TRACE_FACILITY */
		traceTASK_CREATE( pxNewTCB );

		prvAddTaskToReadyList( pxNewTCB );
 8004cd0:	687b      	ldr	r3, [r7, #4]
 8004cd2:	6adb      	ldr	r3, [r3, #44]	@ 0x2c
 8004cd4:	2201      	movs	r2, #1
 8004cd6:	409a      	lsls	r2, r3
 8004cd8:	4b19      	ldr	r3, [pc, #100]	@ (8004d40 <prvAddNewTaskToReadyList+0xc8>)
 8004cda:	681b      	ldr	r3, [r3, #0]
 8004cdc:	4313      	orrs	r3, r2
 8004cde:	4a18      	ldr	r2, [pc, #96]	@ (8004d40 <prvAddNewTaskToReadyList+0xc8>)
 8004ce0:	6013      	str	r3, [r2, #0]
 8004ce2:	687b      	ldr	r3, [r7, #4]
 8004ce4:	6ada      	ldr	r2, [r3, #44]	@ 0x2c
 8004ce6:	4613      	mov	r3, r2
 8004ce8:	009b      	lsls	r3, r3, #2
 8004cea:	4413      	add	r3, r2
 8004cec:	009b      	lsls	r3, r3, #2
 8004cee:	4a15      	ldr	r2, [pc, #84]	@ (8004d44 <prvAddNewTaskToReadyList+0xcc>)
 8004cf0:	441a      	add	r2, r3
 8004cf2:	687b      	ldr	r3, [r7, #4]
 8004cf4:	3304      	adds	r3, #4
 8004cf6:	4619      	mov	r1, r3
 8004cf8:	4610      	mov	r0, r2
 8004cfa:	f7ff fe0c 	bl	8004916 <vListInsertEnd>

		portSETUP_TCB( pxNewTCB );
	}
	taskEXIT_CRITICAL();
 8004cfe:	f000 fe35 	bl	800596c <vPortExitCritical>

	if( xSchedulerRunning != pdFALSE )
 8004d02:	4b0d      	ldr	r3, [pc, #52]	@ (8004d38 <prvAddNewTaskToReadyList+0xc0>)
 8004d04:	681b      	ldr	r3, [r3, #0]
 8004d06:	2b00      	cmp	r3, #0
 8004d08:	d00e      	beq.n	8004d28 <prvAddNewTaskToReadyList+0xb0>
	{
		/* If the created task is of a higher priority than the current task
		then it should run now. */
		if( pxCurrentTCB->uxPriority < pxNewTCB->uxPriority )
 8004d0a:	4b0a      	ldr	r3, [pc, #40]	@ (8004d34 <prvAddNewTaskToReadyList+0xbc>)
 8004d0c:	681b      	ldr	r3, [r3, #0]
 8004d0e:	6ada      	ldr	r2, [r3, #44]	@ 0x2c
 8004d10:	687b      	ldr	r3, [r7, #4]
 8004d12:	6adb      	ldr	r3, [r3, #44]	@ 0x2c
 8004d14:	429a      	cmp	r2, r3
 8004d16:	d207      	bcs.n	8004d28 <prvAddNewTaskToReadyList+0xb0>
		{
			taskYIELD_IF_USING_PREEMPTION();
 8004d18:	4b0b      	ldr	r3, [pc, #44]	@ (8004d48 <prvAddNewTaskToReadyList+0xd0>)
 8004d1a:	f04f 5280 	mov.w	r2, #268435456	@ 0x10000000
 8004d1e:	601a      	str	r2, [r3, #0]
 8004d20:	f3bf 8f4f 	dsb	sy
 8004d24:	f3bf 8f6f 	isb	sy
	}
	else
	{
		mtCOVERAGE_TEST_MARKER();
	}
}
 8004d28:	bf00      	nop
 8004d2a:	3708      	adds	r7, #8
 8004d2c:	46bd      	mov	sp, r7
 8004d2e:	bd80      	pop	{r7, pc}
 8004d30:	200004c0 	.word	0x200004c0
 8004d34:	200003c0 	.word	0x200003c0
 8004d38:	200004cc 	.word	0x200004cc
 8004d3c:	200004dc 	.word	0x200004dc
 8004d40:	200004c8 	.word	0x200004c8
 8004d44:	200003c4 	.word	0x200003c4
 8004d48:	e000ed04 	.word	0xe000ed04

08004d4c <vTaskDelay>:
/*-----------------------------------------------------------*/

#if ( INCLUDE_vTaskDelay == 1 )

	void vTaskDelay( const TickType_t xTicksToDelay )
	{
 8004d4c:	b580      	push	{r7, lr}
 8004d4e:	b084      	sub	sp, #16
 8004d50:	af00      	add	r7, sp, #0
 8004d52:	6078      	str	r0, [r7, #4]
	BaseType_t xAlreadyYielded = pdFALSE;
 8004d54:	2300      	movs	r3, #0
 8004d56:	60fb      	str	r3, [r7, #12]

		/* A delay time of zero just forces a reschedule. */
		if( xTicksToDelay > ( TickType_t ) 0U )
 8004d58:	687b      	ldr	r3, [r7, #4]
 8004d5a:	2b00      	cmp	r3, #0
 8004d5c:	d018      	beq.n	8004d90 <vTaskDelay+0x44>
		{
			configASSERT( uxSchedulerSuspended == 0 );
 8004d5e:	4b14      	ldr	r3, [pc, #80]	@ (8004db0 <vTaskDelay+0x64>)
 8004d60:	681b      	ldr	r3, [r3, #0]
 8004d62:	2b00      	cmp	r3, #0
 8004d64:	d00b      	beq.n	8004d7e <vTaskDelay+0x32>
	__asm volatile
 8004d66:	f04f 0350 	mov.w	r3, #80	@ 0x50
 8004d6a:	f383 8811 	msr	BASEPRI, r3
 8004d6e:	f3bf 8f6f 	isb	sy
 8004d72:	f3bf 8f4f 	dsb	sy
 8004d76:	60bb      	str	r3, [r7, #8]
}
 8004d78:	bf00      	nop
 8004d7a:	bf00      	nop
 8004d7c:	e7fd      	b.n	8004d7a <vTaskDelay+0x2e>
			vTaskSuspendAll();
 8004d7e:	f000 f87d 	bl	8004e7c <vTaskSuspendAll>
				list or removed from the blocked list until the scheduler
				is resumed.

				This task cannot be in an event list as it is the currently
				executing task. */
				prvAddCurrentTaskToDelayedList( xTicksToDelay, pdFALSE );
 8004d82:	2100      	movs	r1, #0
 8004d84:	6878      	ldr	r0, [r7, #4]
 8004d86:	f000 fc67 	bl	8005658 <prvAddCurrentTaskToDelayedList>
			}
			xAlreadyYielded = xTaskResumeAll();
 8004d8a:	f000 f885 	bl	8004e98 <xTaskResumeAll>
 8004d8e:	60f8      	str	r0, [r7, #12]
			mtCOVERAGE_TEST_MARKER();
		}

		/* Force a reschedule if xTaskResumeAll has not already done so, we may
		have put ourselves to sleep. */
		if( xAlreadyYielded == pdFALSE )
 8004d90:	68fb      	ldr	r3, [r7, #12]
 8004d92:	2b00      	cmp	r3, #0
 8004d94:	d107      	bne.n	8004da6 <vTaskDelay+0x5a>
		{
			portYIELD_WITHIN_API();
 8004d96:	4b07      	ldr	r3, [pc, #28]	@ (8004db4 <vTaskDelay+0x68>)
 8004d98:	f04f 5280 	mov.w	r2, #268435456	@ 0x10000000
 8004d9c:	601a      	str	r2, [r3, #0]
 8004d9e:	f3bf 8f4f 	dsb	sy
 8004da2:	f3bf 8f6f 	isb	sy
		}
		else
		{
			mtCOVERAGE_TEST_MARKER();
		}
	}
 8004da6:	bf00      	nop
 8004da8:	3710      	adds	r7, #16
 8004daa:	46bd      	mov	sp, r7
 8004dac:	bd80      	pop	{r7, pc}
 8004dae:	bf00      	nop
 8004db0:	200004e8 	.word	0x200004e8
 8004db4:	e000ed04 	.word	0xe000ed04

08004db8 <vTaskStartScheduler>:

#endif /* ( ( INCLUDE_xTaskResumeFromISR == 1 ) && ( INCLUDE_vTaskSuspend == 1 ) ) */
/*-----------------------------------------------------------*/

void vTaskStartScheduler( void )
{
 8004db8:	b580      	push	{r7, lr}
 8004dba:	b08a      	sub	sp, #40	@ 0x28
 8004dbc:	af04      	add	r7, sp, #16
BaseType_t xReturn;

	/* Add the idle task at the lowest priority. */
	#if( configSUPPORT_STATIC_ALLOCATION == 1 )
	{
		StaticTask_t *pxIdleTaskTCBBuffer = NULL;
 8004dbe:	2300      	movs	r3, #0
 8004dc0:	60bb      	str	r3, [r7, #8]
		StackType_t *pxIdleTaskStackBuffer = NULL;
 8004dc2:	2300      	movs	r3, #0
 8004dc4:	607b      	str	r3, [r7, #4]
		uint32_t ulIdleTaskStackSize;

		/* The Idle task is created using user provided RAM - obtain the
		address of the RAM then create the idle task. */
		vApplicationGetIdleTaskMemory( &pxIdleTaskTCBBuffer, &pxIdleTaskStackBuffer, &ulIdleTaskStackSize );
 8004dc6:	463a      	mov	r2, r7
 8004dc8:	1d39      	adds	r1, r7, #4
 8004dca:	f107 0308 	add.w	r3, r7, #8
 8004dce:	4618      	mov	r0, r3
 8004dd0:	f7fb fa26 	bl	8000220 <vApplicationGetIdleTaskMemory>
		xIdleTaskHandle = xTaskCreateStatic(	prvIdleTask,
 8004dd4:	6839      	ldr	r1, [r7, #0]
 8004dd6:	687b      	ldr	r3, [r7, #4]
 8004dd8:	68ba      	ldr	r2, [r7, #8]
 8004dda:	9202      	str	r2, [sp, #8]
 8004ddc:	9301      	str	r3, [sp, #4]
 8004dde:	2300      	movs	r3, #0
 8004de0:	9300      	str	r3, [sp, #0]
 8004de2:	2300      	movs	r3, #0
 8004de4:	460a      	mov	r2, r1
 8004de6:	491f      	ldr	r1, [pc, #124]	@ (8004e64 <vTaskStartScheduler+0xac>)
 8004de8:	481f      	ldr	r0, [pc, #124]	@ (8004e68 <vTaskStartScheduler+0xb0>)
 8004dea:	f7ff fe18 	bl	8004a1e <xTaskCreateStatic>
 8004dee:	4603      	mov	r3, r0
 8004df0:	4a1e      	ldr	r2, [pc, #120]	@ (8004e6c <vTaskStartScheduler+0xb4>)
 8004df2:	6013      	str	r3, [r2, #0]
												( void * ) NULL, /*lint !e961.  The cast is not redundant for all compilers. */
												portPRIVILEGE_BIT, /* In effect ( tskIDLE_PRIORITY | portPRIVILEGE_BIT ), but tskIDLE_PRIORITY is zero. */
												pxIdleTaskStackBuffer,
												pxIdleTaskTCBBuffer ); /*lint !e961 MISRA exception, justified as it is not a redundant explicit cast to all supported compilers. */

		if( xIdleTaskHandle != NULL )
 8004df4:	4b1d      	ldr	r3, [pc, #116]	@ (8004e6c <vTaskStartScheduler+0xb4>)
 8004df6:	681b      	ldr	r3, [r3, #0]
 8004df8:	2b00      	cmp	r3, #0
 8004dfa:	d002      	beq.n	8004e02 <vTaskStartScheduler+0x4a>
		{
			xReturn = pdPASS;
 8004dfc:	2301      	movs	r3, #1
 8004dfe:	617b      	str	r3, [r7, #20]
 8004e00:	e001      	b.n	8004e06 <vTaskStartScheduler+0x4e>
		}
		else
		{
			xReturn = pdFAIL;
 8004e02:	2300      	movs	r3, #0
 8004e04:	617b      	str	r3, [r7, #20]
			mtCOVERAGE_TEST_MARKER();
		}
	}
	#endif /* configUSE_TIMERS */

	if( xReturn == pdPASS )
 8004e06:	697b      	ldr	r3, [r7, #20]
 8004e08:	2b01      	cmp	r3, #1
 8004e0a:	d116      	bne.n	8004e3a <vTaskStartScheduler+0x82>
	__asm volatile
 8004e0c:	f04f 0350 	mov.w	r3, #80	@ 0x50
 8004e10:	f383 8811 	msr	BASEPRI, r3
 8004e14:	f3bf 8f6f 	isb	sy
 8004e18:	f3bf 8f4f 	dsb	sy
 8004e1c:	613b      	str	r3, [r7, #16]
}
 8004e1e:	bf00      	nop
			for additional information. */
			_impure_ptr = &( pxCurrentTCB->xNewLib_reent );
		}
		#endif /* configUSE_NEWLIB_REENTRANT */

		xNextTaskUnblockTime = portMAX_DELAY;
 8004e20:	4b13      	ldr	r3, [pc, #76]	@ (8004e70 <vTaskStartScheduler+0xb8>)
 8004e22:	f04f 32ff 	mov.w	r2, #4294967295
 8004e26:	601a      	str	r2, [r3, #0]
		xSchedulerRunning = pdTRUE;
 8004e28:	4b12      	ldr	r3, [pc, #72]	@ (8004e74 <vTaskStartScheduler+0xbc>)
 8004e2a:	2201      	movs	r2, #1
 8004e2c:	601a      	str	r2, [r3, #0]
		xTickCount = ( TickType_t ) configINITIAL_TICK_COUNT;
 8004e2e:	4b12      	ldr	r3, [pc, #72]	@ (8004e78 <vTaskStartScheduler+0xc0>)
 8004e30:	2200      	movs	r2, #0
 8004e32:	601a      	str	r2, [r3, #0]

		traceTASK_SWITCHED_IN();

		/* Setting up the timer tick is hardware specific and thus in the
		portable interface. */
		if( xPortStartScheduler() != pdFALSE )
 8004e34:	f000 fcf8 	bl	8005828 <xPortStartScheduler>
	}

	/* Prevent compiler warnings if INCLUDE_xTaskGetIdleTaskHandle is set to 0,
	meaning xIdleTaskHandle is not used anywhere else. */
	( void ) xIdleTaskHandle;
}
 8004e38:	e00f      	b.n	8004e5a <vTaskStartScheduler+0xa2>
		configASSERT( xReturn != errCOULD_NOT_ALLOCATE_REQUIRED_MEMORY );
 8004e3a:	697b      	ldr	r3, [r7, #20]
 8004e3c:	f1b3 3fff 	cmp.w	r3, #4294967295
 8004e40:	d10b      	bne.n	8004e5a <vTaskStartScheduler+0xa2>
	__asm volatile
 8004e42:	f04f 0350 	mov.w	r3, #80	@ 0x50
 8004e46:	f383 8811 	msr	BASEPRI, r3
 8004e4a:	f3bf 8f6f 	isb	sy
 8004e4e:	f3bf 8f4f 	dsb	sy
 8004e52:	60fb      	str	r3, [r7, #12]
}
 8004e54:	bf00      	nop
 8004e56:	bf00      	nop
 8004e58:	e7fd      	b.n	8004e56 <vTaskStartScheduler+0x9e>
}
 8004e5a:	bf00      	nop
 8004e5c:	3718      	adds	r7, #24
 8004e5e:	46bd      	mov	sp, r7
 8004e60:	bd80      	pop	{r7, pc}
 8004e62:	bf00      	nop
 8004e64:	0800696c 	.word	0x0800696c
 8004e68:	08005201 	.word	0x08005201
 8004e6c:	200004e4 	.word	0x200004e4
 8004e70:	200004e0 	.word	0x200004e0
 8004e74:	200004cc 	.word	0x200004cc
 8004e78:	200004c4 	.word	0x200004c4

08004e7c <vTaskSuspendAll>:
	vPortEndScheduler();
}
/*----------------------------------------------------------*/

void vTaskSuspendAll( void )
{
 8004e7c:	b480      	push	{r7}
 8004e7e:	af00      	add	r7, sp, #0
	do not otherwise exhibit real time behaviour. */
	portSOFTWARE_BARRIER();

	/* The scheduler is suspended if uxSchedulerSuspended is non-zero.  An increment
	is used to allow calls to vTaskSuspendAll() to nest. */
	++uxSchedulerSuspended;
 8004e80:	4b04      	ldr	r3, [pc, #16]	@ (8004e94 <vTaskSuspendAll+0x18>)
 8004e82:	681b      	ldr	r3, [r3, #0]
 8004e84:	3301      	adds	r3, #1
 8004e86:	4a03      	ldr	r2, [pc, #12]	@ (8004e94 <vTaskSuspendAll+0x18>)
 8004e88:	6013      	str	r3, [r2, #0]

	/* Enforces ordering for ports and optimised compilers that may otherwise place
	the above increment elsewhere. */
	portMEMORY_BARRIER();
}
 8004e8a:	bf00      	nop
 8004e8c:	46bd      	mov	sp, r7
 8004e8e:	bc80      	pop	{r7}
 8004e90:	4770      	bx	lr
 8004e92:	bf00      	nop
 8004e94:	200004e8 	.word	0x200004e8

08004e98 <xTaskResumeAll>:

#endif /* configUSE_TICKLESS_IDLE */
/*----------------------------------------------------------*/

BaseType_t xTaskResumeAll( void )
{
 8004e98:	b580      	push	{r7, lr}
 8004e9a:	b084      	sub	sp, #16
 8004e9c:	af00      	add	r7, sp, #0
TCB_t *pxTCB = NULL;
 8004e9e:	2300      	movs	r3, #0
 8004ea0:	60fb      	str	r3, [r7, #12]
BaseType_t xAlreadyYielded = pdFALSE;
 8004ea2:	2300      	movs	r3, #0
 8004ea4:	60bb      	str	r3, [r7, #8]

	/* If uxSchedulerSuspended is zero then this function does not match a
	previous call to vTaskSuspendAll(). */
	configASSERT( uxSchedulerSuspended );
 8004ea6:	4b42      	ldr	r3, [pc, #264]	@ (8004fb0 <xTaskResumeAll+0x118>)
 8004ea8:	681b      	ldr	r3, [r3, #0]
 8004eaa:	2b00      	cmp	r3, #0
 8004eac:	d10b      	bne.n	8004ec6 <xTaskResumeAll+0x2e>
	__asm volatile
 8004eae:	f04f 0350 	mov.w	r3, #80	@ 0x50
 8004eb2:	f383 8811 	msr	BASEPRI, r3
 8004eb6:	f3bf 8f6f 	isb	sy
 8004eba:	f3bf 8f4f 	dsb	sy
 8004ebe:	603b      	str	r3, [r7, #0]
}
 8004ec0:	bf00      	nop
 8004ec2:	bf00      	nop
 8004ec4:	e7fd      	b.n	8004ec2 <xTaskResumeAll+0x2a>
	/* It is possible that an ISR caused a task to be removed from an event
	list while the scheduler was suspended.  If this was the case then the
	removed task will have been added to the xPendingReadyList.  Once the
	scheduler has been resumed it is safe to move all the pending ready
	tasks from this list into their appropriate ready list. */
	taskENTER_CRITICAL();
 8004ec6:	f000 fd21 	bl	800590c <vPortEnterCritical>
	{
		--uxSchedulerSuspended;
 8004eca:	4b39      	ldr	r3, [pc, #228]	@ (8004fb0 <xTaskResumeAll+0x118>)
 8004ecc:	681b      	ldr	r3, [r3, #0]
 8004ece:	3b01      	subs	r3, #1
 8004ed0:	4a37      	ldr	r2, [pc, #220]	@ (8004fb0 <xTaskResumeAll+0x118>)
 8004ed2:	6013      	str	r3, [r2, #0]

		if( uxSchedulerSuspended == ( UBaseType_t ) pdFALSE )
 8004ed4:	4b36      	ldr	r3, [pc, #216]	@ (8004fb0 <xTaskResumeAll+0x118>)
 8004ed6:	681b      	ldr	r3, [r3, #0]
 8004ed8:	2b00      	cmp	r3, #0
 8004eda:	d161      	bne.n	8004fa0 <xTaskResumeAll+0x108>
		{
			if( uxCurrentNumberOfTasks > ( UBaseType_t ) 0U )
 8004edc:	4b35      	ldr	r3, [pc, #212]	@ (8004fb4 <xTaskResumeAll+0x11c>)
 8004ede:	681b      	ldr	r3, [r3, #0]
 8004ee0:	2b00      	cmp	r3, #0
 8004ee2:	d05d      	beq.n	8004fa0 <xTaskResumeAll+0x108>
			{
				/* Move any readied tasks from the pending list into the
				appropriate ready list. */
				while( listLIST_IS_EMPTY( &xPendingReadyList ) == pdFALSE )
 8004ee4:	e02e      	b.n	8004f44 <xTaskResumeAll+0xac>
				{
					pxTCB = listGET_OWNER_OF_HEAD_ENTRY( ( &xPendingReadyList ) ); /*lint !e9079 void * is used as this macro is used with timers and co-routines too.  Alignment is known to be fine as the type of the pointer stored and retrieved is the same. */
 8004ee6:	4b34      	ldr	r3, [pc, #208]	@ (8004fb8 <xTaskResumeAll+0x120>)
 8004ee8:	68db      	ldr	r3, [r3, #12]
 8004eea:	68db      	ldr	r3, [r3, #12]
 8004eec:	60fb      	str	r3, [r7, #12]
					( void ) uxListRemove( &( pxTCB->xEventListItem ) );
 8004eee:	68fb      	ldr	r3, [r7, #12]
 8004ef0:	3318      	adds	r3, #24
 8004ef2:	4618      	mov	r0, r3
 8004ef4:	f7ff fd6a 	bl	80049cc <uxListRemove>
					( void ) uxListRemove( &( pxTCB->xStateListItem ) );
 8004ef8:	68fb      	ldr	r3, [r7, #12]
 8004efa:	3304      	adds	r3, #4
 8004efc:	4618      	mov	r0, r3
 8004efe:	f7ff fd65 	bl	80049cc <uxListRemove>
					prvAddTaskToReadyList( pxTCB );
 8004f02:	68fb      	ldr	r3, [r7, #12]
 8004f04:	6adb      	ldr	r3, [r3, #44]	@ 0x2c
 8004f06:	2201      	movs	r2, #1
 8004f08:	409a      	lsls	r2, r3
 8004f0a:	4b2c      	ldr	r3, [pc, #176]	@ (8004fbc <xTaskResumeAll+0x124>)
 8004f0c:	681b      	ldr	r3, [r3, #0]
 8004f0e:	4313      	orrs	r3, r2
 8004f10:	4a2a      	ldr	r2, [pc, #168]	@ (8004fbc <xTaskResumeAll+0x124>)
 8004f12:	6013      	str	r3, [r2, #0]
 8004f14:	68fb      	ldr	r3, [r7, #12]
 8004f16:	6ada      	ldr	r2, [r3, #44]	@ 0x2c
 8004f18:	4613      	mov	r3, r2
 8004f1a:	009b      	lsls	r3, r3, #2
 8004f1c:	4413      	add	r3, r2
 8004f1e:	009b      	lsls	r3, r3, #2
 8004f20:	4a27      	ldr	r2, [pc, #156]	@ (8004fc0 <xTaskResumeAll+0x128>)
 8004f22:	441a      	add	r2, r3
 8004f24:	68fb      	ldr	r3, [r7, #12]
 8004f26:	3304      	adds	r3, #4
 8004f28:	4619      	mov	r1, r3
 8004f2a:	4610      	mov	r0, r2
 8004f2c:	f7ff fcf3 	bl	8004916 <vListInsertEnd>

					/* If the moved task has a priority higher than the current
					task then a yield must be performed. */
					if( pxTCB->uxPriority >= pxCurrentTCB->uxPriority )
 8004f30:	68fb      	ldr	r3, [r7, #12]
 8004f32:	6ada      	ldr	r2, [r3, #44]	@ 0x2c
 8004f34:	4b23      	ldr	r3, [pc, #140]	@ (8004fc4 <xTaskResumeAll+0x12c>)
 8004f36:	681b      	ldr	r3, [r3, #0]
 8004f38:	6adb      	ldr	r3, [r3, #44]	@ 0x2c
 8004f3a:	429a      	cmp	r2, r3
 8004f3c:	d302      	bcc.n	8004f44 <xTaskResumeAll+0xac>
					{
						xYieldPending = pdTRUE;
 8004f3e:	4b22      	ldr	r3, [pc, #136]	@ (8004fc8 <xTaskResumeAll+0x130>)
 8004f40:	2201      	movs	r2, #1
 8004f42:	601a      	str	r2, [r3, #0]
				while( listLIST_IS_EMPTY( &xPendingReadyList ) == pdFALSE )
 8004f44:	4b1c      	ldr	r3, [pc, #112]	@ (8004fb8 <xTaskResumeAll+0x120>)
 8004f46:	681b      	ldr	r3, [r3, #0]
 8004f48:	2b00      	cmp	r3, #0
 8004f4a:	d1cc      	bne.n	8004ee6 <xTaskResumeAll+0x4e>
					{
						mtCOVERAGE_TEST_MARKER();
					}
				}

				if( pxTCB != NULL )
 8004f4c:	68fb      	ldr	r3, [r7, #12]
 8004f4e:	2b00      	cmp	r3, #0
 8004f50:	d001      	beq.n	8004f56 <xTaskResumeAll+0xbe>
					which may have prevented the next unblock time from being
					re-calculated, in which case re-calculate it now.  Mainly
					important for low power tickless implementations, where
					this can prevent an unnecessary exit from low power
					state. */
					prvResetNextTaskUnblockTime();
 8004f52:	f000 fa0b 	bl	800536c <prvResetNextTaskUnblockTime>
				/* If any ticks occurred while the scheduler was suspended then
				they should be processed now.  This ensures the tick count does
				not	slip, and that any delayed tasks are resumed at the correct
				time. */
				{
					TickType_t xPendedCounts = xPendedTicks; /* Non-volatile copy. */
 8004f56:	4b1d      	ldr	r3, [pc, #116]	@ (8004fcc <xTaskResumeAll+0x134>)
 8004f58:	681b      	ldr	r3, [r3, #0]
 8004f5a:	607b      	str	r3, [r7, #4]

					if( xPendedCounts > ( TickType_t ) 0U )
 8004f5c:	687b      	ldr	r3, [r7, #4]
 8004f5e:	2b00      	cmp	r3, #0
 8004f60:	d010      	beq.n	8004f84 <xTaskResumeAll+0xec>
					{
						do
						{
							if( xTaskIncrementTick() != pdFALSE )
 8004f62:	f000 f837 	bl	8004fd4 <xTaskIncrementTick>
 8004f66:	4603      	mov	r3, r0
 8004f68:	2b00      	cmp	r3, #0
 8004f6a:	d002      	beq.n	8004f72 <xTaskResumeAll+0xda>
							{
								xYieldPending = pdTRUE;
 8004f6c:	4b16      	ldr	r3, [pc, #88]	@ (8004fc8 <xTaskResumeAll+0x130>)
 8004f6e:	2201      	movs	r2, #1
 8004f70:	601a      	str	r2, [r3, #0]
							}
							else
							{
								mtCOVERAGE_TEST_MARKER();
							}
							--xPendedCounts;
 8004f72:	687b      	ldr	r3, [r7, #4]
 8004f74:	3b01      	subs	r3, #1
 8004f76:	607b      	str	r3, [r7, #4]
						} while( xPendedCounts > ( TickType_t ) 0U );
 8004f78:	687b      	ldr	r3, [r7, #4]
 8004f7a:	2b00      	cmp	r3, #0
 8004f7c:	d1f1      	bne.n	8004f62 <xTaskResumeAll+0xca>

						xPendedTicks = 0;
 8004f7e:	4b13      	ldr	r3, [pc, #76]	@ (8004fcc <xTaskResumeAll+0x134>)
 8004f80:	2200      	movs	r2, #0
 8004f82:	601a      	str	r2, [r3, #0]
					{
						mtCOVERAGE_TEST_MARKER();
					}
				}

				if( xYieldPending != pdFALSE )
 8004f84:	4b10      	ldr	r3, [pc, #64]	@ (8004fc8 <xTaskResumeAll+0x130>)
 8004f86:	681b      	ldr	r3, [r3, #0]
 8004f88:	2b00      	cmp	r3, #0
 8004f8a:	d009      	beq.n	8004fa0 <xTaskResumeAll+0x108>
				{
					#if( configUSE_PREEMPTION != 0 )
					{
						xAlreadyYielded = pdTRUE;
 8004f8c:	2301      	movs	r3, #1
 8004f8e:	60bb      	str	r3, [r7, #8]
					}
					#endif
					taskYIELD_IF_USING_PREEMPTION();
 8004f90:	4b0f      	ldr	r3, [pc, #60]	@ (8004fd0 <xTaskResumeAll+0x138>)
 8004f92:	f04f 5280 	mov.w	r2, #268435456	@ 0x10000000
 8004f96:	601a      	str	r2, [r3, #0]
 8004f98:	f3bf 8f4f 	dsb	sy
 8004f9c:	f3bf 8f6f 	isb	sy
		else
		{
			mtCOVERAGE_TEST_MARKER();
		}
	}
	taskEXIT_CRITICAL();
 8004fa0:	f000 fce4 	bl	800596c <vPortExitCritical>

	return xAlreadyYielded;
 8004fa4:	68bb      	ldr	r3, [r7, #8]
}
 8004fa6:	4618      	mov	r0, r3
 8004fa8:	3710      	adds	r7, #16
 8004faa:	46bd      	mov	sp, r7
 8004fac:	bd80      	pop	{r7, pc}
 8004fae:	bf00      	nop
 8004fb0:	200004e8 	.word	0x200004e8
 8004fb4:	200004c0 	.word	0x200004c0
 8004fb8:	20000480 	.word	0x20000480
 8004fbc:	200004c8 	.word	0x200004c8
 8004fc0:	200003c4 	.word	0x200003c4
 8004fc4:	200003c0 	.word	0x200003c0
 8004fc8:	200004d4 	.word	0x200004d4
 8004fcc:	200004d0 	.word	0x200004d0
 8004fd0:	e000ed04 	.word	0xe000ed04

08004fd4 <xTaskIncrementTick>:

#endif /* INCLUDE_xTaskAbortDelay */
/*----------------------------------------------------------*/

BaseType_t xTaskIncrementTick( void )
{
 8004fd4:	b580      	push	{r7, lr}
 8004fd6:	b086      	sub	sp, #24
 8004fd8:	af00      	add	r7, sp, #0
TCB_t * pxTCB;
TickType_t xItemValue;
BaseType_t xSwitchRequired = pdFALSE;
 8004fda:	2300      	movs	r3, #0
 8004fdc:	617b      	str	r3, [r7, #20]

	/* Called by the portable layer each time a tick interrupt occurs.
	Increments the tick then checks to see if the new tick value will cause any
	tasks to be unblocked. */
	traceTASK_INCREMENT_TICK( xTickCount );
	if( uxSchedulerSuspended == ( UBaseType_t ) pdFALSE )
 8004fde:	4b4f      	ldr	r3, [pc, #316]	@ (800511c <xTaskIncrementTick+0x148>)
 8004fe0:	681b      	ldr	r3, [r3, #0]
 8004fe2:	2b00      	cmp	r3, #0
 8004fe4:	f040 808f 	bne.w	8005106 <xTaskIncrementTick+0x132>
	{
		/* Minor optimisation.  The tick count cannot change in this
		block. */
		const TickType_t xConstTickCount = xTickCount + ( TickType_t ) 1;
 8004fe8:	4b4d      	ldr	r3, [pc, #308]	@ (8005120 <xTaskIncrementTick+0x14c>)
 8004fea:	681b      	ldr	r3, [r3, #0]
 8004fec:	3301      	adds	r3, #1
 8004fee:	613b      	str	r3, [r7, #16]

		/* Increment the RTOS tick, switching the delayed and overflowed
		delayed lists if it wraps to 0. */
		xTickCount = xConstTickCount;
 8004ff0:	4a4b      	ldr	r2, [pc, #300]	@ (8005120 <xTaskIncrementTick+0x14c>)
 8004ff2:	693b      	ldr	r3, [r7, #16]
 8004ff4:	6013      	str	r3, [r2, #0]

		if( xConstTickCount == ( TickType_t ) 0U ) /*lint !e774 'if' does not always evaluate to false as it is looking for an overflow. */
 8004ff6:	693b      	ldr	r3, [r7, #16]
 8004ff8:	2b00      	cmp	r3, #0
 8004ffa:	d121      	bne.n	8005040 <xTaskIncrementTick+0x6c>
		{
			taskSWITCH_DELAYED_LISTS();
 8004ffc:	4b49      	ldr	r3, [pc, #292]	@ (8005124 <xTaskIncrementTick+0x150>)
 8004ffe:	681b      	ldr	r3, [r3, #0]
 8005000:	681b      	ldr	r3, [r3, #0]
 8005002:	2b00      	cmp	r3, #0
 8005004:	d00b      	beq.n	800501e <xTaskIncrementTick+0x4a>
	__asm volatile
 8005006:	f04f 0350 	mov.w	r3, #80	@ 0x50
 800500a:	f383 8811 	msr	BASEPRI, r3
 800500e:	f3bf 8f6f 	isb	sy
 8005012:	f3bf 8f4f 	dsb	sy
 8005016:	603b      	str	r3, [r7, #0]
}
 8005018:	bf00      	nop
 800501a:	bf00      	nop
 800501c:	e7fd      	b.n	800501a <xTaskIncrementTick+0x46>
 800501e:	4b41      	ldr	r3, [pc, #260]	@ (8005124 <xTaskIncrementTick+0x150>)
 8005020:	681b      	ldr	r3, [r3, #0]
 8005022:	60fb      	str	r3, [r7, #12]
 8005024:	4b40      	ldr	r3, [pc, #256]	@ (8005128 <xTaskIncrementTick+0x154>)
 8005026:	681b      	ldr	r3, [r3, #0]
 8005028:	4a3e      	ldr	r2, [pc, #248]	@ (8005124 <xTaskIncrementTick+0x150>)
 800502a:	6013      	str	r3, [r2, #0]
 800502c:	4a3e      	ldr	r2, [pc, #248]	@ (8005128 <xTaskIncrementTick+0x154>)
 800502e:	68fb      	ldr	r3, [r7, #12]
 8005030:	6013      	str	r3, [r2, #0]
 8005032:	4b3e      	ldr	r3, [pc, #248]	@ (800512c <xTaskIncrementTick+0x158>)
 8005034:	681b      	ldr	r3, [r3, #0]
 8005036:	3301      	adds	r3, #1
 8005038:	4a3c      	ldr	r2, [pc, #240]	@ (800512c <xTaskIncrementTick+0x158>)
 800503a:	6013      	str	r3, [r2, #0]
 800503c:	f000 f996 	bl	800536c <prvResetNextTaskUnblockTime>

		/* See if this tick has made a timeout expire.  Tasks are stored in
		the	queue in the order of their wake time - meaning once one task
		has been found whose block time has not expired there is no need to
		look any further down the list. */
		if( xConstTickCount >= xNextTaskUnblockTime )
 8005040:	4b3b      	ldr	r3, [pc, #236]	@ (8005130 <xTaskIncrementTick+0x15c>)
 8005042:	681b      	ldr	r3, [r3, #0]
 8005044:	693a      	ldr	r2, [r7, #16]
 8005046:	429a      	cmp	r2, r3
 8005048:	d348      	bcc.n	80050dc <xTaskIncrementTick+0x108>
		{
			for( ;; )
			{
				if( listLIST_IS_EMPTY( pxDelayedTaskList ) != pdFALSE )
 800504a:	4b36      	ldr	r3, [pc, #216]	@ (8005124 <xTaskIncrementTick+0x150>)
 800504c:	681b      	ldr	r3, [r3, #0]
 800504e:	681b      	ldr	r3, [r3, #0]
 8005050:	2b00      	cmp	r3, #0
 8005052:	d104      	bne.n	800505e <xTaskIncrementTick+0x8a>
					/* The delayed list is empty.  Set xNextTaskUnblockTime
					to the maximum possible value so it is extremely
					unlikely that the
					if( xTickCount >= xNextTaskUnblockTime ) test will pass
					next time through. */
					xNextTaskUnblockTime = portMAX_DELAY; /*lint !e961 MISRA exception as the casts are only redundant for some ports. */
 8005054:	4b36      	ldr	r3, [pc, #216]	@ (8005130 <xTaskIncrementTick+0x15c>)
 8005056:	f04f 32ff 	mov.w	r2, #4294967295
 800505a:	601a      	str	r2, [r3, #0]
					break;
 800505c:	e03e      	b.n	80050dc <xTaskIncrementTick+0x108>
				{
					/* The delayed list is not empty, get the value of the
					item at the head of the delayed list.  This is the time
					at which the task at the head of the delayed list must
					be removed from the Blocked state. */
					pxTCB = listGET_OWNER_OF_HEAD_ENTRY( pxDelayedTaskList ); /*lint !e9079 void * is used as this macro is used with timers and co-routines too.  Alignment is known to be fine as the type of the pointer stored and retrieved is the same. */
 800505e:	4b31      	ldr	r3, [pc, #196]	@ (8005124 <xTaskIncrementTick+0x150>)
 8005060:	681b      	ldr	r3, [r3, #0]
 8005062:	68db      	ldr	r3, [r3, #12]
 8005064:	68db      	ldr	r3, [r3, #12]
 8005066:	60bb      	str	r3, [r7, #8]
					xItemValue = listGET_LIST_ITEM_VALUE( &( pxTCB->xStateListItem ) );
 8005068:	68bb      	ldr	r3, [r7, #8]
 800506a:	685b      	ldr	r3, [r3, #4]
 800506c:	607b      	str	r3, [r7, #4]

					if( xConstTickCount < xItemValue )
 800506e:	693a      	ldr	r2, [r7, #16]
 8005070:	687b      	ldr	r3, [r7, #4]
 8005072:	429a      	cmp	r2, r3
 8005074:	d203      	bcs.n	800507e <xTaskIncrementTick+0xaa>
						/* It is not time to unblock this item yet, but the
						item value is the time at which the task at the head
						of the blocked list must be removed from the Blocked
						state -	so record the item value in
						xNextTaskUnblockTime. */
						xNextTaskUnblockTime = xItemValue;
 8005076:	4a2e      	ldr	r2, [pc, #184]	@ (8005130 <xTaskIncrementTick+0x15c>)
 8005078:	687b      	ldr	r3, [r7, #4]
 800507a:	6013      	str	r3, [r2, #0]
						break; /*lint !e9011 Code structure here is deedmed easier to understand with multiple breaks. */
 800507c:	e02e      	b.n	80050dc <xTaskIncrementTick+0x108>
					{
						mtCOVERAGE_TEST_MARKER();
					}

					/* It is time to remove the item from the Blocked state. */
					( void ) uxListRemove( &( pxTCB->xStateListItem ) );
 800507e:	68bb      	ldr	r3, [r7, #8]
 8005080:	3304      	adds	r3, #4
 8005082:	4618      	mov	r0, r3
 8005084:	f7ff fca2 	bl	80049cc <uxListRemove>

					/* Is the task waiting on an event also?  If so remove
					it from the event list. */
					if( listLIST_ITEM_CONTAINER( &( pxTCB->xEventListItem ) ) != NULL )
 8005088:	68bb      	ldr	r3, [r7, #8]
 800508a:	6a9b      	ldr	r3, [r3, #40]	@ 0x28
 800508c:	2b00      	cmp	r3, #0
 800508e:	d004      	beq.n	800509a <xTaskIncrementTick+0xc6>
					{
						( void ) uxListRemove( &( pxTCB->xEventListItem ) );
 8005090:	68bb      	ldr	r3, [r7, #8]
 8005092:	3318      	adds	r3, #24
 8005094:	4618      	mov	r0, r3
 8005096:	f7ff fc99 	bl	80049cc <uxListRemove>
						mtCOVERAGE_TEST_MARKER();
					}

					/* Place the unblocked task into the appropriate ready
					list. */
					prvAddTaskToReadyList( pxTCB );
 800509a:	68bb      	ldr	r3, [r7, #8]
 800509c:	6adb      	ldr	r3, [r3, #44]	@ 0x2c
 800509e:	2201      	movs	r2, #1
 80050a0:	409a      	lsls	r2, r3
 80050a2:	4b24      	ldr	r3, [pc, #144]	@ (8005134 <xTaskIncrementTick+0x160>)
 80050a4:	681b      	ldr	r3, [r3, #0]
 80050a6:	4313      	orrs	r3, r2
 80050a8:	4a22      	ldr	r2, [pc, #136]	@ (8005134 <xTaskIncrementTick+0x160>)
 80050aa:	6013      	str	r3, [r2, #0]
 80050ac:	68bb      	ldr	r3, [r7, #8]
 80050ae:	6ada      	ldr	r2, [r3, #44]	@ 0x2c
 80050b0:	4613      	mov	r3, r2
 80050b2:	009b      	lsls	r3, r3, #2
 80050b4:	4413      	add	r3, r2
 80050b6:	009b      	lsls	r3, r3, #2
 80050b8:	4a1f      	ldr	r2, [pc, #124]	@ (8005138 <xTaskIncrementTick+0x164>)
 80050ba:	441a      	add	r2, r3
 80050bc:	68bb      	ldr	r3, [r7, #8]
 80050be:	3304      	adds	r3, #4
 80050c0:	4619      	mov	r1, r3
 80050c2:	4610      	mov	r0, r2
 80050c4:	f7ff fc27 	bl	8004916 <vListInsertEnd>
					{
						/* Preemption is on, but a context switch should
						only be performed if the unblocked task has a
						priority that is equal to or higher than the
						currently executing task. */
						if( pxTCB->uxPriority >= pxCurrentTCB->uxPriority )
 80050c8:	68bb      	ldr	r3, [r7, #8]
 80050ca:	6ada      	ldr	r2, [r3, #44]	@ 0x2c
 80050cc:	4b1b      	ldr	r3, [pc, #108]	@ (800513c <xTaskIncrementTick+0x168>)
 80050ce:	681b      	ldr	r3, [r3, #0]
 80050d0:	6adb      	ldr	r3, [r3, #44]	@ 0x2c
 80050d2:	429a      	cmp	r2, r3
 80050d4:	d3b9      	bcc.n	800504a <xTaskIncrementTick+0x76>
						{
							xSwitchRequired = pdTRUE;
 80050d6:	2301      	movs	r3, #1
 80050d8:	617b      	str	r3, [r7, #20]
				if( listLIST_IS_EMPTY( pxDelayedTaskList ) != pdFALSE )
 80050da:	e7b6      	b.n	800504a <xTaskIncrementTick+0x76>
		/* Tasks of equal priority to the currently running task will share
		processing time (time slice) if preemption is on, and the application
		writer has not explicitly turned time slicing off. */
		#if ( ( configUSE_PREEMPTION == 1 ) && ( configUSE_TIME_SLICING == 1 ) )
		{
			if( listCURRENT_LIST_LENGTH( &( pxReadyTasksLists[ pxCurrentTCB->uxPriority ] ) ) > ( UBaseType_t ) 1 )
 80050dc:	4b17      	ldr	r3, [pc, #92]	@ (800513c <xTaskIncrementTick+0x168>)
 80050de:	681b      	ldr	r3, [r3, #0]
 80050e0:	6ada      	ldr	r2, [r3, #44]	@ 0x2c
 80050e2:	4915      	ldr	r1, [pc, #84]	@ (8005138 <xTaskIncrementTick+0x164>)
 80050e4:	4613      	mov	r3, r2
 80050e6:	009b      	lsls	r3, r3, #2
 80050e8:	4413      	add	r3, r2
 80050ea:	009b      	lsls	r3, r3, #2
 80050ec:	440b      	add	r3, r1
 80050ee:	681b      	ldr	r3, [r3, #0]
 80050f0:	2b01      	cmp	r3, #1
 80050f2:	d901      	bls.n	80050f8 <xTaskIncrementTick+0x124>
			{
				xSwitchRequired = pdTRUE;
 80050f4:	2301      	movs	r3, #1
 80050f6:	617b      	str	r3, [r7, #20]
		}
		#endif /* configUSE_TICK_HOOK */

		#if ( configUSE_PREEMPTION == 1 )
		{
			if( xYieldPending != pdFALSE )
 80050f8:	4b11      	ldr	r3, [pc, #68]	@ (8005140 <xTaskIncrementTick+0x16c>)
 80050fa:	681b      	ldr	r3, [r3, #0]
 80050fc:	2b00      	cmp	r3, #0
 80050fe:	d007      	beq.n	8005110 <xTaskIncrementTick+0x13c>
			{
				xSwitchRequired = pdTRUE;
 8005100:	2301      	movs	r3, #1
 8005102:	617b      	str	r3, [r7, #20]
 8005104:	e004      	b.n	8005110 <xTaskIncrementTick+0x13c>
		}
		#endif /* configUSE_PREEMPTION */
	}
	else
	{
		++xPendedTicks;
 8005106:	4b0f      	ldr	r3, [pc, #60]	@ (8005144 <xTaskIncrementTick+0x170>)
 8005108:	681b      	ldr	r3, [r3, #0]
 800510a:	3301      	adds	r3, #1
 800510c:	4a0d      	ldr	r2, [pc, #52]	@ (8005144 <xTaskIncrementTick+0x170>)
 800510e:	6013      	str	r3, [r2, #0]
			vApplicationTickHook();
		}
		#endif
	}

	return xSwitchRequired;
 8005110:	697b      	ldr	r3, [r7, #20]
}
 8005112:	4618      	mov	r0, r3
 8005114:	3718      	adds	r7, #24
 8005116:	46bd      	mov	sp, r7
 8005118:	bd80      	pop	{r7, pc}
 800511a:	bf00      	nop
 800511c:	200004e8 	.word	0x200004e8
 8005120:	200004c4 	.word	0x200004c4
 8005124:	20000478 	.word	0x20000478
 8005128:	2000047c 	.word	0x2000047c
 800512c:	200004d8 	.word	0x200004d8
 8005130:	200004e0 	.word	0x200004e0
 8005134:	200004c8 	.word	0x200004c8
 8005138:	200003c4 	.word	0x200003c4
 800513c:	200003c0 	.word	0x200003c0
 8005140:	200004d4 	.word	0x200004d4
 8005144:	200004d0 	.word	0x200004d0

08005148 <vTaskSwitchContext>:

#endif /* configUSE_APPLICATION_TASK_TAG */
/*-----------------------------------------------------------*/

void vTaskSwitchContext( void )
{
 8005148:	b480      	push	{r7}
 800514a:	b087      	sub	sp, #28
 800514c:	af00      	add	r7, sp, #0
	if( uxSchedulerSuspended != ( UBaseType_t ) pdFALSE )
 800514e:	4b27      	ldr	r3, [pc, #156]	@ (80051ec <vTaskSwitchContext+0xa4>)
 8005150:	681b      	ldr	r3, [r3, #0]
 8005152:	2b00      	cmp	r3, #0
 8005154:	d003      	beq.n	800515e <vTaskSwitchContext+0x16>
	{
		/* The scheduler is currently suspended - do not allow a context
		switch. */
		xYieldPending = pdTRUE;
 8005156:	4b26      	ldr	r3, [pc, #152]	@ (80051f0 <vTaskSwitchContext+0xa8>)
 8005158:	2201      	movs	r2, #1
 800515a:	601a      	str	r2, [r3, #0]
			for additional information. */
			_impure_ptr = &( pxCurrentTCB->xNewLib_reent );
		}
		#endif /* configUSE_NEWLIB_REENTRANT */
	}
}
 800515c:	e040      	b.n	80051e0 <vTaskSwitchContext+0x98>
		xYieldPending = pdFALSE;
 800515e:	4b24      	ldr	r3, [pc, #144]	@ (80051f0 <vTaskSwitchContext+0xa8>)
 8005160:	2200      	movs	r2, #0
 8005162:	601a      	str	r2, [r3, #0]
		taskSELECT_HIGHEST_PRIORITY_TASK(); /*lint !e9079 void * is used as this macro is used with timers and co-routines too.  Alignment is known to be fine as the type of the pointer stored and retrieved is the same. */
 8005164:	4b23      	ldr	r3, [pc, #140]	@ (80051f4 <vTaskSwitchContext+0xac>)
 8005166:	681b      	ldr	r3, [r3, #0]
 8005168:	60fb      	str	r3, [r7, #12]
		__asm volatile ( "clz %0, %1" : "=r" ( ucReturn ) : "r" ( ulBitmap ) : "memory" );
 800516a:	68fb      	ldr	r3, [r7, #12]
 800516c:	fab3 f383 	clz	r3, r3
 8005170:	72fb      	strb	r3, [r7, #11]
		return ucReturn;
 8005172:	7afb      	ldrb	r3, [r7, #11]
 8005174:	f1c3 031f 	rsb	r3, r3, #31
 8005178:	617b      	str	r3, [r7, #20]
 800517a:	491f      	ldr	r1, [pc, #124]	@ (80051f8 <vTaskSwitchContext+0xb0>)
 800517c:	697a      	ldr	r2, [r7, #20]
 800517e:	4613      	mov	r3, r2
 8005180:	009b      	lsls	r3, r3, #2
 8005182:	4413      	add	r3, r2
 8005184:	009b      	lsls	r3, r3, #2
 8005186:	440b      	add	r3, r1
 8005188:	681b      	ldr	r3, [r3, #0]
 800518a:	2b00      	cmp	r3, #0
 800518c:	d10b      	bne.n	80051a6 <vTaskSwitchContext+0x5e>
	__asm volatile
 800518e:	f04f 0350 	mov.w	r3, #80	@ 0x50
 8005192:	f383 8811 	msr	BASEPRI, r3
 8005196:	f3bf 8f6f 	isb	sy
 800519a:	f3bf 8f4f 	dsb	sy
 800519e:	607b      	str	r3, [r7, #4]
}
 80051a0:	bf00      	nop
 80051a2:	bf00      	nop
 80051a4:	e7fd      	b.n	80051a2 <vTaskSwitchContext+0x5a>
 80051a6:	697a      	ldr	r2, [r7, #20]
 80051a8:	4613      	mov	r3, r2
 80051aa:	009b      	lsls	r3, r3, #2
 80051ac:	4413      	add	r3, r2
 80051ae:	009b      	lsls	r3, r3, #2
 80051b0:	4a11      	ldr	r2, [pc, #68]	@ (80051f8 <vTaskSwitchContext+0xb0>)
 80051b2:	4413      	add	r3, r2
 80051b4:	613b      	str	r3, [r7, #16]
 80051b6:	693b      	ldr	r3, [r7, #16]
 80051b8:	685b      	ldr	r3, [r3, #4]
 80051ba:	685a      	ldr	r2, [r3, #4]
 80051bc:	693b      	ldr	r3, [r7, #16]
 80051be:	605a      	str	r2, [r3, #4]
 80051c0:	693b      	ldr	r3, [r7, #16]
 80051c2:	685a      	ldr	r2, [r3, #4]
 80051c4:	693b      	ldr	r3, [r7, #16]
 80051c6:	3308      	adds	r3, #8
 80051c8:	429a      	cmp	r2, r3
 80051ca:	d104      	bne.n	80051d6 <vTaskSwitchContext+0x8e>
 80051cc:	693b      	ldr	r3, [r7, #16]
 80051ce:	685b      	ldr	r3, [r3, #4]
 80051d0:	685a      	ldr	r2, [r3, #4]
 80051d2:	693b      	ldr	r3, [r7, #16]
 80051d4:	605a      	str	r2, [r3, #4]
 80051d6:	693b      	ldr	r3, [r7, #16]
 80051d8:	685b      	ldr	r3, [r3, #4]
 80051da:	68db      	ldr	r3, [r3, #12]
 80051dc:	4a07      	ldr	r2, [pc, #28]	@ (80051fc <vTaskSwitchContext+0xb4>)
 80051de:	6013      	str	r3, [r2, #0]
}
 80051e0:	bf00      	nop
 80051e2:	371c      	adds	r7, #28
 80051e4:	46bd      	mov	sp, r7
 80051e6:	bc80      	pop	{r7}
 80051e8:	4770      	bx	lr
 80051ea:	bf00      	nop
 80051ec:	200004e8 	.word	0x200004e8
 80051f0:	200004d4 	.word	0x200004d4
 80051f4:	200004c8 	.word	0x200004c8
 80051f8:	200003c4 	.word	0x200003c4
 80051fc:	200003c0 	.word	0x200003c0

08005200 <prvIdleTask>:
 *
 * void prvIdleTask( void *pvParameters );
 *
 */
static portTASK_FUNCTION( prvIdleTask, pvParameters )
{
 8005200:	b580      	push	{r7, lr}
 8005202:	b082      	sub	sp, #8
 8005204:	af00      	add	r7, sp, #0
 8005206:	6078      	str	r0, [r7, #4]

	for( ;; )
	{
		/* See if any tasks have deleted themselves - if so then the idle task
		is responsible for freeing the deleted task's TCB and stack. */
		prvCheckTasksWaitingTermination();
 8005208:	f000 f852 	bl	80052b0 <prvCheckTasksWaitingTermination>

			A critical region is not required here as we are just reading from
			the list, and an occasional incorrect value will not matter.  If
			the ready list at the idle priority contains more than one task
			then a task other than the idle task is ready to execute. */
			if( listCURRENT_LIST_LENGTH( &( pxReadyTasksLists[ tskIDLE_PRIORITY ] ) ) > ( UBaseType_t ) 1 )
 800520c:	4b06      	ldr	r3, [pc, #24]	@ (8005228 <prvIdleTask+0x28>)
 800520e:	681b      	ldr	r3, [r3, #0]
 8005210:	2b01      	cmp	r3, #1
 8005212:	d9f9      	bls.n	8005208 <prvIdleTask+0x8>
			{
				taskYIELD();
 8005214:	4b05      	ldr	r3, [pc, #20]	@ (800522c <prvIdleTask+0x2c>)
 8005216:	f04f 5280 	mov.w	r2, #268435456	@ 0x10000000
 800521a:	601a      	str	r2, [r3, #0]
 800521c:	f3bf 8f4f 	dsb	sy
 8005220:	f3bf 8f6f 	isb	sy
		prvCheckTasksWaitingTermination();
 8005224:	e7f0      	b.n	8005208 <prvIdleTask+0x8>
 8005226:	bf00      	nop
 8005228:	200003c4 	.word	0x200003c4
 800522c:	e000ed04 	.word	0xe000ed04

08005230 <prvInitialiseTaskLists>:

#endif /* portUSING_MPU_WRAPPERS */
/*-----------------------------------------------------------*/

static void prvInitialiseTaskLists( void )
{
 8005230:	b580      	push	{r7, lr}
 8005232:	b082      	sub	sp, #8
 8005234:	af00      	add	r7, sp, #0
UBaseType_t uxPriority;

	for( uxPriority = ( UBaseType_t ) 0U; uxPriority < ( UBaseType_t ) configMAX_PRIORITIES; uxPriority++ )
 8005236:	2300      	movs	r3, #0
 8005238:	607b      	str	r3, [r7, #4]
 800523a:	e00c      	b.n	8005256 <prvInitialiseTaskLists+0x26>
	{
		vListInitialise( &( pxReadyTasksLists[ uxPriority ] ) );
 800523c:	687a      	ldr	r2, [r7, #4]
 800523e:	4613      	mov	r3, r2
 8005240:	009b      	lsls	r3, r3, #2
 8005242:	4413      	add	r3, r2
 8005244:	009b      	lsls	r3, r3, #2
 8005246:	4a12      	ldr	r2, [pc, #72]	@ (8005290 <prvInitialiseTaskLists+0x60>)
 8005248:	4413      	add	r3, r2
 800524a:	4618      	mov	r0, r3
 800524c:	f7ff fb38 	bl	80048c0 <vListInitialise>
	for( uxPriority = ( UBaseType_t ) 0U; uxPriority < ( UBaseType_t ) configMAX_PRIORITIES; uxPriority++ )
 8005250:	687b      	ldr	r3, [r7, #4]
 8005252:	3301      	adds	r3, #1
 8005254:	607b      	str	r3, [r7, #4]
 8005256:	687b      	ldr	r3, [r7, #4]
 8005258:	2b06      	cmp	r3, #6
 800525a:	d9ef      	bls.n	800523c <prvInitialiseTaskLists+0xc>
	}

	vListInitialise( &xDelayedTaskList1 );
 800525c:	480d      	ldr	r0, [pc, #52]	@ (8005294 <prvInitialiseTaskLists+0x64>)
 800525e:	f7ff fb2f 	bl	80048c0 <vListInitialise>
	vListInitialise( &xDelayedTaskList2 );
 8005262:	480d      	ldr	r0, [pc, #52]	@ (8005298 <prvInitialiseTaskLists+0x68>)
 8005264:	f7ff fb2c 	bl	80048c0 <vListInitialise>
	vListInitialise( &xPendingReadyList );
 8005268:	480c      	ldr	r0, [pc, #48]	@ (800529c <prvInitialiseTaskLists+0x6c>)
 800526a:	f7ff fb29 	bl	80048c0 <vListInitialise>

	#if ( INCLUDE_vTaskDelete == 1 )
	{
		vListInitialise( &xTasksWaitingTermination );
 800526e:	480c      	ldr	r0, [pc, #48]	@ (80052a0 <prvInitialiseTaskLists+0x70>)
 8005270:	f7ff fb26 	bl	80048c0 <vListInitialise>
	}
	#endif /* INCLUDE_vTaskDelete */

	#if ( INCLUDE_vTaskSuspend == 1 )
	{
		vListInitialise( &xSuspendedTaskList );
 8005274:	480b      	ldr	r0, [pc, #44]	@ (80052a4 <prvInitialiseTaskLists+0x74>)
 8005276:	f7ff fb23 	bl	80048c0 <vListInitialise>
	}
	#endif /* INCLUDE_vTaskSuspend */

	/* Start with pxDelayedTaskList using list1 and the pxOverflowDelayedTaskList
	using list2. */
	pxDelayedTaskList = &xDelayedTaskList1;
 800527a:	4b0b      	ldr	r3, [pc, #44]	@ (80052a8 <prvInitialiseTaskLists+0x78>)
 800527c:	4a05      	ldr	r2, [pc, #20]	@ (8005294 <prvInitialiseTaskLists+0x64>)
 800527e:	601a      	str	r2, [r3, #0]
	pxOverflowDelayedTaskList = &xDelayedTaskList2;
 8005280:	4b0a      	ldr	r3, [pc, #40]	@ (80052ac <prvInitialiseTaskLists+0x7c>)
 8005282:	4a05      	ldr	r2, [pc, #20]	@ (8005298 <prvInitialiseTaskLists+0x68>)
 8005284:	601a      	str	r2, [r3, #0]
}
 8005286:	bf00      	nop
 8005288:	3708      	adds	r7, #8
 800528a:	46bd      	mov	sp, r7
 800528c:	bd80      	pop	{r7, pc}
 800528e:	bf00      	nop
 8005290:	200003c4 	.word	0x200003c4
 8005294:	20000450 	.word	0x20000450
 8005298:	20000464 	.word	0x20000464
 800529c:	20000480 	.word	0x20000480
 80052a0:	20000494 	.word	0x20000494
 80052a4:	200004ac 	.word	0x200004ac
 80052a8:	20000478 	.word	0x20000478
 80052ac:	2000047c 	.word	0x2000047c

080052b0 <prvCheckTasksWaitingTermination>:
/*-----------------------------------------------------------*/

static void prvCheckTasksWaitingTermination( void )
{
 80052b0:	b580      	push	{r7, lr}
 80052b2:	b082      	sub	sp, #8
 80052b4:	af00      	add	r7, sp, #0
	{
		TCB_t *pxTCB;

		/* uxDeletedTasksWaitingCleanUp is used to prevent taskENTER_CRITICAL()
		being called too often in the idle task. */
		while( uxDeletedTasksWaitingCleanUp > ( UBaseType_t ) 0U )
 80052b6:	e019      	b.n	80052ec <prvCheckTasksWaitingTermination+0x3c>
		{
			taskENTER_CRITICAL();
 80052b8:	f000 fb28 	bl	800590c <vPortEnterCritical>
			{
				pxTCB = listGET_OWNER_OF_HEAD_ENTRY( ( &xTasksWaitingTermination ) ); /*lint !e9079 void * is used as this macro is used with timers and co-routines too.  Alignment is known to be fine as the type of the pointer stored and retrieved is the same. */
 80052bc:	4b10      	ldr	r3, [pc, #64]	@ (8005300 <prvCheckTasksWaitingTermination+0x50>)
 80052be:	68db      	ldr	r3, [r3, #12]
 80052c0:	68db      	ldr	r3, [r3, #12]
 80052c2:	607b      	str	r3, [r7, #4]
				( void ) uxListRemove( &( pxTCB->xStateListItem ) );
 80052c4:	687b      	ldr	r3, [r7, #4]
 80052c6:	3304      	adds	r3, #4
 80052c8:	4618      	mov	r0, r3
 80052ca:	f7ff fb7f 	bl	80049cc <uxListRemove>
				--uxCurrentNumberOfTasks;
 80052ce:	4b0d      	ldr	r3, [pc, #52]	@ (8005304 <prvCheckTasksWaitingTermination+0x54>)
 80052d0:	681b      	ldr	r3, [r3, #0]
 80052d2:	3b01      	subs	r3, #1
 80052d4:	4a0b      	ldr	r2, [pc, #44]	@ (8005304 <prvCheckTasksWaitingTermination+0x54>)
 80052d6:	6013      	str	r3, [r2, #0]
				--uxDeletedTasksWaitingCleanUp;
 80052d8:	4b0b      	ldr	r3, [pc, #44]	@ (8005308 <prvCheckTasksWaitingTermination+0x58>)
 80052da:	681b      	ldr	r3, [r3, #0]
 80052dc:	3b01      	subs	r3, #1
 80052de:	4a0a      	ldr	r2, [pc, #40]	@ (8005308 <prvCheckTasksWaitingTermination+0x58>)
 80052e0:	6013      	str	r3, [r2, #0]
			}
			taskEXIT_CRITICAL();
 80052e2:	f000 fb43 	bl	800596c <vPortExitCritical>

			prvDeleteTCB( pxTCB );
 80052e6:	6878      	ldr	r0, [r7, #4]
 80052e8:	f000 f810 	bl	800530c <prvDeleteTCB>
		while( uxDeletedTasksWaitingCleanUp > ( UBaseType_t ) 0U )
 80052ec:	4b06      	ldr	r3, [pc, #24]	@ (8005308 <prvCheckTasksWaitingTermination+0x58>)
 80052ee:	681b      	ldr	r3, [r3, #0]
 80052f0:	2b00      	cmp	r3, #0
 80052f2:	d1e1      	bne.n	80052b8 <prvCheckTasksWaitingTermination+0x8>
		}
	}
	#endif /* INCLUDE_vTaskDelete */
}
 80052f4:	bf00      	nop
 80052f6:	bf00      	nop
 80052f8:	3708      	adds	r7, #8
 80052fa:	46bd      	mov	sp, r7
 80052fc:	bd80      	pop	{r7, pc}
 80052fe:	bf00      	nop
 8005300:	20000494 	.word	0x20000494
 8005304:	200004c0 	.word	0x200004c0
 8005308:	200004a8 	.word	0x200004a8

0800530c <prvDeleteTCB>:
/*-----------------------------------------------------------*/

#if ( INCLUDE_vTaskDelete == 1 )

	static void prvDeleteTCB( TCB_t *pxTCB )
	{
 800530c:	b580      	push	{r7, lr}
 800530e:	b084      	sub	sp, #16
 8005310:	af00      	add	r7, sp, #0
 8005312:	6078      	str	r0, [r7, #4]
		#elif( tskSTATIC_AND_DYNAMIC_ALLOCATION_POSSIBLE != 0 ) /*lint !e731 !e9029 Macro has been consolidated for readability reasons. */
		{
			/* The task could have been allocated statically or dynamically, so
			check what was statically allocated before trying to free the
			memory. */
			if( pxTCB->ucStaticallyAllocated == tskDYNAMICALLY_ALLOCATED_STACK_AND_TCB )
 8005314:	687b      	ldr	r3, [r7, #4]
 8005316:	f893 3051 	ldrb.w	r3, [r3, #81]	@ 0x51
 800531a:	2b00      	cmp	r3, #0
 800531c:	d108      	bne.n	8005330 <prvDeleteTCB+0x24>
			{
				/* Both the stack and TCB were allocated dynamically, so both
				must be freed. */
				vPortFree( pxTCB->pxStack );
 800531e:	687b      	ldr	r3, [r7, #4]
 8005320:	6b1b      	ldr	r3, [r3, #48]	@ 0x30
 8005322:	4618      	mov	r0, r3
 8005324:	f000 fcc2 	bl	8005cac <vPortFree>
				vPortFree( pxTCB );
 8005328:	6878      	ldr	r0, [r7, #4]
 800532a:	f000 fcbf 	bl	8005cac <vPortFree>
				configASSERT( pxTCB->ucStaticallyAllocated == tskSTATICALLY_ALLOCATED_STACK_AND_TCB	);
				mtCOVERAGE_TEST_MARKER();
			}
		}
		#endif /* configSUPPORT_DYNAMIC_ALLOCATION */
	}
 800532e:	e019      	b.n	8005364 <prvDeleteTCB+0x58>
			else if( pxTCB->ucStaticallyAllocated == tskSTATICALLY_ALLOCATED_STACK_ONLY )
 8005330:	687b      	ldr	r3, [r7, #4]
 8005332:	f893 3051 	ldrb.w	r3, [r3, #81]	@ 0x51
 8005336:	2b01      	cmp	r3, #1
 8005338:	d103      	bne.n	8005342 <prvDeleteTCB+0x36>
				vPortFree( pxTCB );
 800533a:	6878      	ldr	r0, [r7, #4]
 800533c:	f000 fcb6 	bl	8005cac <vPortFree>
	}
 8005340:	e010      	b.n	8005364 <prvDeleteTCB+0x58>
				configASSERT( pxTCB->ucStaticallyAllocated == tskSTATICALLY_ALLOCATED_STACK_AND_TCB	);
 8005342:	687b      	ldr	r3, [r7, #4]
 8005344:	f893 3051 	ldrb.w	r3, [r3, #81]	@ 0x51
 8005348:	2b02      	cmp	r3, #2
 800534a:	d00b      	beq.n	8005364 <prvDeleteTCB+0x58>
	__asm volatile
 800534c:	f04f 0350 	mov.w	r3, #80	@ 0x50
 8005350:	f383 8811 	msr	BASEPRI, r3
 8005354:	f3bf 8f6f 	isb	sy
 8005358:	f3bf 8f4f 	dsb	sy
 800535c:	60fb      	str	r3, [r7, #12]
}
 800535e:	bf00      	nop
 8005360:	bf00      	nop
 8005362:	e7fd      	b.n	8005360 <prvDeleteTCB+0x54>
	}
 8005364:	bf00      	nop
 8005366:	3710      	adds	r7, #16
 8005368:	46bd      	mov	sp, r7
 800536a:	bd80      	pop	{r7, pc}

0800536c <prvResetNextTaskUnblockTime>:

#endif /* INCLUDE_vTaskDelete */
/*-----------------------------------------------------------*/

static void prvResetNextTaskUnblockTime( void )
{
 800536c:	b480      	push	{r7}
 800536e:	b083      	sub	sp, #12
 8005370:	af00      	add	r7, sp, #0
TCB_t *pxTCB;

	if( listLIST_IS_EMPTY( pxDelayedTaskList ) != pdFALSE )
 8005372:	4b0c      	ldr	r3, [pc, #48]	@ (80053a4 <prvResetNextTaskUnblockTime+0x38>)
 8005374:	681b      	ldr	r3, [r3, #0]
 8005376:	681b      	ldr	r3, [r3, #0]
 8005378:	2b00      	cmp	r3, #0
 800537a:	d104      	bne.n	8005386 <prvResetNextTaskUnblockTime+0x1a>
	{
		/* The new current delayed list is empty.  Set xNextTaskUnblockTime to
		the maximum possible value so it is	extremely unlikely that the
		if( xTickCount >= xNextTaskUnblockTime ) test will pass until
		there is an item in the delayed list. */
		xNextTaskUnblockTime = portMAX_DELAY;
 800537c:	4b0a      	ldr	r3, [pc, #40]	@ (80053a8 <prvResetNextTaskUnblockTime+0x3c>)
 800537e:	f04f 32ff 	mov.w	r2, #4294967295
 8005382:	601a      	str	r2, [r3, #0]
		which the task at the head of the delayed list should be removed
		from the Blocked state. */
		( pxTCB ) = listGET_OWNER_OF_HEAD_ENTRY( pxDelayedTaskList ); /*lint !e9079 void * is used as this macro is used with timers and co-routines too.  Alignment is known to be fine as the type of the pointer stored and retrieved is the same. */
		xNextTaskUnblockTime = listGET_LIST_ITEM_VALUE( &( ( pxTCB )->xStateListItem ) );
	}
}
 8005384:	e008      	b.n	8005398 <prvResetNextTaskUnblockTime+0x2c>
		( pxTCB ) = listGET_OWNER_OF_HEAD_ENTRY( pxDelayedTaskList ); /*lint !e9079 void * is used as this macro is used with timers and co-routines too.  Alignment is known to be fine as the type of the pointer stored and retrieved is the same. */
 8005386:	4b07      	ldr	r3, [pc, #28]	@ (80053a4 <prvResetNextTaskUnblockTime+0x38>)
 8005388:	681b      	ldr	r3, [r3, #0]
 800538a:	68db      	ldr	r3, [r3, #12]
 800538c:	68db      	ldr	r3, [r3, #12]
 800538e:	607b      	str	r3, [r7, #4]
		xNextTaskUnblockTime = listGET_LIST_ITEM_VALUE( &( ( pxTCB )->xStateListItem ) );
 8005390:	687b      	ldr	r3, [r7, #4]
 8005392:	685b      	ldr	r3, [r3, #4]
 8005394:	4a04      	ldr	r2, [pc, #16]	@ (80053a8 <prvResetNextTaskUnblockTime+0x3c>)
 8005396:	6013      	str	r3, [r2, #0]
}
 8005398:	bf00      	nop
 800539a:	370c      	adds	r7, #12
 800539c:	46bd      	mov	sp, r7
 800539e:	bc80      	pop	{r7}
 80053a0:	4770      	bx	lr
 80053a2:	bf00      	nop
 80053a4:	20000478 	.word	0x20000478
 80053a8:	200004e0 	.word	0x200004e0

080053ac <xTaskGetSchedulerState>:
/*-----------------------------------------------------------*/

#if ( ( INCLUDE_xTaskGetSchedulerState == 1 ) || ( configUSE_TIMERS == 1 ) )

	BaseType_t xTaskGetSchedulerState( void )
	{
 80053ac:	b480      	push	{r7}
 80053ae:	b083      	sub	sp, #12
 80053b0:	af00      	add	r7, sp, #0
	BaseType_t xReturn;

		if( xSchedulerRunning == pdFALSE )
 80053b2:	4b0b      	ldr	r3, [pc, #44]	@ (80053e0 <xTaskGetSchedulerState+0x34>)
 80053b4:	681b      	ldr	r3, [r3, #0]
 80053b6:	2b00      	cmp	r3, #0
 80053b8:	d102      	bne.n	80053c0 <xTaskGetSchedulerState+0x14>
		{
			xReturn = taskSCHEDULER_NOT_STARTED;
 80053ba:	2301      	movs	r3, #1
 80053bc:	607b      	str	r3, [r7, #4]
 80053be:	e008      	b.n	80053d2 <xTaskGetSchedulerState+0x26>
		}
		else
		{
			if( uxSchedulerSuspended == ( UBaseType_t ) pdFALSE )
 80053c0:	4b08      	ldr	r3, [pc, #32]	@ (80053e4 <xTaskGetSchedulerState+0x38>)
 80053c2:	681b      	ldr	r3, [r3, #0]
 80053c4:	2b00      	cmp	r3, #0
 80053c6:	d102      	bne.n	80053ce <xTaskGetSchedulerState+0x22>
			{
				xReturn = taskSCHEDULER_RUNNING;
 80053c8:	2302      	movs	r3, #2
 80053ca:	607b      	str	r3, [r7, #4]
 80053cc:	e001      	b.n	80053d2 <xTaskGetSchedulerState+0x26>
			}
			else
			{
				xReturn = taskSCHEDULER_SUSPENDED;
 80053ce:	2300      	movs	r3, #0
 80053d0:	607b      	str	r3, [r7, #4]
			}
		}

		return xReturn;
 80053d2:	687b      	ldr	r3, [r7, #4]
	}
 80053d4:	4618      	mov	r0, r3
 80053d6:	370c      	adds	r7, #12
 80053d8:	46bd      	mov	sp, r7
 80053da:	bc80      	pop	{r7}
 80053dc:	4770      	bx	lr
 80053de:	bf00      	nop
 80053e0:	200004cc 	.word	0x200004cc
 80053e4:	200004e8 	.word	0x200004e8

080053e8 <xTaskNotifyWait>:
/*-----------------------------------------------------------*/

#if( configUSE_TASK_NOTIFICATIONS == 1 )

	BaseType_t xTaskNotifyWait( uint32_t ulBitsToClearOnEntry, uint32_t ulBitsToClearOnExit, uint32_t *pulNotificationValue, TickType_t xTicksToWait )
	{
 80053e8:	b580      	push	{r7, lr}
 80053ea:	b086      	sub	sp, #24
 80053ec:	af00      	add	r7, sp, #0
 80053ee:	60f8      	str	r0, [r7, #12]
 80053f0:	60b9      	str	r1, [r7, #8]
 80053f2:	607a      	str	r2, [r7, #4]
 80053f4:	603b      	str	r3, [r7, #0]
	BaseType_t xReturn;

		taskENTER_CRITICAL();
 80053f6:	f000 fa89 	bl	800590c <vPortEnterCritical>
		{
			/* Only block if a notification is not already pending. */
			if( pxCurrentTCB->ucNotifyState != taskNOTIFICATION_RECEIVED )
 80053fa:	4b26      	ldr	r3, [pc, #152]	@ (8005494 <xTaskNotifyWait+0xac>)
 80053fc:	681b      	ldr	r3, [r3, #0]
 80053fe:	f893 3050 	ldrb.w	r3, [r3, #80]	@ 0x50
 8005402:	b2db      	uxtb	r3, r3
 8005404:	2b02      	cmp	r3, #2
 8005406:	d01a      	beq.n	800543e <xTaskNotifyWait+0x56>
			{
				/* Clear bits in the task's notification value as bits may get
				set	by the notifying task or interrupt.  This can be used to
				clear the value to zero. */
				pxCurrentTCB->ulNotifiedValue &= ~ulBitsToClearOnEntry;
 8005408:	4b22      	ldr	r3, [pc, #136]	@ (8005494 <xTaskNotifyWait+0xac>)
 800540a:	681b      	ldr	r3, [r3, #0]
 800540c:	6cd9      	ldr	r1, [r3, #76]	@ 0x4c
 800540e:	68fa      	ldr	r2, [r7, #12]
 8005410:	43d2      	mvns	r2, r2
 8005412:	400a      	ands	r2, r1
 8005414:	64da      	str	r2, [r3, #76]	@ 0x4c

				/* Mark this task as waiting for a notification. */
				pxCurrentTCB->ucNotifyState = taskWAITING_NOTIFICATION;
 8005416:	4b1f      	ldr	r3, [pc, #124]	@ (8005494 <xTaskNotifyWait+0xac>)
 8005418:	681b      	ldr	r3, [r3, #0]
 800541a:	2201      	movs	r2, #1
 800541c:	f883 2050 	strb.w	r2, [r3, #80]	@ 0x50

				if( xTicksToWait > ( TickType_t ) 0 )
 8005420:	683b      	ldr	r3, [r7, #0]
 8005422:	2b00      	cmp	r3, #0
 8005424:	d00b      	beq.n	800543e <xTaskNotifyWait+0x56>
				{
					prvAddCurrentTaskToDelayedList( xTicksToWait, pdTRUE );
 8005426:	2101      	movs	r1, #1
 8005428:	6838      	ldr	r0, [r7, #0]
 800542a:	f000 f915 	bl	8005658 <prvAddCurrentTaskToDelayedList>

					/* All ports are written to allow a yield in a critical
					section (some will yield immediately, others wait until the
					critical section exits) - but it is not something that
					application code should ever do. */
					portYIELD_WITHIN_API();
 800542e:	4b1a      	ldr	r3, [pc, #104]	@ (8005498 <xTaskNotifyWait+0xb0>)
 8005430:	f04f 5280 	mov.w	r2, #268435456	@ 0x10000000
 8005434:	601a      	str	r2, [r3, #0]
 8005436:	f3bf 8f4f 	dsb	sy
 800543a:	f3bf 8f6f 	isb	sy
			else
			{
				mtCOVERAGE_TEST_MARKER();
			}
		}
		taskEXIT_CRITICAL();
 800543e:	f000 fa95 	bl	800596c <vPortExitCritical>

		taskENTER_CRITICAL();
 8005442:	f000 fa63 	bl	800590c <vPortEnterCritical>
		{
			traceTASK_NOTIFY_WAIT();

			if( pulNotificationValue != NULL )
 8005446:	687b      	ldr	r3, [r7, #4]
 8005448:	2b00      	cmp	r3, #0
 800544a:	d004      	beq.n	8005456 <xTaskNotifyWait+0x6e>
			{
				/* Output the current notification value, which may or may not
				have changed. */
				*pulNotificationValue = pxCurrentTCB->ulNotifiedValue;
 800544c:	4b11      	ldr	r3, [pc, #68]	@ (8005494 <xTaskNotifyWait+0xac>)
 800544e:	681b      	ldr	r3, [r3, #0]
 8005450:	6cda      	ldr	r2, [r3, #76]	@ 0x4c
 8005452:	687b      	ldr	r3, [r7, #4]
 8005454:	601a      	str	r2, [r3, #0]

			/* If ucNotifyValue is set then either the task never entered the
			blocked state (because a notification was already pending) or the
			task unblocked because of a notification.  Otherwise the task
			unblocked because of a timeout. */
			if( pxCurrentTCB->ucNotifyState != taskNOTIFICATION_RECEIVED )
 8005456:	4b0f      	ldr	r3, [pc, #60]	@ (8005494 <xTaskNotifyWait+0xac>)
 8005458:	681b      	ldr	r3, [r3, #0]
 800545a:	f893 3050 	ldrb.w	r3, [r3, #80]	@ 0x50
 800545e:	b2db      	uxtb	r3, r3
 8005460:	2b02      	cmp	r3, #2
 8005462:	d002      	beq.n	800546a <xTaskNotifyWait+0x82>
			{
				/* A notification was not received. */
				xReturn = pdFALSE;
 8005464:	2300      	movs	r3, #0
 8005466:	617b      	str	r3, [r7, #20]
 8005468:	e008      	b.n	800547c <xTaskNotifyWait+0x94>
			}
			else
			{
				/* A notification was already pending or a notification was
				received while the task was waiting. */
				pxCurrentTCB->ulNotifiedValue &= ~ulBitsToClearOnExit;
 800546a:	4b0a      	ldr	r3, [pc, #40]	@ (8005494 <xTaskNotifyWait+0xac>)
 800546c:	681b      	ldr	r3, [r3, #0]
 800546e:	6cd9      	ldr	r1, [r3, #76]	@ 0x4c
 8005470:	68ba      	ldr	r2, [r7, #8]
 8005472:	43d2      	mvns	r2, r2
 8005474:	400a      	ands	r2, r1
 8005476:	64da      	str	r2, [r3, #76]	@ 0x4c
				xReturn = pdTRUE;
 8005478:	2301      	movs	r3, #1
 800547a:	617b      	str	r3, [r7, #20]
			}

			pxCurrentTCB->ucNotifyState = taskNOT_WAITING_NOTIFICATION;
 800547c:	4b05      	ldr	r3, [pc, #20]	@ (8005494 <xTaskNotifyWait+0xac>)
 800547e:	681b      	ldr	r3, [r3, #0]
 8005480:	2200      	movs	r2, #0
 8005482:	f883 2050 	strb.w	r2, [r3, #80]	@ 0x50
		}
		taskEXIT_CRITICAL();
 8005486:	f000 fa71 	bl	800596c <vPortExitCritical>

		return xReturn;
 800548a:	697b      	ldr	r3, [r7, #20]
	}
 800548c:	4618      	mov	r0, r3
 800548e:	3718      	adds	r7, #24
 8005490:	46bd      	mov	sp, r7
 8005492:	bd80      	pop	{r7, pc}
 8005494:	200003c0 	.word	0x200003c0
 8005498:	e000ed04 	.word	0xe000ed04

0800549c <xTaskGenericNotifyFromISR>:
/*-----------------------------------------------------------*/

#if( configUSE_TASK_NOTIFICATIONS == 1 )

	BaseType_t xTaskGenericNotifyFromISR( TaskHandle_t xTaskToNotify, uint32_t ulValue, eNotifyAction eAction, uint32_t *pulPreviousNotificationValue, BaseType_t *pxHigherPriorityTaskWoken )
	{
 800549c:	b580      	push	{r7, lr}
 800549e:	b08e      	sub	sp, #56	@ 0x38
 80054a0:	af00      	add	r7, sp, #0
 80054a2:	60f8      	str	r0, [r7, #12]
 80054a4:	60b9      	str	r1, [r7, #8]
 80054a6:	603b      	str	r3, [r7, #0]
 80054a8:	4613      	mov	r3, r2
 80054aa:	71fb      	strb	r3, [r7, #7]
	TCB_t * pxTCB;
	uint8_t ucOriginalNotifyState;
	BaseType_t xReturn = pdPASS;
 80054ac:	2301      	movs	r3, #1
 80054ae:	637b      	str	r3, [r7, #52]	@ 0x34
	UBaseType_t uxSavedInterruptStatus;

		configASSERT( xTaskToNotify );
 80054b0:	68fb      	ldr	r3, [r7, #12]
 80054b2:	2b00      	cmp	r3, #0
 80054b4:	d10b      	bne.n	80054ce <xTaskGenericNotifyFromISR+0x32>
	__asm volatile
 80054b6:	f04f 0350 	mov.w	r3, #80	@ 0x50
 80054ba:	f383 8811 	msr	BASEPRI, r3
 80054be:	f3bf 8f6f 	isb	sy
 80054c2:	f3bf 8f4f 	dsb	sy
 80054c6:	627b      	str	r3, [r7, #36]	@ 0x24
}
 80054c8:	bf00      	nop
 80054ca:	bf00      	nop
 80054cc:	e7fd      	b.n	80054ca <xTaskGenericNotifyFromISR+0x2e>
		below the maximum system call interrupt priority.  FreeRTOS maintains a
		separate interrupt safe API to ensure interrupt entry is as fast and as
		simple as possible.  More information (albeit Cortex-M specific) is
		provided on the following link:
		http://www.freertos.org/RTOS-Cortex-M3-M4.html */
		portASSERT_IF_INTERRUPT_PRIORITY_INVALID();
 80054ce:	f000 fadf 	bl	8005a90 <vPortValidateInterruptPriority>

		pxTCB = xTaskToNotify;
 80054d2:	68fb      	ldr	r3, [r7, #12]
 80054d4:	633b      	str	r3, [r7, #48]	@ 0x30

portFORCE_INLINE static uint32_t ulPortRaiseBASEPRI( void )
{
uint32_t ulOriginalBASEPRI, ulNewBASEPRI;

	__asm volatile
 80054d6:	f3ef 8211 	mrs	r2, BASEPRI
 80054da:	f04f 0350 	mov.w	r3, #80	@ 0x50
 80054de:	f383 8811 	msr	BASEPRI, r3
 80054e2:	f3bf 8f6f 	isb	sy
 80054e6:	f3bf 8f4f 	dsb	sy
 80054ea:	623a      	str	r2, [r7, #32]
 80054ec:	61fb      	str	r3, [r7, #28]
		:"=r" (ulOriginalBASEPRI), "=r" (ulNewBASEPRI) : "i" ( configMAX_SYSCALL_INTERRUPT_PRIORITY ) : "memory"
	);

	/* This return will not be reached but is necessary to prevent compiler
	warnings. */
	return ulOriginalBASEPRI;
 80054ee:	6a3b      	ldr	r3, [r7, #32]

		uxSavedInterruptStatus = portSET_INTERRUPT_MASK_FROM_ISR();
 80054f0:	62fb      	str	r3, [r7, #44]	@ 0x2c
		{
			if( pulPreviousNotificationValue != NULL )
 80054f2:	683b      	ldr	r3, [r7, #0]
 80054f4:	2b00      	cmp	r3, #0
 80054f6:	d003      	beq.n	8005500 <xTaskGenericNotifyFromISR+0x64>
			{
				*pulPreviousNotificationValue = pxTCB->ulNotifiedValue;
 80054f8:	6b3b      	ldr	r3, [r7, #48]	@ 0x30
 80054fa:	6cda      	ldr	r2, [r3, #76]	@ 0x4c
 80054fc:	683b      	ldr	r3, [r7, #0]
 80054fe:	601a      	str	r2, [r3, #0]
			}

			ucOriginalNotifyState = pxTCB->ucNotifyState;
 8005500:	6b3b      	ldr	r3, [r7, #48]	@ 0x30
 8005502:	f893 3050 	ldrb.w	r3, [r3, #80]	@ 0x50
 8005506:	f887 302b 	strb.w	r3, [r7, #43]	@ 0x2b
			pxTCB->ucNotifyState = taskNOTIFICATION_RECEIVED;
 800550a:	6b3b      	ldr	r3, [r7, #48]	@ 0x30
 800550c:	2202      	movs	r2, #2
 800550e:	f883 2050 	strb.w	r2, [r3, #80]	@ 0x50

			switch( eAction )
 8005512:	79fb      	ldrb	r3, [r7, #7]
 8005514:	2b04      	cmp	r3, #4
 8005516:	d829      	bhi.n	800556c <xTaskGenericNotifyFromISR+0xd0>
 8005518:	a201      	add	r2, pc, #4	@ (adr r2, 8005520 <xTaskGenericNotifyFromISR+0x84>)
 800551a:	f852 f023 	ldr.w	pc, [r2, r3, lsl #2]
 800551e:	bf00      	nop
 8005520:	0800558f 	.word	0x0800558f
 8005524:	08005535 	.word	0x08005535
 8005528:	08005543 	.word	0x08005543
 800552c:	0800554f 	.word	0x0800554f
 8005530:	08005557 	.word	0x08005557
			{
				case eSetBits	:
					pxTCB->ulNotifiedValue |= ulValue;
 8005534:	6b3b      	ldr	r3, [r7, #48]	@ 0x30
 8005536:	6cda      	ldr	r2, [r3, #76]	@ 0x4c
 8005538:	68bb      	ldr	r3, [r7, #8]
 800553a:	431a      	orrs	r2, r3
 800553c:	6b3b      	ldr	r3, [r7, #48]	@ 0x30
 800553e:	64da      	str	r2, [r3, #76]	@ 0x4c
					break;
 8005540:	e028      	b.n	8005594 <xTaskGenericNotifyFromISR+0xf8>

				case eIncrement	:
					( pxTCB->ulNotifiedValue )++;
 8005542:	6b3b      	ldr	r3, [r7, #48]	@ 0x30
 8005544:	6cdb      	ldr	r3, [r3, #76]	@ 0x4c
 8005546:	1c5a      	adds	r2, r3, #1
 8005548:	6b3b      	ldr	r3, [r7, #48]	@ 0x30
 800554a:	64da      	str	r2, [r3, #76]	@ 0x4c
					break;
 800554c:	e022      	b.n	8005594 <xTaskGenericNotifyFromISR+0xf8>

				case eSetValueWithOverwrite	:
					pxTCB->ulNotifiedValue = ulValue;
 800554e:	6b3b      	ldr	r3, [r7, #48]	@ 0x30
 8005550:	68ba      	ldr	r2, [r7, #8]
 8005552:	64da      	str	r2, [r3, #76]	@ 0x4c
					break;
 8005554:	e01e      	b.n	8005594 <xTaskGenericNotifyFromISR+0xf8>

				case eSetValueWithoutOverwrite :
					if( ucOriginalNotifyState != taskNOTIFICATION_RECEIVED )
 8005556:	f897 302b 	ldrb.w	r3, [r7, #43]	@ 0x2b
 800555a:	2b02      	cmp	r3, #2
 800555c:	d003      	beq.n	8005566 <xTaskGenericNotifyFromISR+0xca>
					{
						pxTCB->ulNotifiedValue = ulValue;
 800555e:	6b3b      	ldr	r3, [r7, #48]	@ 0x30
 8005560:	68ba      	ldr	r2, [r7, #8]
 8005562:	64da      	str	r2, [r3, #76]	@ 0x4c
					else
					{
						/* The value could not be written to the task. */
						xReturn = pdFAIL;
					}
					break;
 8005564:	e016      	b.n	8005594 <xTaskGenericNotifyFromISR+0xf8>
						xReturn = pdFAIL;
 8005566:	2300      	movs	r3, #0
 8005568:	637b      	str	r3, [r7, #52]	@ 0x34
					break;
 800556a:	e013      	b.n	8005594 <xTaskGenericNotifyFromISR+0xf8>

				default:
					/* Should not get here if all enums are handled.
					Artificially force an assert by testing a value the
					compiler can't assume is const. */
					configASSERT( pxTCB->ulNotifiedValue == ~0UL );
 800556c:	6b3b      	ldr	r3, [r7, #48]	@ 0x30
 800556e:	6cdb      	ldr	r3, [r3, #76]	@ 0x4c
 8005570:	f1b3 3fff 	cmp.w	r3, #4294967295
 8005574:	d00d      	beq.n	8005592 <xTaskGenericNotifyFromISR+0xf6>
	__asm volatile
 8005576:	f04f 0350 	mov.w	r3, #80	@ 0x50
 800557a:	f383 8811 	msr	BASEPRI, r3
 800557e:	f3bf 8f6f 	isb	sy
 8005582:	f3bf 8f4f 	dsb	sy
 8005586:	61bb      	str	r3, [r7, #24]
}
 8005588:	bf00      	nop
 800558a:	bf00      	nop
 800558c:	e7fd      	b.n	800558a <xTaskGenericNotifyFromISR+0xee>
					break;
 800558e:	bf00      	nop
 8005590:	e000      	b.n	8005594 <xTaskGenericNotifyFromISR+0xf8>
					break;
 8005592:	bf00      	nop

			traceTASK_NOTIFY_FROM_ISR();

			/* If the task is in the blocked state specifically to wait for a
			notification then unblock it now. */
			if( ucOriginalNotifyState == taskWAITING_NOTIFICATION )
 8005594:	f897 302b 	ldrb.w	r3, [r7, #43]	@ 0x2b
 8005598:	2b01      	cmp	r3, #1
 800559a:	d146      	bne.n	800562a <xTaskGenericNotifyFromISR+0x18e>
			{
				/* The task should not have been on an event list. */
				configASSERT( listLIST_ITEM_CONTAINER( &( pxTCB->xEventListItem ) ) == NULL );
 800559c:	6b3b      	ldr	r3, [r7, #48]	@ 0x30
 800559e:	6a9b      	ldr	r3, [r3, #40]	@ 0x28
 80055a0:	2b00      	cmp	r3, #0
 80055a2:	d00b      	beq.n	80055bc <xTaskGenericNotifyFromISR+0x120>
	__asm volatile
 80055a4:	f04f 0350 	mov.w	r3, #80	@ 0x50
 80055a8:	f383 8811 	msr	BASEPRI, r3
 80055ac:	f3bf 8f6f 	isb	sy
 80055b0:	f3bf 8f4f 	dsb	sy
 80055b4:	617b      	str	r3, [r7, #20]
}
 80055b6:	bf00      	nop
 80055b8:	bf00      	nop
 80055ba:	e7fd      	b.n	80055b8 <xTaskGenericNotifyFromISR+0x11c>

				if( uxSchedulerSuspended == ( UBaseType_t ) pdFALSE )
 80055bc:	4b20      	ldr	r3, [pc, #128]	@ (8005640 <xTaskGenericNotifyFromISR+0x1a4>)
 80055be:	681b      	ldr	r3, [r3, #0]
 80055c0:	2b00      	cmp	r3, #0
 80055c2:	d11c      	bne.n	80055fe <xTaskGenericNotifyFromISR+0x162>
				{
					( void ) uxListRemove( &( pxTCB->xStateListItem ) );
 80055c4:	6b3b      	ldr	r3, [r7, #48]	@ 0x30
 80055c6:	3304      	adds	r3, #4
 80055c8:	4618      	mov	r0, r3
 80055ca:	f7ff f9ff 	bl	80049cc <uxListRemove>
					prvAddTaskToReadyList( pxTCB );
 80055ce:	6b3b      	ldr	r3, [r7, #48]	@ 0x30
 80055d0:	6adb      	ldr	r3, [r3, #44]	@ 0x2c
 80055d2:	2201      	movs	r2, #1
 80055d4:	409a      	lsls	r2, r3
 80055d6:	4b1b      	ldr	r3, [pc, #108]	@ (8005644 <xTaskGenericNotifyFromISR+0x1a8>)
 80055d8:	681b      	ldr	r3, [r3, #0]
 80055da:	4313      	orrs	r3, r2
 80055dc:	4a19      	ldr	r2, [pc, #100]	@ (8005644 <xTaskGenericNotifyFromISR+0x1a8>)
 80055de:	6013      	str	r3, [r2, #0]
 80055e0:	6b3b      	ldr	r3, [r7, #48]	@ 0x30
 80055e2:	6ada      	ldr	r2, [r3, #44]	@ 0x2c
 80055e4:	4613      	mov	r3, r2
 80055e6:	009b      	lsls	r3, r3, #2
 80055e8:	4413      	add	r3, r2
 80055ea:	009b      	lsls	r3, r3, #2
 80055ec:	4a16      	ldr	r2, [pc, #88]	@ (8005648 <xTaskGenericNotifyFromISR+0x1ac>)
 80055ee:	441a      	add	r2, r3
 80055f0:	6b3b      	ldr	r3, [r7, #48]	@ 0x30
 80055f2:	3304      	adds	r3, #4
 80055f4:	4619      	mov	r1, r3
 80055f6:	4610      	mov	r0, r2
 80055f8:	f7ff f98d 	bl	8004916 <vListInsertEnd>
 80055fc:	e005      	b.n	800560a <xTaskGenericNotifyFromISR+0x16e>
				}
				else
				{
					/* The delayed and ready lists cannot be accessed, so hold
					this task pending until the scheduler is resumed. */
					vListInsertEnd( &( xPendingReadyList ), &( pxTCB->xEventListItem ) );
 80055fe:	6b3b      	ldr	r3, [r7, #48]	@ 0x30
 8005600:	3318      	adds	r3, #24
 8005602:	4619      	mov	r1, r3
 8005604:	4811      	ldr	r0, [pc, #68]	@ (800564c <xTaskGenericNotifyFromISR+0x1b0>)
 8005606:	f7ff f986 	bl	8004916 <vListInsertEnd>
				}

				if( pxTCB->uxPriority > pxCurrentTCB->uxPriority )
 800560a:	6b3b      	ldr	r3, [r7, #48]	@ 0x30
 800560c:	6ada      	ldr	r2, [r3, #44]	@ 0x2c
 800560e:	4b10      	ldr	r3, [pc, #64]	@ (8005650 <xTaskGenericNotifyFromISR+0x1b4>)
 8005610:	681b      	ldr	r3, [r3, #0]
 8005612:	6adb      	ldr	r3, [r3, #44]	@ 0x2c
 8005614:	429a      	cmp	r2, r3
 8005616:	d908      	bls.n	800562a <xTaskGenericNotifyFromISR+0x18e>
				{
					/* The notified task has a priority above the currently
					executing task so a yield is required. */
					if( pxHigherPriorityTaskWoken != NULL )
 8005618:	6c3b      	ldr	r3, [r7, #64]	@ 0x40
 800561a:	2b00      	cmp	r3, #0
 800561c:	d002      	beq.n	8005624 <xTaskGenericNotifyFromISR+0x188>
					{
						*pxHigherPriorityTaskWoken = pdTRUE;
 800561e:	6c3b      	ldr	r3, [r7, #64]	@ 0x40
 8005620:	2201      	movs	r2, #1
 8005622:	601a      	str	r2, [r3, #0]
					}

					/* Mark that a yield is pending in case the user is not
					using the "xHigherPriorityTaskWoken" parameter to an ISR
					safe FreeRTOS function. */
					xYieldPending = pdTRUE;
 8005624:	4b0b      	ldr	r3, [pc, #44]	@ (8005654 <xTaskGenericNotifyFromISR+0x1b8>)
 8005626:	2201      	movs	r2, #1
 8005628:	601a      	str	r2, [r3, #0]
 800562a:	6afb      	ldr	r3, [r7, #44]	@ 0x2c
 800562c:	613b      	str	r3, [r7, #16]
}
/*-----------------------------------------------------------*/

portFORCE_INLINE static void vPortSetBASEPRI( uint32_t ulNewMaskValue )
{
	__asm volatile
 800562e:	693b      	ldr	r3, [r7, #16]
 8005630:	f383 8811 	msr	BASEPRI, r3
	(
		"	msr basepri, %0	" :: "r" ( ulNewMaskValue ) : "memory"
	);
}
 8005634:	bf00      	nop
				}
			}
		}
		portCLEAR_INTERRUPT_MASK_FROM_ISR( uxSavedInterruptStatus );

		return xReturn;
 8005636:	6b7b      	ldr	r3, [r7, #52]	@ 0x34
	}
 8005638:	4618      	mov	r0, r3
 800563a:	3738      	adds	r7, #56	@ 0x38
 800563c:	46bd      	mov	sp, r7
 800563e:	bd80      	pop	{r7, pc}
 8005640:	200004e8 	.word	0x200004e8
 8005644:	200004c8 	.word	0x200004c8
 8005648:	200003c4 	.word	0x200003c4
 800564c:	20000480 	.word	0x20000480
 8005650:	200003c0 	.word	0x200003c0
 8005654:	200004d4 	.word	0x200004d4

08005658 <prvAddCurrentTaskToDelayedList>:

#endif
/*-----------------------------------------------------------*/

static void prvAddCurrentTaskToDelayedList( TickType_t xTicksToWait, const BaseType_t xCanBlockIndefinitely )
{
 8005658:	b580      	push	{r7, lr}
 800565a:	b084      	sub	sp, #16
 800565c:	af00      	add	r7, sp, #0
 800565e:	6078      	str	r0, [r7, #4]
 8005660:	6039      	str	r1, [r7, #0]
TickType_t xTimeToWake;
const TickType_t xConstTickCount = xTickCount;
 8005662:	4b29      	ldr	r3, [pc, #164]	@ (8005708 <prvAddCurrentTaskToDelayedList+0xb0>)
 8005664:	681b      	ldr	r3, [r3, #0]
 8005666:	60fb      	str	r3, [r7, #12]
	}
	#endif

	/* Remove the task from the ready list before adding it to the blocked list
	as the same list item is used for both lists. */
	if( uxListRemove( &( pxCurrentTCB->xStateListItem ) ) == ( UBaseType_t ) 0 )
 8005668:	4b28      	ldr	r3, [pc, #160]	@ (800570c <prvAddCurrentTaskToDelayedList+0xb4>)
 800566a:	681b      	ldr	r3, [r3, #0]
 800566c:	3304      	adds	r3, #4
 800566e:	4618      	mov	r0, r3
 8005670:	f7ff f9ac 	bl	80049cc <uxListRemove>
 8005674:	4603      	mov	r3, r0
 8005676:	2b00      	cmp	r3, #0
 8005678:	d10b      	bne.n	8005692 <prvAddCurrentTaskToDelayedList+0x3a>
	{
		/* The current task must be in a ready list, so there is no need to
		check, and the port reset macro can be called directly. */
		portRESET_READY_PRIORITY( pxCurrentTCB->uxPriority, uxTopReadyPriority ); /*lint !e931 pxCurrentTCB cannot change as it is the calling task.  pxCurrentTCB->uxPriority and uxTopReadyPriority cannot change as called with scheduler suspended or in a critical section. */
 800567a:	4b24      	ldr	r3, [pc, #144]	@ (800570c <prvAddCurrentTaskToDelayedList+0xb4>)
 800567c:	681b      	ldr	r3, [r3, #0]
 800567e:	6adb      	ldr	r3, [r3, #44]	@ 0x2c
 8005680:	2201      	movs	r2, #1
 8005682:	fa02 f303 	lsl.w	r3, r2, r3
 8005686:	43da      	mvns	r2, r3
 8005688:	4b21      	ldr	r3, [pc, #132]	@ (8005710 <prvAddCurrentTaskToDelayedList+0xb8>)
 800568a:	681b      	ldr	r3, [r3, #0]
 800568c:	4013      	ands	r3, r2
 800568e:	4a20      	ldr	r2, [pc, #128]	@ (8005710 <prvAddCurrentTaskToDelayedList+0xb8>)
 8005690:	6013      	str	r3, [r2, #0]
		mtCOVERAGE_TEST_MARKER();
	}

	#if ( INCLUDE_vTaskSuspend == 1 )
	{
		if( ( xTicksToWait == portMAX_DELAY ) && ( xCanBlockIndefinitely != pdFALSE ) )
 8005692:	687b      	ldr	r3, [r7, #4]
 8005694:	f1b3 3fff 	cmp.w	r3, #4294967295
 8005698:	d10a      	bne.n	80056b0 <prvAddCurrentTaskToDelayedList+0x58>
 800569a:	683b      	ldr	r3, [r7, #0]
 800569c:	2b00      	cmp	r3, #0
 800569e:	d007      	beq.n	80056b0 <prvAddCurrentTaskToDelayedList+0x58>
		{
			/* Add the task to the suspended task list instead of a delayed task
			list to ensure it is not woken by a timing event.  It will block
			indefinitely. */
			vListInsertEnd( &xSuspendedTaskList, &( pxCurrentTCB->xStateListItem ) );
 80056a0:	4b1a      	ldr	r3, [pc, #104]	@ (800570c <prvAddCurrentTaskToDelayedList+0xb4>)
 80056a2:	681b      	ldr	r3, [r3, #0]
 80056a4:	3304      	adds	r3, #4
 80056a6:	4619      	mov	r1, r3
 80056a8:	481a      	ldr	r0, [pc, #104]	@ (8005714 <prvAddCurrentTaskToDelayedList+0xbc>)
 80056aa:	f7ff f934 	bl	8004916 <vListInsertEnd>

		/* Avoid compiler warning when INCLUDE_vTaskSuspend is not 1. */
		( void ) xCanBlockIndefinitely;
	}
	#endif /* INCLUDE_vTaskSuspend */
}
 80056ae:	e026      	b.n	80056fe <prvAddCurrentTaskToDelayedList+0xa6>
			xTimeToWake = xConstTickCount + xTicksToWait;
 80056b0:	68fa      	ldr	r2, [r7, #12]
 80056b2:	687b      	ldr	r3, [r7, #4]
 80056b4:	4413      	add	r3, r2
 80056b6:	60bb      	str	r3, [r7, #8]
			listSET_LIST_ITEM_VALUE( &( pxCurrentTCB->xStateListItem ), xTimeToWake );
 80056b8:	4b14      	ldr	r3, [pc, #80]	@ (800570c <prvAddCurrentTaskToDelayedList+0xb4>)
 80056ba:	681b      	ldr	r3, [r3, #0]
 80056bc:	68ba      	ldr	r2, [r7, #8]
 80056be:	605a      	str	r2, [r3, #4]
			if( xTimeToWake < xConstTickCount )
 80056c0:	68ba      	ldr	r2, [r7, #8]
 80056c2:	68fb      	ldr	r3, [r7, #12]
 80056c4:	429a      	cmp	r2, r3
 80056c6:	d209      	bcs.n	80056dc <prvAddCurrentTaskToDelayedList+0x84>
				vListInsert( pxOverflowDelayedTaskList, &( pxCurrentTCB->xStateListItem ) );
 80056c8:	4b13      	ldr	r3, [pc, #76]	@ (8005718 <prvAddCurrentTaskToDelayedList+0xc0>)
 80056ca:	681a      	ldr	r2, [r3, #0]
 80056cc:	4b0f      	ldr	r3, [pc, #60]	@ (800570c <prvAddCurrentTaskToDelayedList+0xb4>)
 80056ce:	681b      	ldr	r3, [r3, #0]
 80056d0:	3304      	adds	r3, #4
 80056d2:	4619      	mov	r1, r3
 80056d4:	4610      	mov	r0, r2
 80056d6:	f7ff f941 	bl	800495c <vListInsert>
}
 80056da:	e010      	b.n	80056fe <prvAddCurrentTaskToDelayedList+0xa6>
				vListInsert( pxDelayedTaskList, &( pxCurrentTCB->xStateListItem ) );
 80056dc:	4b0f      	ldr	r3, [pc, #60]	@ (800571c <prvAddCurrentTaskToDelayedList+0xc4>)
 80056de:	681a      	ldr	r2, [r3, #0]
 80056e0:	4b0a      	ldr	r3, [pc, #40]	@ (800570c <prvAddCurrentTaskToDelayedList+0xb4>)
 80056e2:	681b      	ldr	r3, [r3, #0]
 80056e4:	3304      	adds	r3, #4
 80056e6:	4619      	mov	r1, r3
 80056e8:	4610      	mov	r0, r2
 80056ea:	f7ff f937 	bl	800495c <vListInsert>
				if( xTimeToWake < xNextTaskUnblockTime )
 80056ee:	4b0c      	ldr	r3, [pc, #48]	@ (8005720 <prvAddCurrentTaskToDelayedList+0xc8>)
 80056f0:	681b      	ldr	r3, [r3, #0]
 80056f2:	68ba      	ldr	r2, [r7, #8]
 80056f4:	429a      	cmp	r2, r3
 80056f6:	d202      	bcs.n	80056fe <prvAddCurrentTaskToDelayedList+0xa6>
					xNextTaskUnblockTime = xTimeToWake;
 80056f8:	4a09      	ldr	r2, [pc, #36]	@ (8005720 <prvAddCurrentTaskToDelayedList+0xc8>)
 80056fa:	68bb      	ldr	r3, [r7, #8]
 80056fc:	6013      	str	r3, [r2, #0]
}
 80056fe:	bf00      	nop
 8005700:	3710      	adds	r7, #16
 8005702:	46bd      	mov	sp, r7
 8005704:	bd80      	pop	{r7, pc}
 8005706:	bf00      	nop
 8005708:	200004c4 	.word	0x200004c4
 800570c:	200003c0 	.word	0x200003c0
 8005710:	200004c8 	.word	0x200004c8
 8005714:	200004ac 	.word	0x200004ac
 8005718:	2000047c 	.word	0x2000047c
 800571c:	20000478 	.word	0x20000478
 8005720:	200004e0 	.word	0x200004e0

08005724 <pxPortInitialiseStack>:

/*
 * See header file for description.
 */
StackType_t *pxPortInitialiseStack( StackType_t *pxTopOfStack, TaskFunction_t pxCode, void *pvParameters )
{
 8005724:	b480      	push	{r7}
 8005726:	b085      	sub	sp, #20
 8005728:	af00      	add	r7, sp, #0
 800572a:	60f8      	str	r0, [r7, #12]
 800572c:	60b9      	str	r1, [r7, #8]
 800572e:	607a      	str	r2, [r7, #4]
	/* Simulate the stack frame as it would be created by a context switch
	interrupt. */
	pxTopOfStack--; /* Offset added to account for the way the MCU uses the stack on entry/exit of interrupts. */
 8005730:	68fb      	ldr	r3, [r7, #12]
 8005732:	3b04      	subs	r3, #4
 8005734:	60fb      	str	r3, [r7, #12]
	*pxTopOfStack = portINITIAL_XPSR;	/* xPSR */
 8005736:	68fb      	ldr	r3, [r7, #12]
 8005738:	f04f 7280 	mov.w	r2, #16777216	@ 0x1000000
 800573c:	601a      	str	r2, [r3, #0]
	pxTopOfStack--;
 800573e:	68fb      	ldr	r3, [r7, #12]
 8005740:	3b04      	subs	r3, #4
 8005742:	60fb      	str	r3, [r7, #12]
	*pxTopOfStack = ( ( StackType_t ) pxCode ) & portSTART_ADDRESS_MASK;	/* PC */
 8005744:	68bb      	ldr	r3, [r7, #8]
 8005746:	f023 0201 	bic.w	r2, r3, #1
 800574a:	68fb      	ldr	r3, [r7, #12]
 800574c:	601a      	str	r2, [r3, #0]
	pxTopOfStack--;
 800574e:	68fb      	ldr	r3, [r7, #12]
 8005750:	3b04      	subs	r3, #4
 8005752:	60fb      	str	r3, [r7, #12]
	*pxTopOfStack = ( StackType_t ) portTASK_RETURN_ADDRESS;	/* LR */
 8005754:	4a08      	ldr	r2, [pc, #32]	@ (8005778 <pxPortInitialiseStack+0x54>)
 8005756:	68fb      	ldr	r3, [r7, #12]
 8005758:	601a      	str	r2, [r3, #0]
	pxTopOfStack -= 5;	/* R12, R3, R2 and R1. */
 800575a:	68fb      	ldr	r3, [r7, #12]
 800575c:	3b14      	subs	r3, #20
 800575e:	60fb      	str	r3, [r7, #12]
	*pxTopOfStack = ( StackType_t ) pvParameters;	/* R0 */
 8005760:	687a      	ldr	r2, [r7, #4]
 8005762:	68fb      	ldr	r3, [r7, #12]
 8005764:	601a      	str	r2, [r3, #0]
	pxTopOfStack -= 8;	/* R11, R10, R9, R8, R7, R6, R5 and R4. */
 8005766:	68fb      	ldr	r3, [r7, #12]
 8005768:	3b20      	subs	r3, #32
 800576a:	60fb      	str	r3, [r7, #12]

	return pxTopOfStack;
 800576c:	68fb      	ldr	r3, [r7, #12]
}
 800576e:	4618      	mov	r0, r3
 8005770:	3714      	adds	r7, #20
 8005772:	46bd      	mov	sp, r7
 8005774:	bc80      	pop	{r7}
 8005776:	4770      	bx	lr
 8005778:	0800577d 	.word	0x0800577d

0800577c <prvTaskExitError>:
/*-----------------------------------------------------------*/

static void prvTaskExitError( void )
{
 800577c:	b480      	push	{r7}
 800577e:	b085      	sub	sp, #20
 8005780:	af00      	add	r7, sp, #0
volatile uint32_t ulDummy = 0UL;
 8005782:	2300      	movs	r3, #0
 8005784:	607b      	str	r3, [r7, #4]
	its caller as there is nothing to return to.  If a task wants to exit it
	should instead call vTaskDelete( NULL ).

	Artificially force an assert() to be triggered if configASSERT() is
	defined, then stop here so application writers can catch the error. */
	configASSERT( uxCriticalNesting == ~0UL );
 8005786:	4b12      	ldr	r3, [pc, #72]	@ (80057d0 <prvTaskExitError+0x54>)
 8005788:	681b      	ldr	r3, [r3, #0]
 800578a:	f1b3 3fff 	cmp.w	r3, #4294967295
 800578e:	d00b      	beq.n	80057a8 <prvTaskExitError+0x2c>
	__asm volatile
 8005790:	f04f 0350 	mov.w	r3, #80	@ 0x50
 8005794:	f383 8811 	msr	BASEPRI, r3
 8005798:	f3bf 8f6f 	isb	sy
 800579c:	f3bf 8f4f 	dsb	sy
 80057a0:	60fb      	str	r3, [r7, #12]
}
 80057a2:	bf00      	nop
 80057a4:	bf00      	nop
 80057a6:	e7fd      	b.n	80057a4 <prvTaskExitError+0x28>
	__asm volatile
 80057a8:	f04f 0350 	mov.w	r3, #80	@ 0x50
 80057ac:	f383 8811 	msr	BASEPRI, r3
 80057b0:	f3bf 8f6f 	isb	sy
 80057b4:	f3bf 8f4f 	dsb	sy
 80057b8:	60bb      	str	r3, [r7, #8]
}
 80057ba:	bf00      	nop
	portDISABLE_INTERRUPTS();
	while( ulDummy == 0 )
 80057bc:	bf00      	nop
 80057be:	687b      	ldr	r3, [r7, #4]
 80057c0:	2b00      	cmp	r3, #0
 80057c2:	d0fc      	beq.n	80057be <prvTaskExitError+0x42>
		about code appearing after this function is called - making ulDummy
		volatile makes the compiler think the function could return and
		therefore not output an 'unreachable code' warning for code that appears
		after it. */
	}
}
 80057c4:	bf00      	nop
 80057c6:	bf00      	nop
 80057c8:	3714      	adds	r7, #20
 80057ca:	46bd      	mov	sp, r7
 80057cc:	bc80      	pop	{r7}
 80057ce:	4770      	bx	lr
 80057d0:	20000024 	.word	0x20000024
	...

080057e0 <SVC_Handler>:
/*-----------------------------------------------------------*/

void vPortSVCHandler( void )
{
	__asm volatile (
 80057e0:	4b07      	ldr	r3, [pc, #28]	@ (8005800 <pxCurrentTCBConst2>)
 80057e2:	6819      	ldr	r1, [r3, #0]
 80057e4:	6808      	ldr	r0, [r1, #0]
 80057e6:	e8b0 0ff0 	ldmia.w	r0!, {r4, r5, r6, r7, r8, r9, sl, fp}
 80057ea:	f380 8809 	msr	PSP, r0
 80057ee:	f3bf 8f6f 	isb	sy
 80057f2:	f04f 0000 	mov.w	r0, #0
 80057f6:	f380 8811 	msr	BASEPRI, r0
 80057fa:	f04e 0e0d 	orr.w	lr, lr, #13
 80057fe:	4770      	bx	lr

08005800 <pxCurrentTCBConst2>:
 8005800:	200003c0 	.word	0x200003c0
					"	bx r14							\n"
					"									\n"
					"	.align 4						\n"
					"pxCurrentTCBConst2: .word pxCurrentTCB				\n"
				);
}
 8005804:	bf00      	nop
 8005806:	bf00      	nop

08005808 <prvPortStartFirstTask>:
/*-----------------------------------------------------------*/

static void prvPortStartFirstTask( void )
{
	__asm volatile(
 8005808:	4806      	ldr	r0, [pc, #24]	@ (8005824 <prvPortStartFirstTask+0x1c>)
 800580a:	6800      	ldr	r0, [r0, #0]
 800580c:	6800      	ldr	r0, [r0, #0]
 800580e:	f380 8808 	msr	MSP, r0
 8005812:	b662      	cpsie	i
 8005814:	b661      	cpsie	f
 8005816:	f3bf 8f4f 	dsb	sy
 800581a:	f3bf 8f6f 	isb	sy
 800581e:	df00      	svc	0
 8005820:	bf00      	nop
					" dsb					\n"
					" isb					\n"
					" svc 0					\n" /* System call to start first task. */
					" nop					\n"
				);
}
 8005822:	bf00      	nop
 8005824:	e000ed08 	.word	0xe000ed08

08005828 <xPortStartScheduler>:

/*
 * See header file for description.
 */
BaseType_t xPortStartScheduler( void )
{
 8005828:	b580      	push	{r7, lr}
 800582a:	b084      	sub	sp, #16
 800582c:	af00      	add	r7, sp, #0
	configASSERT( configMAX_SYSCALL_INTERRUPT_PRIORITY );

	#if( configASSERT_DEFINED == 1 )
	{
		volatile uint32_t ulOriginalPriority;
		volatile uint8_t * const pucFirstUserPriorityRegister = ( volatile uint8_t * const ) ( portNVIC_IP_REGISTERS_OFFSET_16 + portFIRST_USER_INTERRUPT_NUMBER );
 800582e:	4b32      	ldr	r3, [pc, #200]	@ (80058f8 <xPortStartScheduler+0xd0>)
 8005830:	60fb      	str	r3, [r7, #12]
		functions can be called.  ISR safe functions are those that end in
		"FromISR".  FreeRTOS maintains separate thread and ISR API functions to
		ensure interrupt entry is as fast and simple as possible.

		Save the interrupt priority value that is about to be clobbered. */
		ulOriginalPriority = *pucFirstUserPriorityRegister;
 8005832:	68fb      	ldr	r3, [r7, #12]
 8005834:	781b      	ldrb	r3, [r3, #0]
 8005836:	b2db      	uxtb	r3, r3
 8005838:	607b      	str	r3, [r7, #4]

		/* Determine the number of priority bits available.  First write to all
		possible bits. */
		*pucFirstUserPriorityRegister = portMAX_8_BIT_VALUE;
 800583a:	68fb      	ldr	r3, [r7, #12]
 800583c:	22ff      	movs	r2, #255	@ 0xff
 800583e:	701a      	strb	r2, [r3, #0]

		/* Read the value back to see how many bits stuck. */
		ucMaxPriorityValue = *pucFirstUserPriorityRegister;
 8005840:	68fb      	ldr	r3, [r7, #12]
 8005842:	781b      	ldrb	r3, [r3, #0]
 8005844:	b2db      	uxtb	r3, r3
 8005846:	70fb      	strb	r3, [r7, #3]

		/* Use the same mask on the maximum system call priority. */
		ucMaxSysCallPriority = configMAX_SYSCALL_INTERRUPT_PRIORITY & ucMaxPriorityValue;
 8005848:	78fb      	ldrb	r3, [r7, #3]
 800584a:	b2db      	uxtb	r3, r3
 800584c:	f003 0350 	and.w	r3, r3, #80	@ 0x50
 8005850:	b2da      	uxtb	r2, r3
 8005852:	4b2a      	ldr	r3, [pc, #168]	@ (80058fc <xPortStartScheduler+0xd4>)
 8005854:	701a      	strb	r2, [r3, #0]

		/* Calculate the maximum acceptable priority group value for the number
		of bits read back. */
		ulMaxPRIGROUPValue = portMAX_PRIGROUP_BITS;
 8005856:	4b2a      	ldr	r3, [pc, #168]	@ (8005900 <xPortStartScheduler+0xd8>)
 8005858:	2207      	movs	r2, #7
 800585a:	601a      	str	r2, [r3, #0]
		while( ( ucMaxPriorityValue & portTOP_BIT_OF_BYTE ) == portTOP_BIT_OF_BYTE )
 800585c:	e009      	b.n	8005872 <xPortStartScheduler+0x4a>
		{
			ulMaxPRIGROUPValue--;
 800585e:	4b28      	ldr	r3, [pc, #160]	@ (8005900 <xPortStartScheduler+0xd8>)
 8005860:	681b      	ldr	r3, [r3, #0]
 8005862:	3b01      	subs	r3, #1
 8005864:	4a26      	ldr	r2, [pc, #152]	@ (8005900 <xPortStartScheduler+0xd8>)
 8005866:	6013      	str	r3, [r2, #0]
			ucMaxPriorityValue <<= ( uint8_t ) 0x01;
 8005868:	78fb      	ldrb	r3, [r7, #3]
 800586a:	b2db      	uxtb	r3, r3
 800586c:	005b      	lsls	r3, r3, #1
 800586e:	b2db      	uxtb	r3, r3
 8005870:	70fb      	strb	r3, [r7, #3]
		while( ( ucMaxPriorityValue & portTOP_BIT_OF_BYTE ) == portTOP_BIT_OF_BYTE )
 8005872:	78fb      	ldrb	r3, [r7, #3]
 8005874:	b2db      	uxtb	r3, r3
 8005876:	f003 0380 	and.w	r3, r3, #128	@ 0x80
 800587a:	2b80      	cmp	r3, #128	@ 0x80
 800587c:	d0ef      	beq.n	800585e <xPortStartScheduler+0x36>
		#ifdef configPRIO_BITS
		{
			/* Check the FreeRTOS configuration that defines the number of
			priority bits matches the number of priority bits actually queried
			from the hardware. */
			configASSERT( ( portMAX_PRIGROUP_BITS - ulMaxPRIGROUPValue ) == configPRIO_BITS );
 800587e:	4b20      	ldr	r3, [pc, #128]	@ (8005900 <xPortStartScheduler+0xd8>)
 8005880:	681b      	ldr	r3, [r3, #0]
 8005882:	f1c3 0307 	rsb	r3, r3, #7
 8005886:	2b04      	cmp	r3, #4
 8005888:	d00b      	beq.n	80058a2 <xPortStartScheduler+0x7a>
	__asm volatile
 800588a:	f04f 0350 	mov.w	r3, #80	@ 0x50
 800588e:	f383 8811 	msr	BASEPRI, r3
 8005892:	f3bf 8f6f 	isb	sy
 8005896:	f3bf 8f4f 	dsb	sy
 800589a:	60bb      	str	r3, [r7, #8]
}
 800589c:	bf00      	nop
 800589e:	bf00      	nop
 80058a0:	e7fd      	b.n	800589e <xPortStartScheduler+0x76>
		}
		#endif

		/* Shift the priority group value back to its position within the AIRCR
		register. */
		ulMaxPRIGROUPValue <<= portPRIGROUP_SHIFT;
 80058a2:	4b17      	ldr	r3, [pc, #92]	@ (8005900 <xPortStartScheduler+0xd8>)
 80058a4:	681b      	ldr	r3, [r3, #0]
 80058a6:	021b      	lsls	r3, r3, #8
 80058a8:	4a15      	ldr	r2, [pc, #84]	@ (8005900 <xPortStartScheduler+0xd8>)
 80058aa:	6013      	str	r3, [r2, #0]
		ulMaxPRIGROUPValue &= portPRIORITY_GROUP_MASK;
 80058ac:	4b14      	ldr	r3, [pc, #80]	@ (8005900 <xPortStartScheduler+0xd8>)
 80058ae:	681b      	ldr	r3, [r3, #0]
 80058b0:	f403 63e0 	and.w	r3, r3, #1792	@ 0x700
 80058b4:	4a12      	ldr	r2, [pc, #72]	@ (8005900 <xPortStartScheduler+0xd8>)
 80058b6:	6013      	str	r3, [r2, #0]

		/* Restore the clobbered interrupt priority register to its original
		value. */
		*pucFirstUserPriorityRegister = ulOriginalPriority;
 80058b8:	687b      	ldr	r3, [r7, #4]
 80058ba:	b2da      	uxtb	r2, r3
 80058bc:	68fb      	ldr	r3, [r7, #12]
 80058be:	701a      	strb	r2, [r3, #0]
	}
	#endif /* conifgASSERT_DEFINED */

	/* Make PendSV and SysTick the lowest priority interrupts. */
	portNVIC_SYSPRI2_REG |= portNVIC_PENDSV_PRI;
 80058c0:	4b10      	ldr	r3, [pc, #64]	@ (8005904 <xPortStartScheduler+0xdc>)
 80058c2:	681b      	ldr	r3, [r3, #0]
 80058c4:	4a0f      	ldr	r2, [pc, #60]	@ (8005904 <xPortStartScheduler+0xdc>)
 80058c6:	f443 0370 	orr.w	r3, r3, #15728640	@ 0xf00000
 80058ca:	6013      	str	r3, [r2, #0]
	portNVIC_SYSPRI2_REG |= portNVIC_SYSTICK_PRI;
 80058cc:	4b0d      	ldr	r3, [pc, #52]	@ (8005904 <xPortStartScheduler+0xdc>)
 80058ce:	681b      	ldr	r3, [r3, #0]
 80058d0:	4a0c      	ldr	r2, [pc, #48]	@ (8005904 <xPortStartScheduler+0xdc>)
 80058d2:	f043 4370 	orr.w	r3, r3, #4026531840	@ 0xf0000000
 80058d6:	6013      	str	r3, [r2, #0]

	/* Start the timer that generates the tick ISR.  Interrupts are disabled
	here already. */
	vPortSetupTimerInterrupt();
 80058d8:	f000 f8b8 	bl	8005a4c <vPortSetupTimerInterrupt>

	/* Initialise the critical nesting count ready for the first task. */
	uxCriticalNesting = 0;
 80058dc:	4b0a      	ldr	r3, [pc, #40]	@ (8005908 <xPortStartScheduler+0xe0>)
 80058de:	2200      	movs	r2, #0
 80058e0:	601a      	str	r2, [r3, #0]

	/* Start the first task. */
	prvPortStartFirstTask();
 80058e2:	f7ff ff91 	bl	8005808 <prvPortStartFirstTask>
	exit error function to prevent compiler warnings about a static function
	not being called in the case that the application writer overrides this
	functionality by defining configTASK_RETURN_ADDRESS.  Call
	vTaskSwitchContext() so link time optimisation does not remove the
	symbol. */
	vTaskSwitchContext();
 80058e6:	f7ff fc2f 	bl	8005148 <vTaskSwitchContext>
	prvTaskExitError();
 80058ea:	f7ff ff47 	bl	800577c <prvTaskExitError>

	/* Should not get here! */
	return 0;
 80058ee:	2300      	movs	r3, #0
}
 80058f0:	4618      	mov	r0, r3
 80058f2:	3710      	adds	r7, #16
 80058f4:	46bd      	mov	sp, r7
 80058f6:	bd80      	pop	{r7, pc}
 80058f8:	e000e400 	.word	0xe000e400
 80058fc:	200004ec 	.word	0x200004ec
 8005900:	200004f0 	.word	0x200004f0
 8005904:	e000ed20 	.word	0xe000ed20
 8005908:	20000024 	.word	0x20000024

0800590c <vPortEnterCritical>:
	configASSERT( uxCriticalNesting == 1000UL );
}
/*-----------------------------------------------------------*/

void vPortEnterCritical( void )
{
 800590c:	b480      	push	{r7}
 800590e:	b083      	sub	sp, #12
 8005910:	af00      	add	r7, sp, #0
	__asm volatile
 8005912:	f04f 0350 	mov.w	r3, #80	@ 0x50
 8005916:	f383 8811 	msr	BASEPRI, r3
 800591a:	f3bf 8f6f 	isb	sy
 800591e:	f3bf 8f4f 	dsb	sy
 8005922:	607b      	str	r3, [r7, #4]
}
 8005924:	bf00      	nop
	portDISABLE_INTERRUPTS();
	uxCriticalNesting++;
 8005926:	4b0f      	ldr	r3, [pc, #60]	@ (8005964 <vPortEnterCritical+0x58>)
 8005928:	681b      	ldr	r3, [r3, #0]
 800592a:	3301      	adds	r3, #1
 800592c:	4a0d      	ldr	r2, [pc, #52]	@ (8005964 <vPortEnterCritical+0x58>)
 800592e:	6013      	str	r3, [r2, #0]
	/* This is not the interrupt safe version of the enter critical function so
	assert() if it is being called from an interrupt context.  Only API
	functions that end in "FromISR" can be used in an interrupt.  Only assert if
	the critical nesting count is 1 to protect against recursive calls if the
	assert function also uses a critical section. */
	if( uxCriticalNesting == 1 )
 8005930:	4b0c      	ldr	r3, [pc, #48]	@ (8005964 <vPortEnterCritical+0x58>)
 8005932:	681b      	ldr	r3, [r3, #0]
 8005934:	2b01      	cmp	r3, #1
 8005936:	d110      	bne.n	800595a <vPortEnterCritical+0x4e>
	{
		configASSERT( ( portNVIC_INT_CTRL_REG & portVECTACTIVE_MASK ) == 0 );
 8005938:	4b0b      	ldr	r3, [pc, #44]	@ (8005968 <vPortEnterCritical+0x5c>)
 800593a:	681b      	ldr	r3, [r3, #0]
 800593c:	b2db      	uxtb	r3, r3
 800593e:	2b00      	cmp	r3, #0
 8005940:	d00b      	beq.n	800595a <vPortEnterCritical+0x4e>
	__asm volatile
 8005942:	f04f 0350 	mov.w	r3, #80	@ 0x50
 8005946:	f383 8811 	msr	BASEPRI, r3
 800594a:	f3bf 8f6f 	isb	sy
 800594e:	f3bf 8f4f 	dsb	sy
 8005952:	603b      	str	r3, [r7, #0]
}
 8005954:	bf00      	nop
 8005956:	bf00      	nop
 8005958:	e7fd      	b.n	8005956 <vPortEnterCritical+0x4a>
	}
}
 800595a:	bf00      	nop
 800595c:	370c      	adds	r7, #12
 800595e:	46bd      	mov	sp, r7
 8005960:	bc80      	pop	{r7}
 8005962:	4770      	bx	lr
 8005964:	20000024 	.word	0x20000024
 8005968:	e000ed04 	.word	0xe000ed04

0800596c <vPortExitCritical>:
/*-----------------------------------------------------------*/

void vPortExitCritical( void )
{
 800596c:	b480      	push	{r7}
 800596e:	b083      	sub	sp, #12
 8005970:	af00      	add	r7, sp, #0
	configASSERT( uxCriticalNesting );
 8005972:	4b12      	ldr	r3, [pc, #72]	@ (80059bc <vPortExitCritical+0x50>)
 8005974:	681b      	ldr	r3, [r3, #0]
 8005976:	2b00      	cmp	r3, #0
 8005978:	d10b      	bne.n	8005992 <vPortExitCritical+0x26>
	__asm volatile
 800597a:	f04f 0350 	mov.w	r3, #80	@ 0x50
 800597e:	f383 8811 	msr	BASEPRI, r3
 8005982:	f3bf 8f6f 	isb	sy
 8005986:	f3bf 8f4f 	dsb	sy
 800598a:	607b      	str	r3, [r7, #4]
}
 800598c:	bf00      	nop
 800598e:	bf00      	nop
 8005990:	e7fd      	b.n	800598e <vPortExitCritical+0x22>
	uxCriticalNesting--;
 8005992:	4b0a      	ldr	r3, [pc, #40]	@ (80059bc <vPortExitCritical+0x50>)
 8005994:	681b      	ldr	r3, [r3, #0]
 8005996:	3b01      	subs	r3, #1
 8005998:	4a08      	ldr	r2, [pc, #32]	@ (80059bc <vPortExitCritical+0x50>)
 800599a:	6013      	str	r3, [r2, #0]
	if( uxCriticalNesting == 0 )
 800599c:	4b07      	ldr	r3, [pc, #28]	@ (80059bc <vPortExitCritical+0x50>)
 800599e:	681b      	ldr	r3, [r3, #0]
 80059a0:	2b00      	cmp	r3, #0
 80059a2:	d105      	bne.n	80059b0 <vPortExitCritical+0x44>
 80059a4:	2300      	movs	r3, #0
 80059a6:	603b      	str	r3, [r7, #0]
	__asm volatile
 80059a8:	683b      	ldr	r3, [r7, #0]
 80059aa:	f383 8811 	msr	BASEPRI, r3
}
 80059ae:	bf00      	nop
	{
		portENABLE_INTERRUPTS();
	}
}
 80059b0:	bf00      	nop
 80059b2:	370c      	adds	r7, #12
 80059b4:	46bd      	mov	sp, r7
 80059b6:	bc80      	pop	{r7}
 80059b8:	4770      	bx	lr
 80059ba:	bf00      	nop
 80059bc:	20000024 	.word	0x20000024

080059c0 <PendSV_Handler>:

void xPortPendSVHandler( void )
{
	/* This is a naked function. */

	__asm volatile
 80059c0:	f3ef 8009 	mrs	r0, PSP
 80059c4:	f3bf 8f6f 	isb	sy
 80059c8:	4b0d      	ldr	r3, [pc, #52]	@ (8005a00 <pxCurrentTCBConst>)
 80059ca:	681a      	ldr	r2, [r3, #0]
 80059cc:	e920 0ff0 	stmdb	r0!, {r4, r5, r6, r7, r8, r9, sl, fp}
 80059d0:	6010      	str	r0, [r2, #0]
 80059d2:	e92d 4008 	stmdb	sp!, {r3, lr}
 80059d6:	f04f 0050 	mov.w	r0, #80	@ 0x50
 80059da:	f380 8811 	msr	BASEPRI, r0
 80059de:	f7ff fbb3 	bl	8005148 <vTaskSwitchContext>
 80059e2:	f04f 0000 	mov.w	r0, #0
 80059e6:	f380 8811 	msr	BASEPRI, r0
 80059ea:	e8bd 4008 	ldmia.w	sp!, {r3, lr}
 80059ee:	6819      	ldr	r1, [r3, #0]
 80059f0:	6808      	ldr	r0, [r1, #0]
 80059f2:	e8b0 0ff0 	ldmia.w	r0!, {r4, r5, r6, r7, r8, r9, sl, fp}
 80059f6:	f380 8809 	msr	PSP, r0
 80059fa:	f3bf 8f6f 	isb	sy
 80059fe:	4770      	bx	lr

08005a00 <pxCurrentTCBConst>:
 8005a00:	200003c0 	.word	0x200003c0
	"										\n"
	"	.align 4							\n"
	"pxCurrentTCBConst: .word pxCurrentTCB	\n"
	::"i"(configMAX_SYSCALL_INTERRUPT_PRIORITY)
	);
}
 8005a04:	bf00      	nop
 8005a06:	bf00      	nop

08005a08 <xPortSysTickHandler>:
/*-----------------------------------------------------------*/

void xPortSysTickHandler( void )
{
 8005a08:	b580      	push	{r7, lr}
 8005a0a:	b082      	sub	sp, #8
 8005a0c:	af00      	add	r7, sp, #0
	__asm volatile
 8005a0e:	f04f 0350 	mov.w	r3, #80	@ 0x50
 8005a12:	f383 8811 	msr	BASEPRI, r3
 8005a16:	f3bf 8f6f 	isb	sy
 8005a1a:	f3bf 8f4f 	dsb	sy
 8005a1e:	607b      	str	r3, [r7, #4]
}
 8005a20:	bf00      	nop
	save and then restore the interrupt mask value as its value is already
	known. */
	portDISABLE_INTERRUPTS();
	{
		/* Increment the RTOS tick. */
		if( xTaskIncrementTick() != pdFALSE )
 8005a22:	f7ff fad7 	bl	8004fd4 <xTaskIncrementTick>
 8005a26:	4603      	mov	r3, r0
 8005a28:	2b00      	cmp	r3, #0
 8005a2a:	d003      	beq.n	8005a34 <xPortSysTickHandler+0x2c>
		{
			/* A context switch is required.  Context switching is performed in
			the PendSV interrupt.  Pend the PendSV interrupt. */
			portNVIC_INT_CTRL_REG = portNVIC_PENDSVSET_BIT;
 8005a2c:	4b06      	ldr	r3, [pc, #24]	@ (8005a48 <xPortSysTickHandler+0x40>)
 8005a2e:	f04f 5280 	mov.w	r2, #268435456	@ 0x10000000
 8005a32:	601a      	str	r2, [r3, #0]
 8005a34:	2300      	movs	r3, #0
 8005a36:	603b      	str	r3, [r7, #0]
	__asm volatile
 8005a38:	683b      	ldr	r3, [r7, #0]
 8005a3a:	f383 8811 	msr	BASEPRI, r3
}
 8005a3e:	bf00      	nop
		}
	}
	portENABLE_INTERRUPTS();
}
 8005a40:	bf00      	nop
 8005a42:	3708      	adds	r7, #8
 8005a44:	46bd      	mov	sp, r7
 8005a46:	bd80      	pop	{r7, pc}
 8005a48:	e000ed04 	.word	0xe000ed04

08005a4c <vPortSetupTimerInterrupt>:
/*
 * Setup the systick timer to generate the tick interrupts at the required
 * frequency.
 */
__attribute__(( weak )) void vPortSetupTimerInterrupt( void )
{
 8005a4c:	b480      	push	{r7}
 8005a4e:	af00      	add	r7, sp, #0
		ulStoppedTimerCompensation = portMISSED_COUNTS_FACTOR / ( configCPU_CLOCK_HZ / configSYSTICK_CLOCK_HZ );
	}
	#endif /* configUSE_TICKLESS_IDLE */

	/* Stop and clear the SysTick. */
	portNVIC_SYSTICK_CTRL_REG = 0UL;
 8005a50:	4b0a      	ldr	r3, [pc, #40]	@ (8005a7c <vPortSetupTimerInterrupt+0x30>)
 8005a52:	2200      	movs	r2, #0
 8005a54:	601a      	str	r2, [r3, #0]
	portNVIC_SYSTICK_CURRENT_VALUE_REG = 0UL;
 8005a56:	4b0a      	ldr	r3, [pc, #40]	@ (8005a80 <vPortSetupTimerInterrupt+0x34>)
 8005a58:	2200      	movs	r2, #0
 8005a5a:	601a      	str	r2, [r3, #0]

	/* Configure SysTick to interrupt at the requested rate. */
	portNVIC_SYSTICK_LOAD_REG = ( configSYSTICK_CLOCK_HZ / configTICK_RATE_HZ ) - 1UL;
 8005a5c:	4b09      	ldr	r3, [pc, #36]	@ (8005a84 <vPortSetupTimerInterrupt+0x38>)
 8005a5e:	681b      	ldr	r3, [r3, #0]
 8005a60:	4a09      	ldr	r2, [pc, #36]	@ (8005a88 <vPortSetupTimerInterrupt+0x3c>)
 8005a62:	fba2 2303 	umull	r2, r3, r2, r3
 8005a66:	099b      	lsrs	r3, r3, #6
 8005a68:	4a08      	ldr	r2, [pc, #32]	@ (8005a8c <vPortSetupTimerInterrupt+0x40>)
 8005a6a:	3b01      	subs	r3, #1
 8005a6c:	6013      	str	r3, [r2, #0]
	portNVIC_SYSTICK_CTRL_REG = ( portNVIC_SYSTICK_CLK_BIT | portNVIC_SYSTICK_INT_BIT | portNVIC_SYSTICK_ENABLE_BIT );
 8005a6e:	4b03      	ldr	r3, [pc, #12]	@ (8005a7c <vPortSetupTimerInterrupt+0x30>)
 8005a70:	2207      	movs	r2, #7
 8005a72:	601a      	str	r2, [r3, #0]
}
 8005a74:	bf00      	nop
 8005a76:	46bd      	mov	sp, r7
 8005a78:	bc80      	pop	{r7}
 8005a7a:	4770      	bx	lr
 8005a7c:	e000e010 	.word	0xe000e010
 8005a80:	e000e018 	.word	0xe000e018
 8005a84:	20000018 	.word	0x20000018
 8005a88:	10624dd3 	.word	0x10624dd3
 8005a8c:	e000e014 	.word	0xe000e014

08005a90 <vPortValidateInterruptPriority>:
/*-----------------------------------------------------------*/

#if( configASSERT_DEFINED == 1 )

	void vPortValidateInterruptPriority( void )
	{
 8005a90:	b480      	push	{r7}
 8005a92:	b085      	sub	sp, #20
 8005a94:	af00      	add	r7, sp, #0
	uint32_t ulCurrentInterrupt;
	uint8_t ucCurrentPriority;

		/* Obtain the number of the currently executing interrupt. */
		__asm volatile( "mrs %0, ipsr" : "=r"( ulCurrentInterrupt ) :: "memory" );
 8005a96:	f3ef 8305 	mrs	r3, IPSR
 8005a9a:	60fb      	str	r3, [r7, #12]

		/* Is the interrupt number a user defined interrupt? */
		if( ulCurrentInterrupt >= portFIRST_USER_INTERRUPT_NUMBER )
 8005a9c:	68fb      	ldr	r3, [r7, #12]
 8005a9e:	2b0f      	cmp	r3, #15
 8005aa0:	d915      	bls.n	8005ace <vPortValidateInterruptPriority+0x3e>
		{
			/* Look up the interrupt's priority. */
			ucCurrentPriority = pcInterruptPriorityRegisters[ ulCurrentInterrupt ];
 8005aa2:	4a17      	ldr	r2, [pc, #92]	@ (8005b00 <vPortValidateInterruptPriority+0x70>)
 8005aa4:	68fb      	ldr	r3, [r7, #12]
 8005aa6:	4413      	add	r3, r2
 8005aa8:	781b      	ldrb	r3, [r3, #0]
 8005aaa:	72fb      	strb	r3, [r7, #11]
			interrupt entry is as fast and simple as possible.

			The following links provide detailed information:
			http://www.freertos.org/RTOS-Cortex-M3-M4.html
			http://www.freertos.org/FAQHelp.html */
			configASSERT( ucCurrentPriority >= ucMaxSysCallPriority );
 8005aac:	4b15      	ldr	r3, [pc, #84]	@ (8005b04 <vPortValidateInterruptPriority+0x74>)
 8005aae:	781b      	ldrb	r3, [r3, #0]
 8005ab0:	7afa      	ldrb	r2, [r7, #11]
 8005ab2:	429a      	cmp	r2, r3
 8005ab4:	d20b      	bcs.n	8005ace <vPortValidateInterruptPriority+0x3e>
	__asm volatile
 8005ab6:	f04f 0350 	mov.w	r3, #80	@ 0x50
 8005aba:	f383 8811 	msr	BASEPRI, r3
 8005abe:	f3bf 8f6f 	isb	sy
 8005ac2:	f3bf 8f4f 	dsb	sy
 8005ac6:	607b      	str	r3, [r7, #4]
}
 8005ac8:	bf00      	nop
 8005aca:	bf00      	nop
 8005acc:	e7fd      	b.n	8005aca <vPortValidateInterruptPriority+0x3a>
		configuration then the correct setting can be achieved on all Cortex-M
		devices by calling NVIC_SetPriorityGrouping( 0 ); before starting the
		scheduler.  Note however that some vendor specific peripheral libraries
		assume a non-zero priority group setting, in which cases using a value
		of zero will result in unpredictable behaviour. */
		configASSERT( ( portAIRCR_REG & portPRIORITY_GROUP_MASK ) <= ulMaxPRIGROUPValue );
 8005ace:	4b0e      	ldr	r3, [pc, #56]	@ (8005b08 <vPortValidateInterruptPriority+0x78>)
 8005ad0:	681b      	ldr	r3, [r3, #0]
 8005ad2:	f403 62e0 	and.w	r2, r3, #1792	@ 0x700
 8005ad6:	4b0d      	ldr	r3, [pc, #52]	@ (8005b0c <vPortValidateInterruptPriority+0x7c>)
 8005ad8:	681b      	ldr	r3, [r3, #0]
 8005ada:	429a      	cmp	r2, r3
 8005adc:	d90b      	bls.n	8005af6 <vPortValidateInterruptPriority+0x66>
	__asm volatile
 8005ade:	f04f 0350 	mov.w	r3, #80	@ 0x50
 8005ae2:	f383 8811 	msr	BASEPRI, r3
 8005ae6:	f3bf 8f6f 	isb	sy
 8005aea:	f3bf 8f4f 	dsb	sy
 8005aee:	603b      	str	r3, [r7, #0]
}
 8005af0:	bf00      	nop
 8005af2:	bf00      	nop
 8005af4:	e7fd      	b.n	8005af2 <vPortValidateInterruptPriority+0x62>
	}
 8005af6:	bf00      	nop
 8005af8:	3714      	adds	r7, #20
 8005afa:	46bd      	mov	sp, r7
 8005afc:	bc80      	pop	{r7}
 8005afe:	4770      	bx	lr
 8005b00:	e000e3f0 	.word	0xe000e3f0
 8005b04:	200004ec 	.word	0x200004ec
 8005b08:	e000ed0c 	.word	0xe000ed0c
 8005b0c:	200004f0 	.word	0x200004f0

08005b10 <pvPortMalloc>:
static size_t xBlockAllocatedBit = 0;

/*-----------------------------------------------------------*/

void *pvPortMalloc( size_t xWantedSize )
{
 8005b10:	b580      	push	{r7, lr}
 8005b12:	b08a      	sub	sp, #40	@ 0x28
 8005b14:	af00      	add	r7, sp, #0
 8005b16:	6078      	str	r0, [r7, #4]
BlockLink_t *pxBlock, *pxPreviousBlock, *pxNewBlockLink;
void *pvReturn = NULL;
 8005b18:	2300      	movs	r3, #0
 8005b1a:	61fb      	str	r3, [r7, #28]

	vTaskSuspendAll();
 8005b1c:	f7ff f9ae 	bl	8004e7c <vTaskSuspendAll>
	{
		/* If this is the first call to malloc then the heap will require
		initialisation to setup the list of free blocks. */
		if( pxEnd == NULL )
 8005b20:	4b5c      	ldr	r3, [pc, #368]	@ (8005c94 <pvPortMalloc+0x184>)
 8005b22:	681b      	ldr	r3, [r3, #0]
 8005b24:	2b00      	cmp	r3, #0
 8005b26:	d101      	bne.n	8005b2c <pvPortMalloc+0x1c>
		{
			prvHeapInit();
 8005b28:	f000 f924 	bl	8005d74 <prvHeapInit>

		/* Check the requested block size is not so large that the top bit is
		set.  The top bit of the block size member of the BlockLink_t structure
		is used to determine who owns the block - the application or the
		kernel, so it must be free. */
		if( ( xWantedSize & xBlockAllocatedBit ) == 0 )
 8005b2c:	4b5a      	ldr	r3, [pc, #360]	@ (8005c98 <pvPortMalloc+0x188>)
 8005b2e:	681a      	ldr	r2, [r3, #0]
 8005b30:	687b      	ldr	r3, [r7, #4]
 8005b32:	4013      	ands	r3, r2
 8005b34:	2b00      	cmp	r3, #0
 8005b36:	f040 8095 	bne.w	8005c64 <pvPortMalloc+0x154>
		{
			/* The wanted size is increased so it can contain a BlockLink_t
			structure in addition to the requested amount of bytes. */
			if( xWantedSize > 0 )
 8005b3a:	687b      	ldr	r3, [r7, #4]
 8005b3c:	2b00      	cmp	r3, #0
 8005b3e:	d01e      	beq.n	8005b7e <pvPortMalloc+0x6e>
			{
				xWantedSize += xHeapStructSize;
 8005b40:	2208      	movs	r2, #8
 8005b42:	687b      	ldr	r3, [r7, #4]
 8005b44:	4413      	add	r3, r2
 8005b46:	607b      	str	r3, [r7, #4]

				/* Ensure that blocks are always aligned to the required number
				of bytes. */
				if( ( xWantedSize & portBYTE_ALIGNMENT_MASK ) != 0x00 )
 8005b48:	687b      	ldr	r3, [r7, #4]
 8005b4a:	f003 0307 	and.w	r3, r3, #7
 8005b4e:	2b00      	cmp	r3, #0
 8005b50:	d015      	beq.n	8005b7e <pvPortMalloc+0x6e>
				{
					/* Byte alignment required. */
					xWantedSize += ( portBYTE_ALIGNMENT - ( xWantedSize & portBYTE_ALIGNMENT_MASK ) );
 8005b52:	687b      	ldr	r3, [r7, #4]
 8005b54:	f023 0307 	bic.w	r3, r3, #7
 8005b58:	3308      	adds	r3, #8
 8005b5a:	607b      	str	r3, [r7, #4]
					configASSERT( ( xWantedSize & portBYTE_ALIGNMENT_MASK ) == 0 );
 8005b5c:	687b      	ldr	r3, [r7, #4]
 8005b5e:	f003 0307 	and.w	r3, r3, #7
 8005b62:	2b00      	cmp	r3, #0
 8005b64:	d00b      	beq.n	8005b7e <pvPortMalloc+0x6e>
	__asm volatile
 8005b66:	f04f 0350 	mov.w	r3, #80	@ 0x50
 8005b6a:	f383 8811 	msr	BASEPRI, r3
 8005b6e:	f3bf 8f6f 	isb	sy
 8005b72:	f3bf 8f4f 	dsb	sy
 8005b76:	617b      	str	r3, [r7, #20]
}
 8005b78:	bf00      	nop
 8005b7a:	bf00      	nop
 8005b7c:	e7fd      	b.n	8005b7a <pvPortMalloc+0x6a>
			else
			{
				mtCOVERAGE_TEST_MARKER();
			}

			if( ( xWantedSize > 0 ) && ( xWantedSize <= xFreeBytesRemaining ) )
 8005b7e:	687b      	ldr	r3, [r7, #4]
 8005b80:	2b00      	cmp	r3, #0
 8005b82:	d06f      	beq.n	8005c64 <pvPortMalloc+0x154>
 8005b84:	4b45      	ldr	r3, [pc, #276]	@ (8005c9c <pvPortMalloc+0x18c>)
 8005b86:	681b      	ldr	r3, [r3, #0]
 8005b88:	687a      	ldr	r2, [r7, #4]
 8005b8a:	429a      	cmp	r2, r3
 8005b8c:	d86a      	bhi.n	8005c64 <pvPortMalloc+0x154>
			{
				/* Traverse the list from the start	(lowest address) block until
				one	of adequate size is found. */
				pxPreviousBlock = &xStart;
 8005b8e:	4b44      	ldr	r3, [pc, #272]	@ (8005ca0 <pvPortMalloc+0x190>)
 8005b90:	623b      	str	r3, [r7, #32]
				pxBlock = xStart.pxNextFreeBlock;
 8005b92:	4b43      	ldr	r3, [pc, #268]	@ (8005ca0 <pvPortMalloc+0x190>)
 8005b94:	681b      	ldr	r3, [r3, #0]
 8005b96:	627b      	str	r3, [r7, #36]	@ 0x24
				while( ( pxBlock->xBlockSize < xWantedSize ) && ( pxBlock->pxNextFreeBlock != NULL ) )
 8005b98:	e004      	b.n	8005ba4 <pvPortMalloc+0x94>
				{
					pxPreviousBlock = pxBlock;
 8005b9a:	6a7b      	ldr	r3, [r7, #36]	@ 0x24
 8005b9c:	623b      	str	r3, [r7, #32]
					pxBlock = pxBlock->pxNextFreeBlock;
 8005b9e:	6a7b      	ldr	r3, [r7, #36]	@ 0x24
 8005ba0:	681b      	ldr	r3, [r3, #0]
 8005ba2:	627b      	str	r3, [r7, #36]	@ 0x24
				while( ( pxBlock->xBlockSize < xWantedSize ) && ( pxBlock->pxNextFreeBlock != NULL ) )
 8005ba4:	6a7b      	ldr	r3, [r7, #36]	@ 0x24
 8005ba6:	685b      	ldr	r3, [r3, #4]
 8005ba8:	687a      	ldr	r2, [r7, #4]
 8005baa:	429a      	cmp	r2, r3
 8005bac:	d903      	bls.n	8005bb6 <pvPortMalloc+0xa6>
 8005bae:	6a7b      	ldr	r3, [r7, #36]	@ 0x24
 8005bb0:	681b      	ldr	r3, [r3, #0]
 8005bb2:	2b00      	cmp	r3, #0
 8005bb4:	d1f1      	bne.n	8005b9a <pvPortMalloc+0x8a>
				}

				/* If the end marker was reached then a block of adequate size
				was	not found. */
				if( pxBlock != pxEnd )
 8005bb6:	4b37      	ldr	r3, [pc, #220]	@ (8005c94 <pvPortMalloc+0x184>)
 8005bb8:	681b      	ldr	r3, [r3, #0]
 8005bba:	6a7a      	ldr	r2, [r7, #36]	@ 0x24
 8005bbc:	429a      	cmp	r2, r3
 8005bbe:	d051      	beq.n	8005c64 <pvPortMalloc+0x154>
				{
					/* Return the memory space pointed to - jumping over the
					BlockLink_t structure at its start. */
					pvReturn = ( void * ) ( ( ( uint8_t * ) pxPreviousBlock->pxNextFreeBlock ) + xHeapStructSize );
 8005bc0:	6a3b      	ldr	r3, [r7, #32]
 8005bc2:	681b      	ldr	r3, [r3, #0]
 8005bc4:	2208      	movs	r2, #8
 8005bc6:	4413      	add	r3, r2
 8005bc8:	61fb      	str	r3, [r7, #28]

					/* This block is being returned for use so must be taken out
					of the list of free blocks. */
					pxPreviousBlock->pxNextFreeBlock = pxBlock->pxNextFreeBlock;
 8005bca:	6a7b      	ldr	r3, [r7, #36]	@ 0x24
 8005bcc:	681a      	ldr	r2, [r3, #0]
 8005bce:	6a3b      	ldr	r3, [r7, #32]
 8005bd0:	601a      	str	r2, [r3, #0]

					/* If the block is larger than required it can be split into
					two. */
					if( ( pxBlock->xBlockSize - xWantedSize ) > heapMINIMUM_BLOCK_SIZE )
 8005bd2:	6a7b      	ldr	r3, [r7, #36]	@ 0x24
 8005bd4:	685a      	ldr	r2, [r3, #4]
 8005bd6:	687b      	ldr	r3, [r7, #4]
 8005bd8:	1ad2      	subs	r2, r2, r3
 8005bda:	2308      	movs	r3, #8
 8005bdc:	005b      	lsls	r3, r3, #1
 8005bde:	429a      	cmp	r2, r3
 8005be0:	d920      	bls.n	8005c24 <pvPortMalloc+0x114>
					{
						/* This block is to be split into two.  Create a new
						block following the number of bytes requested. The void
						cast is used to prevent byte alignment warnings from the
						compiler. */
						pxNewBlockLink = ( void * ) ( ( ( uint8_t * ) pxBlock ) + xWantedSize );
 8005be2:	6a7a      	ldr	r2, [r7, #36]	@ 0x24
 8005be4:	687b      	ldr	r3, [r7, #4]
 8005be6:	4413      	add	r3, r2
 8005be8:	61bb      	str	r3, [r7, #24]
						configASSERT( ( ( ( size_t ) pxNewBlockLink ) & portBYTE_ALIGNMENT_MASK ) == 0 );
 8005bea:	69bb      	ldr	r3, [r7, #24]
 8005bec:	f003 0307 	and.w	r3, r3, #7
 8005bf0:	2b00      	cmp	r3, #0
 8005bf2:	d00b      	beq.n	8005c0c <pvPortMalloc+0xfc>
	__asm volatile
 8005bf4:	f04f 0350 	mov.w	r3, #80	@ 0x50
 8005bf8:	f383 8811 	msr	BASEPRI, r3
 8005bfc:	f3bf 8f6f 	isb	sy
 8005c00:	f3bf 8f4f 	dsb	sy
 8005c04:	613b      	str	r3, [r7, #16]
}
 8005c06:	bf00      	nop
 8005c08:	bf00      	nop
 8005c0a:	e7fd      	b.n	8005c08 <pvPortMalloc+0xf8>

						/* Calculate the sizes of two blocks split from the
						single block. */
						pxNewBlockLink->xBlockSize = pxBlock->xBlockSize - xWantedSize;
 8005c0c:	6a7b      	ldr	r3, [r7, #36]	@ 0x24
 8005c0e:	685a      	ldr	r2, [r3, #4]
 8005c10:	687b      	ldr	r3, [r7, #4]
 8005c12:	1ad2      	subs	r2, r2, r3
 8005c14:	69bb      	ldr	r3, [r7, #24]
 8005c16:	605a      	str	r2, [r3, #4]
						pxBlock->xBlockSize = xWantedSize;
 8005c18:	6a7b      	ldr	r3, [r7, #36]	@ 0x24
 8005c1a:	687a      	ldr	r2, [r7, #4]
 8005c1c:	605a      	str	r2, [r3, #4]

						/* Insert the new block into the list of free blocks. */
						prvInsertBlockIntoFreeList( pxNewBlockLink );
 8005c1e:	69b8      	ldr	r0, [r7, #24]
 8005c20:	f000 f90a 	bl	8005e38 <prvInsertBlockIntoFreeList>
					else
					{
						mtCOVERAGE_TEST_MARKER();
					}

					xFreeBytesRemaining -= pxBlock->xBlockSize;
 8005c24:	4b1d      	ldr	r3, [pc, #116]	@ (8005c9c <pvPortMalloc+0x18c>)
 8005c26:	681a      	ldr	r2, [r3, #0]
 8005c28:	6a7b      	ldr	r3, [r7, #36]	@ 0x24
 8005c2a:	685b      	ldr	r3, [r3, #4]
 8005c2c:	1ad3      	subs	r3, r2, r3
 8005c2e:	4a1b      	ldr	r2, [pc, #108]	@ (8005c9c <pvPortMalloc+0x18c>)
 8005c30:	6013      	str	r3, [r2, #0]

					if( xFreeBytesRemaining < xMinimumEverFreeBytesRemaining )
 8005c32:	4b1a      	ldr	r3, [pc, #104]	@ (8005c9c <pvPortMalloc+0x18c>)
 8005c34:	681a      	ldr	r2, [r3, #0]
 8005c36:	4b1b      	ldr	r3, [pc, #108]	@ (8005ca4 <pvPortMalloc+0x194>)
 8005c38:	681b      	ldr	r3, [r3, #0]
 8005c3a:	429a      	cmp	r2, r3
 8005c3c:	d203      	bcs.n	8005c46 <pvPortMalloc+0x136>
					{
						xMinimumEverFreeBytesRemaining = xFreeBytesRemaining;
 8005c3e:	4b17      	ldr	r3, [pc, #92]	@ (8005c9c <pvPortMalloc+0x18c>)
 8005c40:	681b      	ldr	r3, [r3, #0]
 8005c42:	4a18      	ldr	r2, [pc, #96]	@ (8005ca4 <pvPortMalloc+0x194>)
 8005c44:	6013      	str	r3, [r2, #0]
						mtCOVERAGE_TEST_MARKER();
					}

					/* The block is being returned - it is allocated and owned
					by the application and has no "next" block. */
					pxBlock->xBlockSize |= xBlockAllocatedBit;
 8005c46:	6a7b      	ldr	r3, [r7, #36]	@ 0x24
 8005c48:	685a      	ldr	r2, [r3, #4]
 8005c4a:	4b13      	ldr	r3, [pc, #76]	@ (8005c98 <pvPortMalloc+0x188>)
 8005c4c:	681b      	ldr	r3, [r3, #0]
 8005c4e:	431a      	orrs	r2, r3
 8005c50:	6a7b      	ldr	r3, [r7, #36]	@ 0x24
 8005c52:	605a      	str	r2, [r3, #4]
					pxBlock->pxNextFreeBlock = NULL;
 8005c54:	6a7b      	ldr	r3, [r7, #36]	@ 0x24
 8005c56:	2200      	movs	r2, #0
 8005c58:	601a      	str	r2, [r3, #0]
					xNumberOfSuccessfulAllocations++;
 8005c5a:	4b13      	ldr	r3, [pc, #76]	@ (8005ca8 <pvPortMalloc+0x198>)
 8005c5c:	681b      	ldr	r3, [r3, #0]
 8005c5e:	3301      	adds	r3, #1
 8005c60:	4a11      	ldr	r2, [pc, #68]	@ (8005ca8 <pvPortMalloc+0x198>)
 8005c62:	6013      	str	r3, [r2, #0]
			mtCOVERAGE_TEST_MARKER();
		}

		traceMALLOC( pvReturn, xWantedSize );
	}
	( void ) xTaskResumeAll();
 8005c64:	f7ff f918 	bl	8004e98 <xTaskResumeAll>
			mtCOVERAGE_TEST_MARKER();
		}
	}
	#endif

	configASSERT( ( ( ( size_t ) pvReturn ) & ( size_t ) portBYTE_ALIGNMENT_MASK ) == 0 );
 8005c68:	69fb      	ldr	r3, [r7, #28]
 8005c6a:	f003 0307 	and.w	r3, r3, #7
 8005c6e:	2b00      	cmp	r3, #0
 8005c70:	d00b      	beq.n	8005c8a <pvPortMalloc+0x17a>
	__asm volatile
 8005c72:	f04f 0350 	mov.w	r3, #80	@ 0x50
 8005c76:	f383 8811 	msr	BASEPRI, r3
 8005c7a:	f3bf 8f6f 	isb	sy
 8005c7e:	f3bf 8f4f 	dsb	sy
 8005c82:	60fb      	str	r3, [r7, #12]
}
 8005c84:	bf00      	nop
 8005c86:	bf00      	nop
 8005c88:	e7fd      	b.n	8005c86 <pvPortMalloc+0x176>
	return pvReturn;
 8005c8a:	69fb      	ldr	r3, [r7, #28]
}
 8005c8c:	4618      	mov	r0, r3
 8005c8e:	3728      	adds	r7, #40	@ 0x28
 8005c90:	46bd      	mov	sp, r7
 8005c92:	bd80      	pop	{r7, pc}
 8005c94:	200010fc 	.word	0x200010fc
 8005c98:	20001110 	.word	0x20001110
 8005c9c:	20001100 	.word	0x20001100
 8005ca0:	200010f4 	.word	0x200010f4
 8005ca4:	20001104 	.word	0x20001104
 8005ca8:	20001108 	.word	0x20001108

08005cac <vPortFree>:
/*-----------------------------------------------------------*/

void vPortFree( void *pv )
{
 8005cac:	b580      	push	{r7, lr}
 8005cae:	b086      	sub	sp, #24
 8005cb0:	af00      	add	r7, sp, #0
 8005cb2:	6078      	str	r0, [r7, #4]
uint8_t *puc = ( uint8_t * ) pv;
 8005cb4:	687b      	ldr	r3, [r7, #4]
 8005cb6:	617b      	str	r3, [r7, #20]
BlockLink_t *pxLink;

	if( pv != NULL )
 8005cb8:	687b      	ldr	r3, [r7, #4]
 8005cba:	2b00      	cmp	r3, #0
 8005cbc:	d04f      	beq.n	8005d5e <vPortFree+0xb2>
	{
		/* The memory being freed will have an BlockLink_t structure immediately
		before it. */
		puc -= xHeapStructSize;
 8005cbe:	2308      	movs	r3, #8
 8005cc0:	425b      	negs	r3, r3
 8005cc2:	697a      	ldr	r2, [r7, #20]
 8005cc4:	4413      	add	r3, r2
 8005cc6:	617b      	str	r3, [r7, #20]

		/* This casting is to keep the compiler from issuing warnings. */
		pxLink = ( void * ) puc;
 8005cc8:	697b      	ldr	r3, [r7, #20]
 8005cca:	613b      	str	r3, [r7, #16]

		/* Check the block is actually allocated. */
		configASSERT( ( pxLink->xBlockSize & xBlockAllocatedBit ) != 0 );
 8005ccc:	693b      	ldr	r3, [r7, #16]
 8005cce:	685a      	ldr	r2, [r3, #4]
 8005cd0:	4b25      	ldr	r3, [pc, #148]	@ (8005d68 <vPortFree+0xbc>)
 8005cd2:	681b      	ldr	r3, [r3, #0]
 8005cd4:	4013      	ands	r3, r2
 8005cd6:	2b00      	cmp	r3, #0
 8005cd8:	d10b      	bne.n	8005cf2 <vPortFree+0x46>
	__asm volatile
 8005cda:	f04f 0350 	mov.w	r3, #80	@ 0x50
 8005cde:	f383 8811 	msr	BASEPRI, r3
 8005ce2:	f3bf 8f6f 	isb	sy
 8005ce6:	f3bf 8f4f 	dsb	sy
 8005cea:	60fb      	str	r3, [r7, #12]
}
 8005cec:	bf00      	nop
 8005cee:	bf00      	nop
 8005cf0:	e7fd      	b.n	8005cee <vPortFree+0x42>
		configASSERT( pxLink->pxNextFreeBlock == NULL );
 8005cf2:	693b      	ldr	r3, [r7, #16]
 8005cf4:	681b      	ldr	r3, [r3, #0]
 8005cf6:	2b00      	cmp	r3, #0
 8005cf8:	d00b      	beq.n	8005d12 <vPortFree+0x66>
	__asm volatile
 8005cfa:	f04f 0350 	mov.w	r3, #80	@ 0x50
 8005cfe:	f383 8811 	msr	BASEPRI, r3
 8005d02:	f3bf 8f6f 	isb	sy
 8005d06:	f3bf 8f4f 	dsb	sy
 8005d0a:	60bb      	str	r3, [r7, #8]
}
 8005d0c:	bf00      	nop
 8005d0e:	bf00      	nop
 8005d10:	e7fd      	b.n	8005d0e <vPortFree+0x62>

		if( ( pxLink->xBlockSize & xBlockAllocatedBit ) != 0 )
 8005d12:	693b      	ldr	r3, [r7, #16]
 8005d14:	685a      	ldr	r2, [r3, #4]
 8005d16:	4b14      	ldr	r3, [pc, #80]	@ (8005d68 <vPortFree+0xbc>)
 8005d18:	681b      	ldr	r3, [r3, #0]
 8005d1a:	4013      	ands	r3, r2
 8005d1c:	2b00      	cmp	r3, #0
 8005d1e:	d01e      	beq.n	8005d5e <vPortFree+0xb2>
		{
			if( pxLink->pxNextFreeBlock == NULL )
 8005d20:	693b      	ldr	r3, [r7, #16]
 8005d22:	681b      	ldr	r3, [r3, #0]
 8005d24:	2b00      	cmp	r3, #0
 8005d26:	d11a      	bne.n	8005d5e <vPortFree+0xb2>
			{
				/* The block is being returned to the heap - it is no longer
				allocated. */
				pxLink->xBlockSize &= ~xBlockAllocatedBit;
 8005d28:	693b      	ldr	r3, [r7, #16]
 8005d2a:	685a      	ldr	r2, [r3, #4]
 8005d2c:	4b0e      	ldr	r3, [pc, #56]	@ (8005d68 <vPortFree+0xbc>)
 8005d2e:	681b      	ldr	r3, [r3, #0]
 8005d30:	43db      	mvns	r3, r3
 8005d32:	401a      	ands	r2, r3
 8005d34:	693b      	ldr	r3, [r7, #16]
 8005d36:	605a      	str	r2, [r3, #4]

				vTaskSuspendAll();
 8005d38:	f7ff f8a0 	bl	8004e7c <vTaskSuspendAll>
				{
					/* Add this block to the list of free blocks. */
					xFreeBytesRemaining += pxLink->xBlockSize;
 8005d3c:	693b      	ldr	r3, [r7, #16]
 8005d3e:	685a      	ldr	r2, [r3, #4]
 8005d40:	4b0a      	ldr	r3, [pc, #40]	@ (8005d6c <vPortFree+0xc0>)
 8005d42:	681b      	ldr	r3, [r3, #0]
 8005d44:	4413      	add	r3, r2
 8005d46:	4a09      	ldr	r2, [pc, #36]	@ (8005d6c <vPortFree+0xc0>)
 8005d48:	6013      	str	r3, [r2, #0]
					traceFREE( pv, pxLink->xBlockSize );
					prvInsertBlockIntoFreeList( ( ( BlockLink_t * ) pxLink ) );
 8005d4a:	6938      	ldr	r0, [r7, #16]
 8005d4c:	f000 f874 	bl	8005e38 <prvInsertBlockIntoFreeList>
					xNumberOfSuccessfulFrees++;
 8005d50:	4b07      	ldr	r3, [pc, #28]	@ (8005d70 <vPortFree+0xc4>)
 8005d52:	681b      	ldr	r3, [r3, #0]
 8005d54:	3301      	adds	r3, #1
 8005d56:	4a06      	ldr	r2, [pc, #24]	@ (8005d70 <vPortFree+0xc4>)
 8005d58:	6013      	str	r3, [r2, #0]
				}
				( void ) xTaskResumeAll();
 8005d5a:	f7ff f89d 	bl	8004e98 <xTaskResumeAll>
		else
		{
			mtCOVERAGE_TEST_MARKER();
		}
	}
}
 8005d5e:	bf00      	nop
 8005d60:	3718      	adds	r7, #24
 8005d62:	46bd      	mov	sp, r7
 8005d64:	bd80      	pop	{r7, pc}
 8005d66:	bf00      	nop
 8005d68:	20001110 	.word	0x20001110
 8005d6c:	20001100 	.word	0x20001100
 8005d70:	2000110c 	.word	0x2000110c

08005d74 <prvHeapInit>:
	/* This just exists to keep the linker quiet. */
}
/*-----------------------------------------------------------*/

static void prvHeapInit( void )
{
 8005d74:	b480      	push	{r7}
 8005d76:	b085      	sub	sp, #20
 8005d78:	af00      	add	r7, sp, #0
BlockLink_t *pxFirstFreeBlock;
uint8_t *pucAlignedHeap;
size_t uxAddress;
size_t xTotalHeapSize = configTOTAL_HEAP_SIZE;
 8005d7a:	f44f 6340 	mov.w	r3, #3072	@ 0xc00
 8005d7e:	60bb      	str	r3, [r7, #8]

	/* Ensure the heap starts on a correctly aligned boundary. */
	uxAddress = ( size_t ) ucHeap;
 8005d80:	4b27      	ldr	r3, [pc, #156]	@ (8005e20 <prvHeapInit+0xac>)
 8005d82:	60fb      	str	r3, [r7, #12]

	if( ( uxAddress & portBYTE_ALIGNMENT_MASK ) != 0 )
 8005d84:	68fb      	ldr	r3, [r7, #12]
 8005d86:	f003 0307 	and.w	r3, r3, #7
 8005d8a:	2b00      	cmp	r3, #0
 8005d8c:	d00c      	beq.n	8005da8 <prvHeapInit+0x34>
	{
		uxAddress += ( portBYTE_ALIGNMENT - 1 );
 8005d8e:	68fb      	ldr	r3, [r7, #12]
 8005d90:	3307      	adds	r3, #7
 8005d92:	60fb      	str	r3, [r7, #12]
		uxAddress &= ~( ( size_t ) portBYTE_ALIGNMENT_MASK );
 8005d94:	68fb      	ldr	r3, [r7, #12]
 8005d96:	f023 0307 	bic.w	r3, r3, #7
 8005d9a:	60fb      	str	r3, [r7, #12]
		xTotalHeapSize -= uxAddress - ( size_t ) ucHeap;
 8005d9c:	68ba      	ldr	r2, [r7, #8]
 8005d9e:	68fb      	ldr	r3, [r7, #12]
 8005da0:	1ad3      	subs	r3, r2, r3
 8005da2:	4a1f      	ldr	r2, [pc, #124]	@ (8005e20 <prvHeapInit+0xac>)
 8005da4:	4413      	add	r3, r2
 8005da6:	60bb      	str	r3, [r7, #8]
	}

	pucAlignedHeap = ( uint8_t * ) uxAddress;
 8005da8:	68fb      	ldr	r3, [r7, #12]
 8005daa:	607b      	str	r3, [r7, #4]

	/* xStart is used to hold a pointer to the first item in the list of free
	blocks.  The void cast is used to prevent compiler warnings. */
	xStart.pxNextFreeBlock = ( void * ) pucAlignedHeap;
 8005dac:	4a1d      	ldr	r2, [pc, #116]	@ (8005e24 <prvHeapInit+0xb0>)
 8005dae:	687b      	ldr	r3, [r7, #4]
 8005db0:	6013      	str	r3, [r2, #0]
	xStart.xBlockSize = ( size_t ) 0;
 8005db2:	4b1c      	ldr	r3, [pc, #112]	@ (8005e24 <prvHeapInit+0xb0>)
 8005db4:	2200      	movs	r2, #0
 8005db6:	605a      	str	r2, [r3, #4]

	/* pxEnd is used to mark the end of the list of free blocks and is inserted
	at the end of the heap space. */
	uxAddress = ( ( size_t ) pucAlignedHeap ) + xTotalHeapSize;
 8005db8:	687b      	ldr	r3, [r7, #4]
 8005dba:	68ba      	ldr	r2, [r7, #8]
 8005dbc:	4413      	add	r3, r2
 8005dbe:	60fb      	str	r3, [r7, #12]
	uxAddress -= xHeapStructSize;
 8005dc0:	2208      	movs	r2, #8
 8005dc2:	68fb      	ldr	r3, [r7, #12]
 8005dc4:	1a9b      	subs	r3, r3, r2
 8005dc6:	60fb      	str	r3, [r7, #12]
	uxAddress &= ~( ( size_t ) portBYTE_ALIGNMENT_MASK );
 8005dc8:	68fb      	ldr	r3, [r7, #12]
 8005dca:	f023 0307 	bic.w	r3, r3, #7
 8005dce:	60fb      	str	r3, [r7, #12]
	pxEnd = ( void * ) uxAddress;
 8005dd0:	68fb      	ldr	r3, [r7, #12]
 8005dd2:	4a15      	ldr	r2, [pc, #84]	@ (8005e28 <prvHeapInit+0xb4>)
 8005dd4:	6013      	str	r3, [r2, #0]
	pxEnd->xBlockSize = 0;
 8005dd6:	4b14      	ldr	r3, [pc, #80]	@ (8005e28 <prvHeapInit+0xb4>)
 8005dd8:	681b      	ldr	r3, [r3, #0]
 8005dda:	2200      	movs	r2, #0
 8005ddc:	605a      	str	r2, [r3, #4]
	pxEnd->pxNextFreeBlock = NULL;
 8005dde:	4b12      	ldr	r3, [pc, #72]	@ (8005e28 <prvHeapInit+0xb4>)
 8005de0:	681b      	ldr	r3, [r3, #0]
 8005de2:	2200      	movs	r2, #0
 8005de4:	601a      	str	r2, [r3, #0]

	/* To start with there is a single free block that is sized to take up the
	entire heap space, minus the space taken by pxEnd. */
	pxFirstFreeBlock = ( void * ) pucAlignedHeap;
 8005de6:	687b      	ldr	r3, [r7, #4]
 8005de8:	603b      	str	r3, [r7, #0]
	pxFirstFreeBlock->xBlockSize = uxAddress - ( size_t ) pxFirstFreeBlock;
 8005dea:	683b      	ldr	r3, [r7, #0]
 8005dec:	68fa      	ldr	r2, [r7, #12]
 8005dee:	1ad2      	subs	r2, r2, r3
 8005df0:	683b      	ldr	r3, [r7, #0]
 8005df2:	605a      	str	r2, [r3, #4]
	pxFirstFreeBlock->pxNextFreeBlock = pxEnd;
 8005df4:	4b0c      	ldr	r3, [pc, #48]	@ (8005e28 <prvHeapInit+0xb4>)
 8005df6:	681a      	ldr	r2, [r3, #0]
 8005df8:	683b      	ldr	r3, [r7, #0]
 8005dfa:	601a      	str	r2, [r3, #0]

	/* Only one block exists - and it covers the entire usable heap space. */
	xMinimumEverFreeBytesRemaining = pxFirstFreeBlock->xBlockSize;
 8005dfc:	683b      	ldr	r3, [r7, #0]
 8005dfe:	685b      	ldr	r3, [r3, #4]
 8005e00:	4a0a      	ldr	r2, [pc, #40]	@ (8005e2c <prvHeapInit+0xb8>)
 8005e02:	6013      	str	r3, [r2, #0]
	xFreeBytesRemaining = pxFirstFreeBlock->xBlockSize;
 8005e04:	683b      	ldr	r3, [r7, #0]
 8005e06:	685b      	ldr	r3, [r3, #4]
 8005e08:	4a09      	ldr	r2, [pc, #36]	@ (8005e30 <prvHeapInit+0xbc>)
 8005e0a:	6013      	str	r3, [r2, #0]

	/* Work out the position of the top bit in a size_t variable. */
	xBlockAllocatedBit = ( ( size_t ) 1 ) << ( ( sizeof( size_t ) * heapBITS_PER_BYTE ) - 1 );
 8005e0c:	4b09      	ldr	r3, [pc, #36]	@ (8005e34 <prvHeapInit+0xc0>)
 8005e0e:	f04f 4200 	mov.w	r2, #2147483648	@ 0x80000000
 8005e12:	601a      	str	r2, [r3, #0]
}
 8005e14:	bf00      	nop
 8005e16:	3714      	adds	r7, #20
 8005e18:	46bd      	mov	sp, r7
 8005e1a:	bc80      	pop	{r7}
 8005e1c:	4770      	bx	lr
 8005e1e:	bf00      	nop
 8005e20:	200004f4 	.word	0x200004f4
 8005e24:	200010f4 	.word	0x200010f4
 8005e28:	200010fc 	.word	0x200010fc
 8005e2c:	20001104 	.word	0x20001104
 8005e30:	20001100 	.word	0x20001100
 8005e34:	20001110 	.word	0x20001110

08005e38 <prvInsertBlockIntoFreeList>:
/*-----------------------------------------------------------*/

static void prvInsertBlockIntoFreeList( BlockLink_t *pxBlockToInsert )
{
 8005e38:	b480      	push	{r7}
 8005e3a:	b085      	sub	sp, #20
 8005e3c:	af00      	add	r7, sp, #0
 8005e3e:	6078      	str	r0, [r7, #4]
BlockLink_t *pxIterator;
uint8_t *puc;

	/* Iterate through the list until a block is found that has a higher address
	than the block being inserted. */
	for( pxIterator = &xStart; pxIterator->pxNextFreeBlock < pxBlockToInsert; pxIterator = pxIterator->pxNextFreeBlock )
 8005e40:	4b27      	ldr	r3, [pc, #156]	@ (8005ee0 <prvInsertBlockIntoFreeList+0xa8>)
 8005e42:	60fb      	str	r3, [r7, #12]
 8005e44:	e002      	b.n	8005e4c <prvInsertBlockIntoFreeList+0x14>
 8005e46:	68fb      	ldr	r3, [r7, #12]
 8005e48:	681b      	ldr	r3, [r3, #0]
 8005e4a:	60fb      	str	r3, [r7, #12]
 8005e4c:	68fb      	ldr	r3, [r7, #12]
 8005e4e:	681b      	ldr	r3, [r3, #0]
 8005e50:	687a      	ldr	r2, [r7, #4]
 8005e52:	429a      	cmp	r2, r3
 8005e54:	d8f7      	bhi.n	8005e46 <prvInsertBlockIntoFreeList+0xe>
		/* Nothing to do here, just iterate to the right position. */
	}

	/* Do the block being inserted, and the block it is being inserted after
	make a contiguous block of memory? */
	puc = ( uint8_t * ) pxIterator;
 8005e56:	68fb      	ldr	r3, [r7, #12]
 8005e58:	60bb      	str	r3, [r7, #8]
	if( ( puc + pxIterator->xBlockSize ) == ( uint8_t * ) pxBlockToInsert )
 8005e5a:	68fb      	ldr	r3, [r7, #12]
 8005e5c:	685b      	ldr	r3, [r3, #4]
 8005e5e:	68ba      	ldr	r2, [r7, #8]
 8005e60:	4413      	add	r3, r2
 8005e62:	687a      	ldr	r2, [r7, #4]
 8005e64:	429a      	cmp	r2, r3
 8005e66:	d108      	bne.n	8005e7a <prvInsertBlockIntoFreeList+0x42>
	{
		pxIterator->xBlockSize += pxBlockToInsert->xBlockSize;
 8005e68:	68fb      	ldr	r3, [r7, #12]
 8005e6a:	685a      	ldr	r2, [r3, #4]
 8005e6c:	687b      	ldr	r3, [r7, #4]
 8005e6e:	685b      	ldr	r3, [r3, #4]
 8005e70:	441a      	add	r2, r3
 8005e72:	68fb      	ldr	r3, [r7, #12]
 8005e74:	605a      	str	r2, [r3, #4]
		pxBlockToInsert = pxIterator;
 8005e76:	68fb      	ldr	r3, [r7, #12]
 8005e78:	607b      	str	r3, [r7, #4]
		mtCOVERAGE_TEST_MARKER();
	}

	/* Do the block being inserted, and the block it is being inserted before
	make a contiguous block of memory? */
	puc = ( uint8_t * ) pxBlockToInsert;
 8005e7a:	687b      	ldr	r3, [r7, #4]
 8005e7c:	60bb      	str	r3, [r7, #8]
	if( ( puc + pxBlockToInsert->xBlockSize ) == ( uint8_t * ) pxIterator->pxNextFreeBlock )
 8005e7e:	687b      	ldr	r3, [r7, #4]
 8005e80:	685b      	ldr	r3, [r3, #4]
 8005e82:	68ba      	ldr	r2, [r7, #8]
 8005e84:	441a      	add	r2, r3
 8005e86:	68fb      	ldr	r3, [r7, #12]
 8005e88:	681b      	ldr	r3, [r3, #0]
 8005e8a:	429a      	cmp	r2, r3
 8005e8c:	d118      	bne.n	8005ec0 <prvInsertBlockIntoFreeList+0x88>
	{
		if( pxIterator->pxNextFreeBlock != pxEnd )
 8005e8e:	68fb      	ldr	r3, [r7, #12]
 8005e90:	681a      	ldr	r2, [r3, #0]
 8005e92:	4b14      	ldr	r3, [pc, #80]	@ (8005ee4 <prvInsertBlockIntoFreeList+0xac>)
 8005e94:	681b      	ldr	r3, [r3, #0]
 8005e96:	429a      	cmp	r2, r3
 8005e98:	d00d      	beq.n	8005eb6 <prvInsertBlockIntoFreeList+0x7e>
		{
			/* Form one big block from the two blocks. */
			pxBlockToInsert->xBlockSize += pxIterator->pxNextFreeBlock->xBlockSize;
 8005e9a:	687b      	ldr	r3, [r7, #4]
 8005e9c:	685a      	ldr	r2, [r3, #4]
 8005e9e:	68fb      	ldr	r3, [r7, #12]
 8005ea0:	681b      	ldr	r3, [r3, #0]
 8005ea2:	685b      	ldr	r3, [r3, #4]
 8005ea4:	441a      	add	r2, r3
 8005ea6:	687b      	ldr	r3, [r7, #4]
 8005ea8:	605a      	str	r2, [r3, #4]
			pxBlockToInsert->pxNextFreeBlock = pxIterator->pxNextFreeBlock->pxNextFreeBlock;
 8005eaa:	68fb      	ldr	r3, [r7, #12]
 8005eac:	681b      	ldr	r3, [r3, #0]
 8005eae:	681a      	ldr	r2, [r3, #0]
 8005eb0:	687b      	ldr	r3, [r7, #4]
 8005eb2:	601a      	str	r2, [r3, #0]
 8005eb4:	e008      	b.n	8005ec8 <prvInsertBlockIntoFreeList+0x90>
		}
		else
		{
			pxBlockToInsert->pxNextFreeBlock = pxEnd;
 8005eb6:	4b0b      	ldr	r3, [pc, #44]	@ (8005ee4 <prvInsertBlockIntoFreeList+0xac>)
 8005eb8:	681a      	ldr	r2, [r3, #0]
 8005eba:	687b      	ldr	r3, [r7, #4]
 8005ebc:	601a      	str	r2, [r3, #0]
 8005ebe:	e003      	b.n	8005ec8 <prvInsertBlockIntoFreeList+0x90>
		}
	}
	else
	{
		pxBlockToInsert->pxNextFreeBlock = pxIterator->pxNextFreeBlock;
 8005ec0:	68fb      	ldr	r3, [r7, #12]
 8005ec2:	681a      	ldr	r2, [r3, #0]
 8005ec4:	687b      	ldr	r3, [r7, #4]
 8005ec6:	601a      	str	r2, [r3, #0]

	/* If the block being inserted plugged a gab, so was merged with the block
	before and the block after, then it's pxNextFreeBlock pointer will have
	already been set, and should not be set here as that would make it point
	to itself. */
	if( pxIterator != pxBlockToInsert )
 8005ec8:	68fa      	ldr	r2, [r7, #12]
 8005eca:	687b      	ldr	r3, [r7, #4]
 8005ecc:	429a      	cmp	r2, r3
 8005ece:	d002      	beq.n	8005ed6 <prvInsertBlockIntoFreeList+0x9e>
	{
		pxIterator->pxNextFreeBlock = pxBlockToInsert;
 8005ed0:	68fb      	ldr	r3, [r7, #12]
 8005ed2:	687a      	ldr	r2, [r7, #4]
 8005ed4:	601a      	str	r2, [r3, #0]
	}
	else
	{
		mtCOVERAGE_TEST_MARKER();
	}
}
 8005ed6:	bf00      	nop
 8005ed8:	3714      	adds	r7, #20
 8005eda:	46bd      	mov	sp, r7
 8005edc:	bc80      	pop	{r7}
 8005ede:	4770      	bx	lr
 8005ee0:	200010f4 	.word	0x200010f4
 8005ee4:	200010fc 	.word	0x200010fc

08005ee8 <_vsniprintf_r>:
 8005ee8:	b530      	push	{r4, r5, lr}
 8005eea:	4614      	mov	r4, r2
 8005eec:	2c00      	cmp	r4, #0
 8005eee:	4605      	mov	r5, r0
 8005ef0:	461a      	mov	r2, r3
 8005ef2:	b09b      	sub	sp, #108	@ 0x6c
 8005ef4:	da05      	bge.n	8005f02 <_vsniprintf_r+0x1a>
 8005ef6:	238b      	movs	r3, #139	@ 0x8b
 8005ef8:	6003      	str	r3, [r0, #0]
 8005efa:	f04f 30ff 	mov.w	r0, #4294967295
 8005efe:	b01b      	add	sp, #108	@ 0x6c
 8005f00:	bd30      	pop	{r4, r5, pc}
 8005f02:	f44f 7302 	mov.w	r3, #520	@ 0x208
 8005f06:	f8ad 300c 	strh.w	r3, [sp, #12]
 8005f0a:	f04f 0300 	mov.w	r3, #0
 8005f0e:	9319      	str	r3, [sp, #100]	@ 0x64
 8005f10:	bf0c      	ite	eq
 8005f12:	4623      	moveq	r3, r4
 8005f14:	f104 33ff 	addne.w	r3, r4, #4294967295
 8005f18:	9302      	str	r3, [sp, #8]
 8005f1a:	9305      	str	r3, [sp, #20]
 8005f1c:	f64f 73ff 	movw	r3, #65535	@ 0xffff
 8005f20:	9100      	str	r1, [sp, #0]
 8005f22:	9104      	str	r1, [sp, #16]
 8005f24:	f8ad 300e 	strh.w	r3, [sp, #14]
 8005f28:	4669      	mov	r1, sp
 8005f2a:	9b1e      	ldr	r3, [sp, #120]	@ 0x78
 8005f2c:	f000 f9ac 	bl	8006288 <_svfiprintf_r>
 8005f30:	1c43      	adds	r3, r0, #1
 8005f32:	bfbc      	itt	lt
 8005f34:	238b      	movlt	r3, #139	@ 0x8b
 8005f36:	602b      	strlt	r3, [r5, #0]
 8005f38:	2c00      	cmp	r4, #0
 8005f3a:	d0e0      	beq.n	8005efe <_vsniprintf_r+0x16>
 8005f3c:	2200      	movs	r2, #0
 8005f3e:	9b00      	ldr	r3, [sp, #0]
 8005f40:	701a      	strb	r2, [r3, #0]
 8005f42:	e7dc      	b.n	8005efe <_vsniprintf_r+0x16>

08005f44 <vsniprintf>:
 8005f44:	b507      	push	{r0, r1, r2, lr}
 8005f46:	9300      	str	r3, [sp, #0]
 8005f48:	4613      	mov	r3, r2
 8005f4a:	460a      	mov	r2, r1
 8005f4c:	4601      	mov	r1, r0
 8005f4e:	4803      	ldr	r0, [pc, #12]	@ (8005f5c <vsniprintf+0x18>)
 8005f50:	6800      	ldr	r0, [r0, #0]
 8005f52:	f7ff ffc9 	bl	8005ee8 <_vsniprintf_r>
 8005f56:	b003      	add	sp, #12
 8005f58:	f85d fb04 	ldr.w	pc, [sp], #4
 8005f5c:	20000028 	.word	0x20000028

08005f60 <memset>:
 8005f60:	4603      	mov	r3, r0
 8005f62:	4402      	add	r2, r0
 8005f64:	4293      	cmp	r3, r2
 8005f66:	d100      	bne.n	8005f6a <memset+0xa>
 8005f68:	4770      	bx	lr
 8005f6a:	f803 1b01 	strb.w	r1, [r3], #1
 8005f6e:	e7f9      	b.n	8005f64 <memset+0x4>

08005f70 <__errno>:
 8005f70:	4b01      	ldr	r3, [pc, #4]	@ (8005f78 <__errno+0x8>)
 8005f72:	6818      	ldr	r0, [r3, #0]
 8005f74:	4770      	bx	lr
 8005f76:	bf00      	nop
 8005f78:	20000028 	.word	0x20000028

08005f7c <__libc_init_array>:
 8005f7c:	b570      	push	{r4, r5, r6, lr}
 8005f7e:	2600      	movs	r6, #0
 8005f80:	4d0c      	ldr	r5, [pc, #48]	@ (8005fb4 <__libc_init_array+0x38>)
 8005f82:	4c0d      	ldr	r4, [pc, #52]	@ (8005fb8 <__libc_init_array+0x3c>)
 8005f84:	1b64      	subs	r4, r4, r5
 8005f86:	10a4      	asrs	r4, r4, #2
 8005f88:	42a6      	cmp	r6, r4
 8005f8a:	d109      	bne.n	8005fa0 <__libc_init_array+0x24>
 8005f8c:	f000 fc76 	bl	800687c <_init>
 8005f90:	2600      	movs	r6, #0
 8005f92:	4d0a      	ldr	r5, [pc, #40]	@ (8005fbc <__libc_init_array+0x40>)
 8005f94:	4c0a      	ldr	r4, [pc, #40]	@ (8005fc0 <__libc_init_array+0x44>)
 8005f96:	1b64      	subs	r4, r4, r5
 8005f98:	10a4      	asrs	r4, r4, #2
 8005f9a:	42a6      	cmp	r6, r4
 8005f9c:	d105      	bne.n	8005faa <__libc_init_array+0x2e>
 8005f9e:	bd70      	pop	{r4, r5, r6, pc}
 8005fa0:	f855 3b04 	ldr.w	r3, [r5], #4
 8005fa4:	4798      	blx	r3
 8005fa6:	3601      	adds	r6, #1
 8005fa8:	e7ee      	b.n	8005f88 <__libc_init_array+0xc>
 8005faa:	f855 3b04 	ldr.w	r3, [r5], #4
 8005fae:	4798      	blx	r3
 8005fb0:	3601      	adds	r6, #1
 8005fb2:	e7f2      	b.n	8005f9a <__libc_init_array+0x1e>
 8005fb4:	08006a58 	.word	0x08006a58
 8005fb8:	08006a58 	.word	0x08006a58
 8005fbc:	08006a58 	.word	0x08006a58
 8005fc0:	08006a5c 	.word	0x08006a5c

08005fc4 <__retarget_lock_acquire_recursive>:
 8005fc4:	4770      	bx	lr

08005fc6 <__retarget_lock_release_recursive>:
 8005fc6:	4770      	bx	lr

08005fc8 <memcpy>:
 8005fc8:	440a      	add	r2, r1
 8005fca:	4291      	cmp	r1, r2
 8005fcc:	f100 33ff 	add.w	r3, r0, #4294967295
 8005fd0:	d100      	bne.n	8005fd4 <memcpy+0xc>
 8005fd2:	4770      	bx	lr
 8005fd4:	b510      	push	{r4, lr}
 8005fd6:	f811 4b01 	ldrb.w	r4, [r1], #1
 8005fda:	4291      	cmp	r1, r2
 8005fdc:	f803 4f01 	strb.w	r4, [r3, #1]!
 8005fe0:	d1f9      	bne.n	8005fd6 <memcpy+0xe>
 8005fe2:	bd10      	pop	{r4, pc}

08005fe4 <_free_r>:
 8005fe4:	b538      	push	{r3, r4, r5, lr}
 8005fe6:	4605      	mov	r5, r0
 8005fe8:	2900      	cmp	r1, #0
 8005fea:	d040      	beq.n	800606e <_free_r+0x8a>
 8005fec:	f851 3c04 	ldr.w	r3, [r1, #-4]
 8005ff0:	1f0c      	subs	r4, r1, #4
 8005ff2:	2b00      	cmp	r3, #0
 8005ff4:	bfb8      	it	lt
 8005ff6:	18e4      	addlt	r4, r4, r3
 8005ff8:	f000 f8de 	bl	80061b8 <__malloc_lock>
 8005ffc:	4a1c      	ldr	r2, [pc, #112]	@ (8006070 <_free_r+0x8c>)
 8005ffe:	6813      	ldr	r3, [r2, #0]
 8006000:	b933      	cbnz	r3, 8006010 <_free_r+0x2c>
 8006002:	6063      	str	r3, [r4, #4]
 8006004:	6014      	str	r4, [r2, #0]
 8006006:	4628      	mov	r0, r5
 8006008:	e8bd 4038 	ldmia.w	sp!, {r3, r4, r5, lr}
 800600c:	f000 b8da 	b.w	80061c4 <__malloc_unlock>
 8006010:	42a3      	cmp	r3, r4
 8006012:	d908      	bls.n	8006026 <_free_r+0x42>
 8006014:	6820      	ldr	r0, [r4, #0]
 8006016:	1821      	adds	r1, r4, r0
 8006018:	428b      	cmp	r3, r1
 800601a:	bf01      	itttt	eq
 800601c:	6819      	ldreq	r1, [r3, #0]
 800601e:	685b      	ldreq	r3, [r3, #4]
 8006020:	1809      	addeq	r1, r1, r0
 8006022:	6021      	streq	r1, [r4, #0]
 8006024:	e7ed      	b.n	8006002 <_free_r+0x1e>
 8006026:	461a      	mov	r2, r3
 8006028:	685b      	ldr	r3, [r3, #4]
 800602a:	b10b      	cbz	r3, 8006030 <_free_r+0x4c>
 800602c:	42a3      	cmp	r3, r4
 800602e:	d9fa      	bls.n	8006026 <_free_r+0x42>
 8006030:	6811      	ldr	r1, [r2, #0]
 8006032:	1850      	adds	r0, r2, r1
 8006034:	42a0      	cmp	r0, r4
 8006036:	d10b      	bne.n	8006050 <_free_r+0x6c>
 8006038:	6820      	ldr	r0, [r4, #0]
 800603a:	4401      	add	r1, r0
 800603c:	1850      	adds	r0, r2, r1
 800603e:	4283      	cmp	r3, r0
 8006040:	6011      	str	r1, [r2, #0]
 8006042:	d1e0      	bne.n	8006006 <_free_r+0x22>
 8006044:	6818      	ldr	r0, [r3, #0]
 8006046:	685b      	ldr	r3, [r3, #4]
 8006048:	4408      	add	r0, r1
 800604a:	6010      	str	r0, [r2, #0]
 800604c:	6053      	str	r3, [r2, #4]
 800604e:	e7da      	b.n	8006006 <_free_r+0x22>
 8006050:	d902      	bls.n	8006058 <_free_r+0x74>
 8006052:	230c      	movs	r3, #12
 8006054:	602b      	str	r3, [r5, #0]
 8006056:	e7d6      	b.n	8006006 <_free_r+0x22>
 8006058:	6820      	ldr	r0, [r4, #0]
 800605a:	1821      	adds	r1, r4, r0
 800605c:	428b      	cmp	r3, r1
 800605e:	bf01      	itttt	eq
 8006060:	6819      	ldreq	r1, [r3, #0]
 8006062:	685b      	ldreq	r3, [r3, #4]
 8006064:	1809      	addeq	r1, r1, r0
 8006066:	6021      	streq	r1, [r4, #0]
 8006068:	6063      	str	r3, [r4, #4]
 800606a:	6054      	str	r4, [r2, #4]
 800606c:	e7cb      	b.n	8006006 <_free_r+0x22>
 800606e:	bd38      	pop	{r3, r4, r5, pc}
 8006070:	20001258 	.word	0x20001258

08006074 <sbrk_aligned>:
 8006074:	b570      	push	{r4, r5, r6, lr}
 8006076:	4e0f      	ldr	r6, [pc, #60]	@ (80060b4 <sbrk_aligned+0x40>)
 8006078:	460c      	mov	r4, r1
 800607a:	6831      	ldr	r1, [r6, #0]
 800607c:	4605      	mov	r5, r0
 800607e:	b911      	cbnz	r1, 8006086 <sbrk_aligned+0x12>
 8006080:	f000 fba8 	bl	80067d4 <_sbrk_r>
 8006084:	6030      	str	r0, [r6, #0]
 8006086:	4621      	mov	r1, r4
 8006088:	4628      	mov	r0, r5
 800608a:	f000 fba3 	bl	80067d4 <_sbrk_r>
 800608e:	1c43      	adds	r3, r0, #1
 8006090:	d103      	bne.n	800609a <sbrk_aligned+0x26>
 8006092:	f04f 34ff 	mov.w	r4, #4294967295
 8006096:	4620      	mov	r0, r4
 8006098:	bd70      	pop	{r4, r5, r6, pc}
 800609a:	1cc4      	adds	r4, r0, #3
 800609c:	f024 0403 	bic.w	r4, r4, #3
 80060a0:	42a0      	cmp	r0, r4
 80060a2:	d0f8      	beq.n	8006096 <sbrk_aligned+0x22>
 80060a4:	1a21      	subs	r1, r4, r0
 80060a6:	4628      	mov	r0, r5
 80060a8:	f000 fb94 	bl	80067d4 <_sbrk_r>
 80060ac:	3001      	adds	r0, #1
 80060ae:	d1f2      	bne.n	8006096 <sbrk_aligned+0x22>
 80060b0:	e7ef      	b.n	8006092 <sbrk_aligned+0x1e>
 80060b2:	bf00      	nop
 80060b4:	20001254 	.word	0x20001254

080060b8 <_malloc_r>:
 80060b8:	e92d 43f8 	stmdb	sp!, {r3, r4, r5, r6, r7, r8, r9, lr}
 80060bc:	1ccd      	adds	r5, r1, #3
 80060be:	f025 0503 	bic.w	r5, r5, #3
 80060c2:	3508      	adds	r5, #8
 80060c4:	2d0c      	cmp	r5, #12
 80060c6:	bf38      	it	cc
 80060c8:	250c      	movcc	r5, #12
 80060ca:	2d00      	cmp	r5, #0
 80060cc:	4606      	mov	r6, r0
 80060ce:	db01      	blt.n	80060d4 <_malloc_r+0x1c>
 80060d0:	42a9      	cmp	r1, r5
 80060d2:	d904      	bls.n	80060de <_malloc_r+0x26>
 80060d4:	230c      	movs	r3, #12
 80060d6:	6033      	str	r3, [r6, #0]
 80060d8:	2000      	movs	r0, #0
 80060da:	e8bd 83f8 	ldmia.w	sp!, {r3, r4, r5, r6, r7, r8, r9, pc}
 80060de:	f8df 80d4 	ldr.w	r8, [pc, #212]	@ 80061b4 <_malloc_r+0xfc>
 80060e2:	f000 f869 	bl	80061b8 <__malloc_lock>
 80060e6:	f8d8 3000 	ldr.w	r3, [r8]
 80060ea:	461c      	mov	r4, r3
 80060ec:	bb44      	cbnz	r4, 8006140 <_malloc_r+0x88>
 80060ee:	4629      	mov	r1, r5
 80060f0:	4630      	mov	r0, r6
 80060f2:	f7ff ffbf 	bl	8006074 <sbrk_aligned>
 80060f6:	1c43      	adds	r3, r0, #1
 80060f8:	4604      	mov	r4, r0
 80060fa:	d158      	bne.n	80061ae <_malloc_r+0xf6>
 80060fc:	f8d8 4000 	ldr.w	r4, [r8]
 8006100:	4627      	mov	r7, r4
 8006102:	2f00      	cmp	r7, #0
 8006104:	d143      	bne.n	800618e <_malloc_r+0xd6>
 8006106:	2c00      	cmp	r4, #0
 8006108:	d04b      	beq.n	80061a2 <_malloc_r+0xea>
 800610a:	6823      	ldr	r3, [r4, #0]
 800610c:	4639      	mov	r1, r7
 800610e:	4630      	mov	r0, r6
 8006110:	eb04 0903 	add.w	r9, r4, r3
 8006114:	f000 fb5e 	bl	80067d4 <_sbrk_r>
 8006118:	4581      	cmp	r9, r0
 800611a:	d142      	bne.n	80061a2 <_malloc_r+0xea>
 800611c:	6821      	ldr	r1, [r4, #0]
 800611e:	4630      	mov	r0, r6
 8006120:	1a6d      	subs	r5, r5, r1
 8006122:	4629      	mov	r1, r5
 8006124:	f7ff ffa6 	bl	8006074 <sbrk_aligned>
 8006128:	3001      	adds	r0, #1
 800612a:	d03a      	beq.n	80061a2 <_malloc_r+0xea>
 800612c:	6823      	ldr	r3, [r4, #0]
 800612e:	442b      	add	r3, r5
 8006130:	6023      	str	r3, [r4, #0]
 8006132:	f8d8 3000 	ldr.w	r3, [r8]
 8006136:	685a      	ldr	r2, [r3, #4]
 8006138:	bb62      	cbnz	r2, 8006194 <_malloc_r+0xdc>
 800613a:	f8c8 7000 	str.w	r7, [r8]
 800613e:	e00f      	b.n	8006160 <_malloc_r+0xa8>
 8006140:	6822      	ldr	r2, [r4, #0]
 8006142:	1b52      	subs	r2, r2, r5
 8006144:	d420      	bmi.n	8006188 <_malloc_r+0xd0>
 8006146:	2a0b      	cmp	r2, #11
 8006148:	d917      	bls.n	800617a <_malloc_r+0xc2>
 800614a:	1961      	adds	r1, r4, r5
 800614c:	42a3      	cmp	r3, r4
 800614e:	6025      	str	r5, [r4, #0]
 8006150:	bf18      	it	ne
 8006152:	6059      	strne	r1, [r3, #4]
 8006154:	6863      	ldr	r3, [r4, #4]
 8006156:	bf08      	it	eq
 8006158:	f8c8 1000 	streq.w	r1, [r8]
 800615c:	5162      	str	r2, [r4, r5]
 800615e:	604b      	str	r3, [r1, #4]
 8006160:	4630      	mov	r0, r6
 8006162:	f000 f82f 	bl	80061c4 <__malloc_unlock>
 8006166:	f104 000b 	add.w	r0, r4, #11
 800616a:	1d23      	adds	r3, r4, #4
 800616c:	f020 0007 	bic.w	r0, r0, #7
 8006170:	1ac2      	subs	r2, r0, r3
 8006172:	bf1c      	itt	ne
 8006174:	1a1b      	subne	r3, r3, r0
 8006176:	50a3      	strne	r3, [r4, r2]
 8006178:	e7af      	b.n	80060da <_malloc_r+0x22>
 800617a:	6862      	ldr	r2, [r4, #4]
 800617c:	42a3      	cmp	r3, r4
 800617e:	bf0c      	ite	eq
 8006180:	f8c8 2000 	streq.w	r2, [r8]
 8006184:	605a      	strne	r2, [r3, #4]
 8006186:	e7eb      	b.n	8006160 <_malloc_r+0xa8>
 8006188:	4623      	mov	r3, r4
 800618a:	6864      	ldr	r4, [r4, #4]
 800618c:	e7ae      	b.n	80060ec <_malloc_r+0x34>
 800618e:	463c      	mov	r4, r7
 8006190:	687f      	ldr	r7, [r7, #4]
 8006192:	e7b6      	b.n	8006102 <_malloc_r+0x4a>
 8006194:	461a      	mov	r2, r3
 8006196:	685b      	ldr	r3, [r3, #4]
 8006198:	42a3      	cmp	r3, r4
 800619a:	d1fb      	bne.n	8006194 <_malloc_r+0xdc>
 800619c:	2300      	movs	r3, #0
 800619e:	6053      	str	r3, [r2, #4]
 80061a0:	e7de      	b.n	8006160 <_malloc_r+0xa8>
 80061a2:	230c      	movs	r3, #12
 80061a4:	4630      	mov	r0, r6
 80061a6:	6033      	str	r3, [r6, #0]
 80061a8:	f000 f80c 	bl	80061c4 <__malloc_unlock>
 80061ac:	e794      	b.n	80060d8 <_malloc_r+0x20>
 80061ae:	6005      	str	r5, [r0, #0]
 80061b0:	e7d6      	b.n	8006160 <_malloc_r+0xa8>
 80061b2:	bf00      	nop
 80061b4:	20001258 	.word	0x20001258

080061b8 <__malloc_lock>:
 80061b8:	4801      	ldr	r0, [pc, #4]	@ (80061c0 <__malloc_lock+0x8>)
 80061ba:	f7ff bf03 	b.w	8005fc4 <__retarget_lock_acquire_recursive>
 80061be:	bf00      	nop
 80061c0:	20001250 	.word	0x20001250

080061c4 <__malloc_unlock>:
 80061c4:	4801      	ldr	r0, [pc, #4]	@ (80061cc <__malloc_unlock+0x8>)
 80061c6:	f7ff befe 	b.w	8005fc6 <__retarget_lock_release_recursive>
 80061ca:	bf00      	nop
 80061cc:	20001250 	.word	0x20001250

080061d0 <__ssputs_r>:
 80061d0:	e92d 47f0 	stmdb	sp!, {r4, r5, r6, r7, r8, r9, sl, lr}
 80061d4:	461f      	mov	r7, r3
 80061d6:	688e      	ldr	r6, [r1, #8]
 80061d8:	4682      	mov	sl, r0
 80061da:	42be      	cmp	r6, r7
 80061dc:	460c      	mov	r4, r1
 80061de:	4690      	mov	r8, r2
 80061e0:	680b      	ldr	r3, [r1, #0]
 80061e2:	d82d      	bhi.n	8006240 <__ssputs_r+0x70>
 80061e4:	f9b1 200c 	ldrsh.w	r2, [r1, #12]
 80061e8:	f412 6f90 	tst.w	r2, #1152	@ 0x480
 80061ec:	d026      	beq.n	800623c <__ssputs_r+0x6c>
 80061ee:	6965      	ldr	r5, [r4, #20]
 80061f0:	6909      	ldr	r1, [r1, #16]
 80061f2:	eb05 0545 	add.w	r5, r5, r5, lsl #1
 80061f6:	eba3 0901 	sub.w	r9, r3, r1
 80061fa:	eb05 75d5 	add.w	r5, r5, r5, lsr #31
 80061fe:	1c7b      	adds	r3, r7, #1
 8006200:	444b      	add	r3, r9
 8006202:	106d      	asrs	r5, r5, #1
 8006204:	429d      	cmp	r5, r3
 8006206:	bf38      	it	cc
 8006208:	461d      	movcc	r5, r3
 800620a:	0553      	lsls	r3, r2, #21
 800620c:	d527      	bpl.n	800625e <__ssputs_r+0x8e>
 800620e:	4629      	mov	r1, r5
 8006210:	f7ff ff52 	bl	80060b8 <_malloc_r>
 8006214:	4606      	mov	r6, r0
 8006216:	b360      	cbz	r0, 8006272 <__ssputs_r+0xa2>
 8006218:	464a      	mov	r2, r9
 800621a:	6921      	ldr	r1, [r4, #16]
 800621c:	f7ff fed4 	bl	8005fc8 <memcpy>
 8006220:	89a3      	ldrh	r3, [r4, #12]
 8006222:	f423 6390 	bic.w	r3, r3, #1152	@ 0x480
 8006226:	f043 0380 	orr.w	r3, r3, #128	@ 0x80
 800622a:	81a3      	strh	r3, [r4, #12]
 800622c:	6126      	str	r6, [r4, #16]
 800622e:	444e      	add	r6, r9
 8006230:	6026      	str	r6, [r4, #0]
 8006232:	463e      	mov	r6, r7
 8006234:	6165      	str	r5, [r4, #20]
 8006236:	eba5 0509 	sub.w	r5, r5, r9
 800623a:	60a5      	str	r5, [r4, #8]
 800623c:	42be      	cmp	r6, r7
 800623e:	d900      	bls.n	8006242 <__ssputs_r+0x72>
 8006240:	463e      	mov	r6, r7
 8006242:	4632      	mov	r2, r6
 8006244:	4641      	mov	r1, r8
 8006246:	6820      	ldr	r0, [r4, #0]
 8006248:	f000 faaa 	bl	80067a0 <memmove>
 800624c:	2000      	movs	r0, #0
 800624e:	68a3      	ldr	r3, [r4, #8]
 8006250:	1b9b      	subs	r3, r3, r6
 8006252:	60a3      	str	r3, [r4, #8]
 8006254:	6823      	ldr	r3, [r4, #0]
 8006256:	4433      	add	r3, r6
 8006258:	6023      	str	r3, [r4, #0]
 800625a:	e8bd 87f0 	ldmia.w	sp!, {r4, r5, r6, r7, r8, r9, sl, pc}
 800625e:	462a      	mov	r2, r5
 8006260:	f000 fad6 	bl	8006810 <_realloc_r>
 8006264:	4606      	mov	r6, r0
 8006266:	2800      	cmp	r0, #0
 8006268:	d1e0      	bne.n	800622c <__ssputs_r+0x5c>
 800626a:	4650      	mov	r0, sl
 800626c:	6921      	ldr	r1, [r4, #16]
 800626e:	f7ff feb9 	bl	8005fe4 <_free_r>
 8006272:	230c      	movs	r3, #12
 8006274:	f8ca 3000 	str.w	r3, [sl]
 8006278:	89a3      	ldrh	r3, [r4, #12]
 800627a:	f04f 30ff 	mov.w	r0, #4294967295
 800627e:	f043 0340 	orr.w	r3, r3, #64	@ 0x40
 8006282:	81a3      	strh	r3, [r4, #12]
 8006284:	e7e9      	b.n	800625a <__ssputs_r+0x8a>
	...

08006288 <_svfiprintf_r>:
 8006288:	e92d 4ff0 	stmdb	sp!, {r4, r5, r6, r7, r8, r9, sl, fp, lr}
 800628c:	4698      	mov	r8, r3
 800628e:	898b      	ldrh	r3, [r1, #12]
 8006290:	4607      	mov	r7, r0
 8006292:	061b      	lsls	r3, r3, #24
 8006294:	460d      	mov	r5, r1
 8006296:	4614      	mov	r4, r2
 8006298:	b09d      	sub	sp, #116	@ 0x74
 800629a:	d510      	bpl.n	80062be <_svfiprintf_r+0x36>
 800629c:	690b      	ldr	r3, [r1, #16]
 800629e:	b973      	cbnz	r3, 80062be <_svfiprintf_r+0x36>
 80062a0:	2140      	movs	r1, #64	@ 0x40
 80062a2:	f7ff ff09 	bl	80060b8 <_malloc_r>
 80062a6:	6028      	str	r0, [r5, #0]
 80062a8:	6128      	str	r0, [r5, #16]
 80062aa:	b930      	cbnz	r0, 80062ba <_svfiprintf_r+0x32>
 80062ac:	230c      	movs	r3, #12
 80062ae:	603b      	str	r3, [r7, #0]
 80062b0:	f04f 30ff 	mov.w	r0, #4294967295
 80062b4:	b01d      	add	sp, #116	@ 0x74
 80062b6:	e8bd 8ff0 	ldmia.w	sp!, {r4, r5, r6, r7, r8, r9, sl, fp, pc}
 80062ba:	2340      	movs	r3, #64	@ 0x40
 80062bc:	616b      	str	r3, [r5, #20]
 80062be:	2300      	movs	r3, #0
 80062c0:	9309      	str	r3, [sp, #36]	@ 0x24
 80062c2:	2320      	movs	r3, #32
 80062c4:	f88d 3029 	strb.w	r3, [sp, #41]	@ 0x29
 80062c8:	2330      	movs	r3, #48	@ 0x30
 80062ca:	f04f 0901 	mov.w	r9, #1
 80062ce:	f8cd 800c 	str.w	r8, [sp, #12]
 80062d2:	f8df 8198 	ldr.w	r8, [pc, #408]	@ 800646c <_svfiprintf_r+0x1e4>
 80062d6:	f88d 302a 	strb.w	r3, [sp, #42]	@ 0x2a
 80062da:	4623      	mov	r3, r4
 80062dc:	469a      	mov	sl, r3
 80062de:	f813 2b01 	ldrb.w	r2, [r3], #1
 80062e2:	b10a      	cbz	r2, 80062e8 <_svfiprintf_r+0x60>
 80062e4:	2a25      	cmp	r2, #37	@ 0x25
 80062e6:	d1f9      	bne.n	80062dc <_svfiprintf_r+0x54>
 80062e8:	ebba 0b04 	subs.w	fp, sl, r4
 80062ec:	d00b      	beq.n	8006306 <_svfiprintf_r+0x7e>
 80062ee:	465b      	mov	r3, fp
 80062f0:	4622      	mov	r2, r4
 80062f2:	4629      	mov	r1, r5
 80062f4:	4638      	mov	r0, r7
 80062f6:	f7ff ff6b 	bl	80061d0 <__ssputs_r>
 80062fa:	3001      	adds	r0, #1
 80062fc:	f000 80a7 	beq.w	800644e <_svfiprintf_r+0x1c6>
 8006300:	9a09      	ldr	r2, [sp, #36]	@ 0x24
 8006302:	445a      	add	r2, fp
 8006304:	9209      	str	r2, [sp, #36]	@ 0x24
 8006306:	f89a 3000 	ldrb.w	r3, [sl]
 800630a:	2b00      	cmp	r3, #0
 800630c:	f000 809f 	beq.w	800644e <_svfiprintf_r+0x1c6>
 8006310:	2300      	movs	r3, #0
 8006312:	f04f 32ff 	mov.w	r2, #4294967295
 8006316:	e9cd 2305 	strd	r2, r3, [sp, #20]
 800631a:	f10a 0a01 	add.w	sl, sl, #1
 800631e:	9304      	str	r3, [sp, #16]
 8006320:	9307      	str	r3, [sp, #28]
 8006322:	f88d 3053 	strb.w	r3, [sp, #83]	@ 0x53
 8006326:	931a      	str	r3, [sp, #104]	@ 0x68
 8006328:	4654      	mov	r4, sl
 800632a:	2205      	movs	r2, #5
 800632c:	f814 1b01 	ldrb.w	r1, [r4], #1
 8006330:	484e      	ldr	r0, [pc, #312]	@ (800646c <_svfiprintf_r+0x1e4>)
 8006332:	f000 fa5f 	bl	80067f4 <memchr>
 8006336:	9a04      	ldr	r2, [sp, #16]
 8006338:	b9d8      	cbnz	r0, 8006372 <_svfiprintf_r+0xea>
 800633a:	06d0      	lsls	r0, r2, #27
 800633c:	bf44      	itt	mi
 800633e:	2320      	movmi	r3, #32
 8006340:	f88d 3053 	strbmi.w	r3, [sp, #83]	@ 0x53
 8006344:	0711      	lsls	r1, r2, #28
 8006346:	bf44      	itt	mi
 8006348:	232b      	movmi	r3, #43	@ 0x2b
 800634a:	f88d 3053 	strbmi.w	r3, [sp, #83]	@ 0x53
 800634e:	f89a 3000 	ldrb.w	r3, [sl]
 8006352:	2b2a      	cmp	r3, #42	@ 0x2a
 8006354:	d015      	beq.n	8006382 <_svfiprintf_r+0xfa>
 8006356:	4654      	mov	r4, sl
 8006358:	2000      	movs	r0, #0
 800635a:	f04f 0c0a 	mov.w	ip, #10
 800635e:	9a07      	ldr	r2, [sp, #28]
 8006360:	4621      	mov	r1, r4
 8006362:	f811 3b01 	ldrb.w	r3, [r1], #1
 8006366:	3b30      	subs	r3, #48	@ 0x30
 8006368:	2b09      	cmp	r3, #9
 800636a:	d94b      	bls.n	8006404 <_svfiprintf_r+0x17c>
 800636c:	b1b0      	cbz	r0, 800639c <_svfiprintf_r+0x114>
 800636e:	9207      	str	r2, [sp, #28]
 8006370:	e014      	b.n	800639c <_svfiprintf_r+0x114>
 8006372:	eba0 0308 	sub.w	r3, r0, r8
 8006376:	fa09 f303 	lsl.w	r3, r9, r3
 800637a:	4313      	orrs	r3, r2
 800637c:	46a2      	mov	sl, r4
 800637e:	9304      	str	r3, [sp, #16]
 8006380:	e7d2      	b.n	8006328 <_svfiprintf_r+0xa0>
 8006382:	9b03      	ldr	r3, [sp, #12]
 8006384:	1d19      	adds	r1, r3, #4
 8006386:	681b      	ldr	r3, [r3, #0]
 8006388:	9103      	str	r1, [sp, #12]
 800638a:	2b00      	cmp	r3, #0
 800638c:	bfbb      	ittet	lt
 800638e:	425b      	neglt	r3, r3
 8006390:	f042 0202 	orrlt.w	r2, r2, #2
 8006394:	9307      	strge	r3, [sp, #28]
 8006396:	9307      	strlt	r3, [sp, #28]
 8006398:	bfb8      	it	lt
 800639a:	9204      	strlt	r2, [sp, #16]
 800639c:	7823      	ldrb	r3, [r4, #0]
 800639e:	2b2e      	cmp	r3, #46	@ 0x2e
 80063a0:	d10a      	bne.n	80063b8 <_svfiprintf_r+0x130>
 80063a2:	7863      	ldrb	r3, [r4, #1]
 80063a4:	2b2a      	cmp	r3, #42	@ 0x2a
 80063a6:	d132      	bne.n	800640e <_svfiprintf_r+0x186>
 80063a8:	9b03      	ldr	r3, [sp, #12]
 80063aa:	3402      	adds	r4, #2
 80063ac:	1d1a      	adds	r2, r3, #4
 80063ae:	681b      	ldr	r3, [r3, #0]
 80063b0:	9203      	str	r2, [sp, #12]
 80063b2:	ea43 73e3 	orr.w	r3, r3, r3, asr #31
 80063b6:	9305      	str	r3, [sp, #20]
 80063b8:	f8df a0b4 	ldr.w	sl, [pc, #180]	@ 8006470 <_svfiprintf_r+0x1e8>
 80063bc:	2203      	movs	r2, #3
 80063be:	4650      	mov	r0, sl
 80063c0:	7821      	ldrb	r1, [r4, #0]
 80063c2:	f000 fa17 	bl	80067f4 <memchr>
 80063c6:	b138      	cbz	r0, 80063d8 <_svfiprintf_r+0x150>
 80063c8:	2240      	movs	r2, #64	@ 0x40
 80063ca:	9b04      	ldr	r3, [sp, #16]
 80063cc:	eba0 000a 	sub.w	r0, r0, sl
 80063d0:	4082      	lsls	r2, r0
 80063d2:	4313      	orrs	r3, r2
 80063d4:	3401      	adds	r4, #1
 80063d6:	9304      	str	r3, [sp, #16]
 80063d8:	f814 1b01 	ldrb.w	r1, [r4], #1
 80063dc:	2206      	movs	r2, #6
 80063de:	4825      	ldr	r0, [pc, #148]	@ (8006474 <_svfiprintf_r+0x1ec>)
 80063e0:	f88d 1028 	strb.w	r1, [sp, #40]	@ 0x28
 80063e4:	f000 fa06 	bl	80067f4 <memchr>
 80063e8:	2800      	cmp	r0, #0
 80063ea:	d036      	beq.n	800645a <_svfiprintf_r+0x1d2>
 80063ec:	4b22      	ldr	r3, [pc, #136]	@ (8006478 <_svfiprintf_r+0x1f0>)
 80063ee:	bb1b      	cbnz	r3, 8006438 <_svfiprintf_r+0x1b0>
 80063f0:	9b03      	ldr	r3, [sp, #12]
 80063f2:	3307      	adds	r3, #7
 80063f4:	f023 0307 	bic.w	r3, r3, #7
 80063f8:	3308      	adds	r3, #8
 80063fa:	9303      	str	r3, [sp, #12]
 80063fc:	9b09      	ldr	r3, [sp, #36]	@ 0x24
 80063fe:	4433      	add	r3, r6
 8006400:	9309      	str	r3, [sp, #36]	@ 0x24
 8006402:	e76a      	b.n	80062da <_svfiprintf_r+0x52>
 8006404:	460c      	mov	r4, r1
 8006406:	2001      	movs	r0, #1
 8006408:	fb0c 3202 	mla	r2, ip, r2, r3
 800640c:	e7a8      	b.n	8006360 <_svfiprintf_r+0xd8>
 800640e:	2300      	movs	r3, #0
 8006410:	f04f 0c0a 	mov.w	ip, #10
 8006414:	4619      	mov	r1, r3
 8006416:	3401      	adds	r4, #1
 8006418:	9305      	str	r3, [sp, #20]
 800641a:	4620      	mov	r0, r4
 800641c:	f810 2b01 	ldrb.w	r2, [r0], #1
 8006420:	3a30      	subs	r2, #48	@ 0x30
 8006422:	2a09      	cmp	r2, #9
 8006424:	d903      	bls.n	800642e <_svfiprintf_r+0x1a6>
 8006426:	2b00      	cmp	r3, #0
 8006428:	d0c6      	beq.n	80063b8 <_svfiprintf_r+0x130>
 800642a:	9105      	str	r1, [sp, #20]
 800642c:	e7c4      	b.n	80063b8 <_svfiprintf_r+0x130>
 800642e:	4604      	mov	r4, r0
 8006430:	2301      	movs	r3, #1
 8006432:	fb0c 2101 	mla	r1, ip, r1, r2
 8006436:	e7f0      	b.n	800641a <_svfiprintf_r+0x192>
 8006438:	ab03      	add	r3, sp, #12
 800643a:	9300      	str	r3, [sp, #0]
 800643c:	462a      	mov	r2, r5
 800643e:	4638      	mov	r0, r7
 8006440:	4b0e      	ldr	r3, [pc, #56]	@ (800647c <_svfiprintf_r+0x1f4>)
 8006442:	a904      	add	r1, sp, #16
 8006444:	f3af 8000 	nop.w
 8006448:	1c42      	adds	r2, r0, #1
 800644a:	4606      	mov	r6, r0
 800644c:	d1d6      	bne.n	80063fc <_svfiprintf_r+0x174>
 800644e:	89ab      	ldrh	r3, [r5, #12]
 8006450:	065b      	lsls	r3, r3, #25
 8006452:	f53f af2d 	bmi.w	80062b0 <_svfiprintf_r+0x28>
 8006456:	9809      	ldr	r0, [sp, #36]	@ 0x24
 8006458:	e72c      	b.n	80062b4 <_svfiprintf_r+0x2c>
 800645a:	ab03      	add	r3, sp, #12
 800645c:	9300      	str	r3, [sp, #0]
 800645e:	462a      	mov	r2, r5
 8006460:	4638      	mov	r0, r7
 8006462:	4b06      	ldr	r3, [pc, #24]	@ (800647c <_svfiprintf_r+0x1f4>)
 8006464:	a904      	add	r1, sp, #16
 8006466:	f000 f87d 	bl	8006564 <_printf_i>
 800646a:	e7ed      	b.n	8006448 <_svfiprintf_r+0x1c0>
 800646c:	08006a1c 	.word	0x08006a1c
 8006470:	08006a22 	.word	0x08006a22
 8006474:	08006a26 	.word	0x08006a26
 8006478:	00000000 	.word	0x00000000
 800647c:	080061d1 	.word	0x080061d1

08006480 <_printf_common>:
 8006480:	e92d 47f0 	stmdb	sp!, {r4, r5, r6, r7, r8, r9, sl, lr}
 8006484:	4616      	mov	r6, r2
 8006486:	4698      	mov	r8, r3
 8006488:	688a      	ldr	r2, [r1, #8]
 800648a:	690b      	ldr	r3, [r1, #16]
 800648c:	4607      	mov	r7, r0
 800648e:	4293      	cmp	r3, r2
 8006490:	bfb8      	it	lt
 8006492:	4613      	movlt	r3, r2
 8006494:	6033      	str	r3, [r6, #0]
 8006496:	f891 2043 	ldrb.w	r2, [r1, #67]	@ 0x43
 800649a:	460c      	mov	r4, r1
 800649c:	f8dd 9020 	ldr.w	r9, [sp, #32]
 80064a0:	b10a      	cbz	r2, 80064a6 <_printf_common+0x26>
 80064a2:	3301      	adds	r3, #1
 80064a4:	6033      	str	r3, [r6, #0]
 80064a6:	6823      	ldr	r3, [r4, #0]
 80064a8:	0699      	lsls	r1, r3, #26
 80064aa:	bf42      	ittt	mi
 80064ac:	6833      	ldrmi	r3, [r6, #0]
 80064ae:	3302      	addmi	r3, #2
 80064b0:	6033      	strmi	r3, [r6, #0]
 80064b2:	6825      	ldr	r5, [r4, #0]
 80064b4:	f015 0506 	ands.w	r5, r5, #6
 80064b8:	d106      	bne.n	80064c8 <_printf_common+0x48>
 80064ba:	f104 0a19 	add.w	sl, r4, #25
 80064be:	68e3      	ldr	r3, [r4, #12]
 80064c0:	6832      	ldr	r2, [r6, #0]
 80064c2:	1a9b      	subs	r3, r3, r2
 80064c4:	42ab      	cmp	r3, r5
 80064c6:	dc2b      	bgt.n	8006520 <_printf_common+0xa0>
 80064c8:	f894 3043 	ldrb.w	r3, [r4, #67]	@ 0x43
 80064cc:	6822      	ldr	r2, [r4, #0]
 80064ce:	3b00      	subs	r3, #0
 80064d0:	bf18      	it	ne
 80064d2:	2301      	movne	r3, #1
 80064d4:	0692      	lsls	r2, r2, #26
 80064d6:	d430      	bmi.n	800653a <_printf_common+0xba>
 80064d8:	4641      	mov	r1, r8
 80064da:	4638      	mov	r0, r7
 80064dc:	f104 0243 	add.w	r2, r4, #67	@ 0x43
 80064e0:	47c8      	blx	r9
 80064e2:	3001      	adds	r0, #1
 80064e4:	d023      	beq.n	800652e <_printf_common+0xae>
 80064e6:	6823      	ldr	r3, [r4, #0]
 80064e8:	6922      	ldr	r2, [r4, #16]
 80064ea:	f003 0306 	and.w	r3, r3, #6
 80064ee:	2b04      	cmp	r3, #4
 80064f0:	bf14      	ite	ne
 80064f2:	2500      	movne	r5, #0
 80064f4:	6833      	ldreq	r3, [r6, #0]
 80064f6:	f04f 0600 	mov.w	r6, #0
 80064fa:	bf08      	it	eq
 80064fc:	68e5      	ldreq	r5, [r4, #12]
 80064fe:	f104 041a 	add.w	r4, r4, #26
 8006502:	bf08      	it	eq
 8006504:	1aed      	subeq	r5, r5, r3
 8006506:	f854 3c12 	ldr.w	r3, [r4, #-18]
 800650a:	bf08      	it	eq
 800650c:	ea25 75e5 	biceq.w	r5, r5, r5, asr #31
 8006510:	4293      	cmp	r3, r2
 8006512:	bfc4      	itt	gt
 8006514:	1a9b      	subgt	r3, r3, r2
 8006516:	18ed      	addgt	r5, r5, r3
 8006518:	42b5      	cmp	r5, r6
 800651a:	d11a      	bne.n	8006552 <_printf_common+0xd2>
 800651c:	2000      	movs	r0, #0
 800651e:	e008      	b.n	8006532 <_printf_common+0xb2>
 8006520:	2301      	movs	r3, #1
 8006522:	4652      	mov	r2, sl
 8006524:	4641      	mov	r1, r8
 8006526:	4638      	mov	r0, r7
 8006528:	47c8      	blx	r9
 800652a:	3001      	adds	r0, #1
 800652c:	d103      	bne.n	8006536 <_printf_common+0xb6>
 800652e:	f04f 30ff 	mov.w	r0, #4294967295
 8006532:	e8bd 87f0 	ldmia.w	sp!, {r4, r5, r6, r7, r8, r9, sl, pc}
 8006536:	3501      	adds	r5, #1
 8006538:	e7c1      	b.n	80064be <_printf_common+0x3e>
 800653a:	2030      	movs	r0, #48	@ 0x30
 800653c:	18e1      	adds	r1, r4, r3
 800653e:	f881 0043 	strb.w	r0, [r1, #67]	@ 0x43
 8006542:	1c5a      	adds	r2, r3, #1
 8006544:	f894 1045 	ldrb.w	r1, [r4, #69]	@ 0x45
 8006548:	4422      	add	r2, r4
 800654a:	3302      	adds	r3, #2
 800654c:	f882 1043 	strb.w	r1, [r2, #67]	@ 0x43
 8006550:	e7c2      	b.n	80064d8 <_printf_common+0x58>
 8006552:	2301      	movs	r3, #1
 8006554:	4622      	mov	r2, r4
 8006556:	4641      	mov	r1, r8
 8006558:	4638      	mov	r0, r7
 800655a:	47c8      	blx	r9
 800655c:	3001      	adds	r0, #1
 800655e:	d0e6      	beq.n	800652e <_printf_common+0xae>
 8006560:	3601      	adds	r6, #1
 8006562:	e7d9      	b.n	8006518 <_printf_common+0x98>

08006564 <_printf_i>:
 8006564:	e92d 47ff 	stmdb	sp!, {r0, r1, r2, r3, r4, r5, r6, r7, r8, r9, sl, lr}
 8006568:	7e0f      	ldrb	r7, [r1, #24]
 800656a:	4691      	mov	r9, r2
 800656c:	2f78      	cmp	r7, #120	@ 0x78
 800656e:	4680      	mov	r8, r0
 8006570:	460c      	mov	r4, r1
 8006572:	469a      	mov	sl, r3
 8006574:	9e0c      	ldr	r6, [sp, #48]	@ 0x30
 8006576:	f101 0243 	add.w	r2, r1, #67	@ 0x43
 800657a:	d807      	bhi.n	800658c <_printf_i+0x28>
 800657c:	2f62      	cmp	r7, #98	@ 0x62
 800657e:	d80a      	bhi.n	8006596 <_printf_i+0x32>
 8006580:	2f00      	cmp	r7, #0
 8006582:	f000 80d1 	beq.w	8006728 <_printf_i+0x1c4>
 8006586:	2f58      	cmp	r7, #88	@ 0x58
 8006588:	f000 80b8 	beq.w	80066fc <_printf_i+0x198>
 800658c:	f104 0642 	add.w	r6, r4, #66	@ 0x42
 8006590:	f884 7042 	strb.w	r7, [r4, #66]	@ 0x42
 8006594:	e03a      	b.n	800660c <_printf_i+0xa8>
 8006596:	f1a7 0363 	sub.w	r3, r7, #99	@ 0x63
 800659a:	2b15      	cmp	r3, #21
 800659c:	d8f6      	bhi.n	800658c <_printf_i+0x28>
 800659e:	a101      	add	r1, pc, #4	@ (adr r1, 80065a4 <_printf_i+0x40>)
 80065a0:	f851 f023 	ldr.w	pc, [r1, r3, lsl #2]
 80065a4:	080065fd 	.word	0x080065fd
 80065a8:	08006611 	.word	0x08006611
 80065ac:	0800658d 	.word	0x0800658d
 80065b0:	0800658d 	.word	0x0800658d
 80065b4:	0800658d 	.word	0x0800658d
 80065b8:	0800658d 	.word	0x0800658d
 80065bc:	08006611 	.word	0x08006611
 80065c0:	0800658d 	.word	0x0800658d
 80065c4:	0800658d 	.word	0x0800658d
 80065c8:	0800658d 	.word	0x0800658d
 80065cc:	0800658d 	.word	0x0800658d
 80065d0:	0800670f 	.word	0x0800670f
 80065d4:	0800663b 	.word	0x0800663b
 80065d8:	080066c9 	.word	0x080066c9
 80065dc:	0800658d 	.word	0x0800658d
 80065e0:	0800658d 	.word	0x0800658d
 80065e4:	08006731 	.word	0x08006731
 80065e8:	0800658d 	.word	0x0800658d
 80065ec:	0800663b 	.word	0x0800663b
 80065f0:	0800658d 	.word	0x0800658d
 80065f4:	0800658d 	.word	0x0800658d
 80065f8:	080066d1 	.word	0x080066d1
 80065fc:	6833      	ldr	r3, [r6, #0]
 80065fe:	1d1a      	adds	r2, r3, #4
 8006600:	681b      	ldr	r3, [r3, #0]
 8006602:	6032      	str	r2, [r6, #0]
 8006604:	f104 0642 	add.w	r6, r4, #66	@ 0x42
 8006608:	f884 3042 	strb.w	r3, [r4, #66]	@ 0x42
 800660c:	2301      	movs	r3, #1
 800660e:	e09c      	b.n	800674a <_printf_i+0x1e6>
 8006610:	6833      	ldr	r3, [r6, #0]
 8006612:	6820      	ldr	r0, [r4, #0]
 8006614:	1d19      	adds	r1, r3, #4
 8006616:	6031      	str	r1, [r6, #0]
 8006618:	0606      	lsls	r6, r0, #24
 800661a:	d501      	bpl.n	8006620 <_printf_i+0xbc>
 800661c:	681d      	ldr	r5, [r3, #0]
 800661e:	e003      	b.n	8006628 <_printf_i+0xc4>
 8006620:	0645      	lsls	r5, r0, #25
 8006622:	d5fb      	bpl.n	800661c <_printf_i+0xb8>
 8006624:	f9b3 5000 	ldrsh.w	r5, [r3]
 8006628:	2d00      	cmp	r5, #0
 800662a:	da03      	bge.n	8006634 <_printf_i+0xd0>
 800662c:	232d      	movs	r3, #45	@ 0x2d
 800662e:	426d      	negs	r5, r5
 8006630:	f884 3043 	strb.w	r3, [r4, #67]	@ 0x43
 8006634:	230a      	movs	r3, #10
 8006636:	4858      	ldr	r0, [pc, #352]	@ (8006798 <_printf_i+0x234>)
 8006638:	e011      	b.n	800665e <_printf_i+0xfa>
 800663a:	6821      	ldr	r1, [r4, #0]
 800663c:	6833      	ldr	r3, [r6, #0]
 800663e:	0608      	lsls	r0, r1, #24
 8006640:	f853 5b04 	ldr.w	r5, [r3], #4
 8006644:	d402      	bmi.n	800664c <_printf_i+0xe8>
 8006646:	0649      	lsls	r1, r1, #25
 8006648:	bf48      	it	mi
 800664a:	b2ad      	uxthmi	r5, r5
 800664c:	2f6f      	cmp	r7, #111	@ 0x6f
 800664e:	6033      	str	r3, [r6, #0]
 8006650:	bf14      	ite	ne
 8006652:	230a      	movne	r3, #10
 8006654:	2308      	moveq	r3, #8
 8006656:	4850      	ldr	r0, [pc, #320]	@ (8006798 <_printf_i+0x234>)
 8006658:	2100      	movs	r1, #0
 800665a:	f884 1043 	strb.w	r1, [r4, #67]	@ 0x43
 800665e:	6866      	ldr	r6, [r4, #4]
 8006660:	2e00      	cmp	r6, #0
 8006662:	60a6      	str	r6, [r4, #8]
 8006664:	db05      	blt.n	8006672 <_printf_i+0x10e>
 8006666:	6821      	ldr	r1, [r4, #0]
 8006668:	432e      	orrs	r6, r5
 800666a:	f021 0104 	bic.w	r1, r1, #4
 800666e:	6021      	str	r1, [r4, #0]
 8006670:	d04b      	beq.n	800670a <_printf_i+0x1a6>
 8006672:	4616      	mov	r6, r2
 8006674:	fbb5 f1f3 	udiv	r1, r5, r3
 8006678:	fb03 5711 	mls	r7, r3, r1, r5
 800667c:	5dc7      	ldrb	r7, [r0, r7]
 800667e:	f806 7d01 	strb.w	r7, [r6, #-1]!
 8006682:	462f      	mov	r7, r5
 8006684:	42bb      	cmp	r3, r7
 8006686:	460d      	mov	r5, r1
 8006688:	d9f4      	bls.n	8006674 <_printf_i+0x110>
 800668a:	2b08      	cmp	r3, #8
 800668c:	d10b      	bne.n	80066a6 <_printf_i+0x142>
 800668e:	6823      	ldr	r3, [r4, #0]
 8006690:	07df      	lsls	r7, r3, #31
 8006692:	d508      	bpl.n	80066a6 <_printf_i+0x142>
 8006694:	6923      	ldr	r3, [r4, #16]
 8006696:	6861      	ldr	r1, [r4, #4]
 8006698:	4299      	cmp	r1, r3
 800669a:	bfde      	ittt	le
 800669c:	2330      	movle	r3, #48	@ 0x30
 800669e:	f806 3c01 	strble.w	r3, [r6, #-1]
 80066a2:	f106 36ff 	addle.w	r6, r6, #4294967295
 80066a6:	1b92      	subs	r2, r2, r6
 80066a8:	6122      	str	r2, [r4, #16]
 80066aa:	464b      	mov	r3, r9
 80066ac:	4621      	mov	r1, r4
 80066ae:	4640      	mov	r0, r8
 80066b0:	f8cd a000 	str.w	sl, [sp]
 80066b4:	aa03      	add	r2, sp, #12
 80066b6:	f7ff fee3 	bl	8006480 <_printf_common>
 80066ba:	3001      	adds	r0, #1
 80066bc:	d14a      	bne.n	8006754 <_printf_i+0x1f0>
 80066be:	f04f 30ff 	mov.w	r0, #4294967295
 80066c2:	b004      	add	sp, #16
 80066c4:	e8bd 87f0 	ldmia.w	sp!, {r4, r5, r6, r7, r8, r9, sl, pc}
 80066c8:	6823      	ldr	r3, [r4, #0]
 80066ca:	f043 0320 	orr.w	r3, r3, #32
 80066ce:	6023      	str	r3, [r4, #0]
 80066d0:	2778      	movs	r7, #120	@ 0x78
 80066d2:	4832      	ldr	r0, [pc, #200]	@ (800679c <_printf_i+0x238>)
 80066d4:	f884 7045 	strb.w	r7, [r4, #69]	@ 0x45
 80066d8:	6823      	ldr	r3, [r4, #0]
 80066da:	6831      	ldr	r1, [r6, #0]
 80066dc:	061f      	lsls	r7, r3, #24
 80066de:	f851 5b04 	ldr.w	r5, [r1], #4
 80066e2:	d402      	bmi.n	80066ea <_printf_i+0x186>
 80066e4:	065f      	lsls	r7, r3, #25
 80066e6:	bf48      	it	mi
 80066e8:	b2ad      	uxthmi	r5, r5
 80066ea:	6031      	str	r1, [r6, #0]
 80066ec:	07d9      	lsls	r1, r3, #31
 80066ee:	bf44      	itt	mi
 80066f0:	f043 0320 	orrmi.w	r3, r3, #32
 80066f4:	6023      	strmi	r3, [r4, #0]
 80066f6:	b11d      	cbz	r5, 8006700 <_printf_i+0x19c>
 80066f8:	2310      	movs	r3, #16
 80066fa:	e7ad      	b.n	8006658 <_printf_i+0xf4>
 80066fc:	4826      	ldr	r0, [pc, #152]	@ (8006798 <_printf_i+0x234>)
 80066fe:	e7e9      	b.n	80066d4 <_printf_i+0x170>
 8006700:	6823      	ldr	r3, [r4, #0]
 8006702:	f023 0320 	bic.w	r3, r3, #32
 8006706:	6023      	str	r3, [r4, #0]
 8006708:	e7f6      	b.n	80066f8 <_printf_i+0x194>
 800670a:	4616      	mov	r6, r2
 800670c:	e7bd      	b.n	800668a <_printf_i+0x126>
 800670e:	6833      	ldr	r3, [r6, #0]
 8006710:	6825      	ldr	r5, [r4, #0]
 8006712:	1d18      	adds	r0, r3, #4
 8006714:	6961      	ldr	r1, [r4, #20]
 8006716:	6030      	str	r0, [r6, #0]
 8006718:	062e      	lsls	r6, r5, #24
 800671a:	681b      	ldr	r3, [r3, #0]
 800671c:	d501      	bpl.n	8006722 <_printf_i+0x1be>
 800671e:	6019      	str	r1, [r3, #0]
 8006720:	e002      	b.n	8006728 <_printf_i+0x1c4>
 8006722:	0668      	lsls	r0, r5, #25
 8006724:	d5fb      	bpl.n	800671e <_printf_i+0x1ba>
 8006726:	8019      	strh	r1, [r3, #0]
 8006728:	2300      	movs	r3, #0
 800672a:	4616      	mov	r6, r2
 800672c:	6123      	str	r3, [r4, #16]
 800672e:	e7bc      	b.n	80066aa <_printf_i+0x146>
 8006730:	6833      	ldr	r3, [r6, #0]
 8006732:	2100      	movs	r1, #0
 8006734:	1d1a      	adds	r2, r3, #4
 8006736:	6032      	str	r2, [r6, #0]
 8006738:	681e      	ldr	r6, [r3, #0]
 800673a:	6862      	ldr	r2, [r4, #4]
 800673c:	4630      	mov	r0, r6
 800673e:	f000 f859 	bl	80067f4 <memchr>
 8006742:	b108      	cbz	r0, 8006748 <_printf_i+0x1e4>
 8006744:	1b80      	subs	r0, r0, r6
 8006746:	6060      	str	r0, [r4, #4]
 8006748:	6863      	ldr	r3, [r4, #4]
 800674a:	6123      	str	r3, [r4, #16]
 800674c:	2300      	movs	r3, #0
 800674e:	f884 3043 	strb.w	r3, [r4, #67]	@ 0x43
 8006752:	e7aa      	b.n	80066aa <_printf_i+0x146>
 8006754:	4632      	mov	r2, r6
 8006756:	4649      	mov	r1, r9
 8006758:	4640      	mov	r0, r8
 800675a:	6923      	ldr	r3, [r4, #16]
 800675c:	47d0      	blx	sl
 800675e:	3001      	adds	r0, #1
 8006760:	d0ad      	beq.n	80066be <_printf_i+0x15a>
 8006762:	6823      	ldr	r3, [r4, #0]
 8006764:	079b      	lsls	r3, r3, #30
 8006766:	d413      	bmi.n	8006790 <_printf_i+0x22c>
 8006768:	68e0      	ldr	r0, [r4, #12]
 800676a:	9b03      	ldr	r3, [sp, #12]
 800676c:	4298      	cmp	r0, r3
 800676e:	bfb8      	it	lt
 8006770:	4618      	movlt	r0, r3
 8006772:	e7a6      	b.n	80066c2 <_printf_i+0x15e>
 8006774:	2301      	movs	r3, #1
 8006776:	4632      	mov	r2, r6
 8006778:	4649      	mov	r1, r9
 800677a:	4640      	mov	r0, r8
 800677c:	47d0      	blx	sl
 800677e:	3001      	adds	r0, #1
 8006780:	d09d      	beq.n	80066be <_printf_i+0x15a>
 8006782:	3501      	adds	r5, #1
 8006784:	68e3      	ldr	r3, [r4, #12]
 8006786:	9903      	ldr	r1, [sp, #12]
 8006788:	1a5b      	subs	r3, r3, r1
 800678a:	42ab      	cmp	r3, r5
 800678c:	dcf2      	bgt.n	8006774 <_printf_i+0x210>
 800678e:	e7eb      	b.n	8006768 <_printf_i+0x204>
 8006790:	2500      	movs	r5, #0
 8006792:	f104 0619 	add.w	r6, r4, #25
 8006796:	e7f5      	b.n	8006784 <_printf_i+0x220>
 8006798:	08006a2d 	.word	0x08006a2d
 800679c:	08006a3e 	.word	0x08006a3e

080067a0 <memmove>:
 80067a0:	4288      	cmp	r0, r1
 80067a2:	b510      	push	{r4, lr}
 80067a4:	eb01 0402 	add.w	r4, r1, r2
 80067a8:	d902      	bls.n	80067b0 <memmove+0x10>
 80067aa:	4284      	cmp	r4, r0
 80067ac:	4623      	mov	r3, r4
 80067ae:	d807      	bhi.n	80067c0 <memmove+0x20>
 80067b0:	1e43      	subs	r3, r0, #1
 80067b2:	42a1      	cmp	r1, r4
 80067b4:	d008      	beq.n	80067c8 <memmove+0x28>
 80067b6:	f811 2b01 	ldrb.w	r2, [r1], #1
 80067ba:	f803 2f01 	strb.w	r2, [r3, #1]!
 80067be:	e7f8      	b.n	80067b2 <memmove+0x12>
 80067c0:	4601      	mov	r1, r0
 80067c2:	4402      	add	r2, r0
 80067c4:	428a      	cmp	r2, r1
 80067c6:	d100      	bne.n	80067ca <memmove+0x2a>
 80067c8:	bd10      	pop	{r4, pc}
 80067ca:	f813 4d01 	ldrb.w	r4, [r3, #-1]!
 80067ce:	f802 4d01 	strb.w	r4, [r2, #-1]!
 80067d2:	e7f7      	b.n	80067c4 <memmove+0x24>

080067d4 <_sbrk_r>:
 80067d4:	b538      	push	{r3, r4, r5, lr}
 80067d6:	2300      	movs	r3, #0
 80067d8:	4d05      	ldr	r5, [pc, #20]	@ (80067f0 <_sbrk_r+0x1c>)
 80067da:	4604      	mov	r4, r0
 80067dc:	4608      	mov	r0, r1
 80067de:	602b      	str	r3, [r5, #0]
 80067e0:	f7fa fcd0 	bl	8001184 <_sbrk>
 80067e4:	1c43      	adds	r3, r0, #1
 80067e6:	d102      	bne.n	80067ee <_sbrk_r+0x1a>
 80067e8:	682b      	ldr	r3, [r5, #0]
 80067ea:	b103      	cbz	r3, 80067ee <_sbrk_r+0x1a>
 80067ec:	6023      	str	r3, [r4, #0]
 80067ee:	bd38      	pop	{r3, r4, r5, pc}
 80067f0:	2000124c 	.word	0x2000124c

080067f4 <memchr>:
 80067f4:	4603      	mov	r3, r0
 80067f6:	b510      	push	{r4, lr}
 80067f8:	b2c9      	uxtb	r1, r1
 80067fa:	4402      	add	r2, r0
 80067fc:	4293      	cmp	r3, r2
 80067fe:	4618      	mov	r0, r3
 8006800:	d101      	bne.n	8006806 <memchr+0x12>
 8006802:	2000      	movs	r0, #0
 8006804:	e003      	b.n	800680e <memchr+0x1a>
 8006806:	7804      	ldrb	r4, [r0, #0]
 8006808:	3301      	adds	r3, #1
 800680a:	428c      	cmp	r4, r1
 800680c:	d1f6      	bne.n	80067fc <memchr+0x8>
 800680e:	bd10      	pop	{r4, pc}

08006810 <_realloc_r>:
 8006810:	e92d 41f0 	stmdb	sp!, {r4, r5, r6, r7, r8, lr}
 8006814:	4607      	mov	r7, r0
 8006816:	4614      	mov	r4, r2
 8006818:	460d      	mov	r5, r1
 800681a:	b921      	cbnz	r1, 8006826 <_realloc_r+0x16>
 800681c:	4611      	mov	r1, r2
 800681e:	e8bd 41f0 	ldmia.w	sp!, {r4, r5, r6, r7, r8, lr}
 8006822:	f7ff bc49 	b.w	80060b8 <_malloc_r>
 8006826:	b92a      	cbnz	r2, 8006834 <_realloc_r+0x24>
 8006828:	f7ff fbdc 	bl	8005fe4 <_free_r>
 800682c:	4625      	mov	r5, r4
 800682e:	4628      	mov	r0, r5
 8006830:	e8bd 81f0 	ldmia.w	sp!, {r4, r5, r6, r7, r8, pc}
 8006834:	f000 f81a 	bl	800686c <_malloc_usable_size_r>
 8006838:	4284      	cmp	r4, r0
 800683a:	4606      	mov	r6, r0
 800683c:	d802      	bhi.n	8006844 <_realloc_r+0x34>
 800683e:	ebb4 0f50 	cmp.w	r4, r0, lsr #1
 8006842:	d8f4      	bhi.n	800682e <_realloc_r+0x1e>
 8006844:	4621      	mov	r1, r4
 8006846:	4638      	mov	r0, r7
 8006848:	f7ff fc36 	bl	80060b8 <_malloc_r>
 800684c:	4680      	mov	r8, r0
 800684e:	b908      	cbnz	r0, 8006854 <_realloc_r+0x44>
 8006850:	4645      	mov	r5, r8
 8006852:	e7ec      	b.n	800682e <_realloc_r+0x1e>
 8006854:	42b4      	cmp	r4, r6
 8006856:	4622      	mov	r2, r4
 8006858:	4629      	mov	r1, r5
 800685a:	bf28      	it	cs
 800685c:	4632      	movcs	r2, r6
 800685e:	f7ff fbb3 	bl	8005fc8 <memcpy>
 8006862:	4629      	mov	r1, r5
 8006864:	4638      	mov	r0, r7
 8006866:	f7ff fbbd 	bl	8005fe4 <_free_r>
 800686a:	e7f1      	b.n	8006850 <_realloc_r+0x40>

0800686c <_malloc_usable_size_r>:
 800686c:	f851 3c04 	ldr.w	r3, [r1, #-4]
 8006870:	1f18      	subs	r0, r3, #4
 8006872:	2b00      	cmp	r3, #0
 8006874:	bfbc      	itt	lt
 8006876:	580b      	ldrlt	r3, [r1, r0]
 8006878:	18c0      	addlt	r0, r0, r3
 800687a:	4770      	bx	lr

0800687c <_init>:
 800687c:	b5f8      	push	{r3, r4, r5, r6, r7, lr}
 800687e:	bf00      	nop
 8006880:	bcf8      	pop	{r3, r4, r5, r6, r7}
 8006882:	bc08      	pop	{r3}
 8006884:	469e      	mov	lr, r3
 8006886:	4770      	bx	lr

08006888 <_fini>:
 8006888:	b5f8      	push	{r3, r4, r5, r6, r7, lr}
 800688a:	bf00      	nop
 800688c:	bcf8      	pop	{r3, r4, r5, r6, r7}
 800688e:	bc08      	pop	{r3}
 8006890:	469e      	mov	lr, r3
 8006892:	4770      	bx	lr
